ARM GAS  C:\Users\IGOR~1.HOL\AppData\Local\Temp\ccdi3Ihk.s 			page 1


   1              		.cpu cortex-m0
   2              		.fpu softvfp
   3              		.eabi_attribute 20, 1
   4              		.eabi_attribute 21, 1
   5              		.eabi_attribute 23, 3
   6              		.eabi_attribute 24, 1
   7              		.eabi_attribute 25, 1
   8              		.eabi_attribute 26, 1
   9              		.eabi_attribute 30, 6
  10              		.eabi_attribute 34, 0
  11              		.eabi_attribute 18, 4
  12              		.code	16
  13              		.file	"CapSense_1.c"
  14              		.text
  15              	.Ltext0:
  16              		.cfi_sections	.debug_frame
  17              		.global	CapSense_1_lowLevelTuningDone
  18              		.bss
  19              		.type	CapSense_1_lowLevelTuningDone, %object
  20              		.size	CapSense_1_lowLevelTuningDone, 1
  21              	CapSense_1_lowLevelTuningDone:
  22 0000 00       		.space	1
  23              		.comm	CapSense_1_scanSpeedTbl,1,4
  24              		.global	CapSense_1_csdStatusVar
  25              		.type	CapSense_1_csdStatusVar, %object
  26              		.size	CapSense_1_csdStatusVar, 1
  27              	CapSense_1_csdStatusVar:
  28 0001 00       		.space	1
  29              		.global	CapSense_1_sensorIndex
  30              		.type	CapSense_1_sensorIndex, %object
  31              		.size	CapSense_1_sensorIndex, 1
  32              	CapSense_1_sensorIndex:
  33 0002 00       		.space	1
  34              		.global	CapSense_1_sensorRaw
  35 0003 00       		.align	2
  36              		.type	CapSense_1_sensorRaw, %object
  37              		.size	CapSense_1_sensorRaw, 2
  38              	CapSense_1_sensorRaw:
  39 0004 0000     		.space	2
  40              		.comm	CapSense_1_csdTrim1,1,1
  41              		.comm	CapSense_1_unscannedSnsDriveMode,1,4
  42              		.comm	CapSense_1_sensorEnableMaskBackup,1,4
  43              		.global	CapSense_1_sensorEnableMask
  44              		.data
  45              		.align	2
  46              		.type	CapSense_1_sensorEnableMask, %object
  47              		.size	CapSense_1_sensorEnableMask, 1
  48              	CapSense_1_sensorEnableMask:
  49 0000 01       		.byte	1
  50              		.global	CapSense_1_pcTable
  51              		.bss
  52 0006 0000     		.align	2
  53              		.type	CapSense_1_pcTable, %object
  54              		.size	CapSense_1_pcTable, 4
  55              	CapSense_1_pcTable:
  56 0008 00000000 		.space	4
  57              		.global	CapSense_1_portTable
ARM GAS  C:\Users\IGOR~1.HOL\AppData\Local\Temp\ccdi3Ihk.s 			page 2


  58              		.section	.rodata
  59              		.align	2
  60              		.type	CapSense_1_portTable, %object
  61              		.size	CapSense_1_portTable, 1
  62              	CapSense_1_portTable:
  63 0000 00       		.space	1
  64              		.global	CapSense_1_maskTable
  65 0001 000000   		.align	2
  66              		.type	CapSense_1_maskTable, %object
  67              		.size	CapSense_1_maskTable, 4
  68              	CapSense_1_maskTable:
  69 0004 00000000 		.space	4
  70              		.global	CapSense_1_pinShiftTbl
  71              		.align	2
  72              		.type	CapSense_1_pinShiftTbl, %object
  73              		.size	CapSense_1_pinShiftTbl, 1
  74              	CapSense_1_pinShiftTbl:
  75 0008 00       		.space	1
  76              		.comm	CapSense_1_modulationIDAC,1,4
  77              		.comm	CapSense_1_compensationIDAC,1,4
  78              		.global	CapSense_1_widgetResolution
  79              		.data
  80 0001 000000   		.align	2
  81              		.type	CapSense_1_widgetResolution, %object
  82              		.size	CapSense_1_widgetResolution, 4
  83              	CapSense_1_widgetResolution:
  84 0004 0000FF0F 		.word	268369920
  85              		.comm	CapSense_1_senseClkDividerVal,1,4
  86              		.comm	CapSense_1_sampleClkDividerVal,1,4
  87              		.global	CapSense_1_widgetNumber
  88              		.section	.rodata
  89 0009 000000   		.align	2
  90              		.type	CapSense_1_widgetNumber, %object
  91              		.size	CapSense_1_widgetNumber, 1
  92              	CapSense_1_widgetNumber:
  93 000c 00       		.space	1
  94              		.global	CapSense_1_prtSelTbl
  95 000d 000000   		.align	2
  96              		.type	CapSense_1_prtSelTbl, %object
  97              		.size	CapSense_1_prtSelTbl, 32
  98              	CapSense_1_prtSelTbl:
  99 0010 00000240 		.word	1073872896
 100 0014 00010240 		.word	1073873152
 101 0018 00020240 		.word	1073873408
 102 001c 00030240 		.word	1073873664
 103 0020 00040240 		.word	1073873920
 104 0024 00050240 		.word	1073874176
 105 0028 00060240 		.word	1073874432
 106 002c 00070240 		.word	1073874688
 107              		.global	CapSense_1_prtCfgTbl
 108              		.align	2
 109              		.type	CapSense_1_prtCfgTbl, %object
 110              		.size	CapSense_1_prtCfgTbl, 32
 111              	CapSense_1_prtCfgTbl:
 112 0030 08000440 		.word	1074003976
 113 0034 08010440 		.word	1074004232
 114 0038 08020440 		.word	1074004488
ARM GAS  C:\Users\IGOR~1.HOL\AppData\Local\Temp\ccdi3Ihk.s 			page 3


 115 003c 08030440 		.word	1074004744
 116 0040 08040440 		.word	1074005000
 117 0044 08050440 		.word	1074005256
 118 0048 08060440 		.word	1074005512
 119 004c 08070440 		.word	1074005768
 120              		.global	CapSense_1_prtDRTbl
 121              		.align	2
 122              		.type	CapSense_1_prtDRTbl, %object
 123              		.size	CapSense_1_prtDRTbl, 32
 124              	CapSense_1_prtDRTbl:
 125 0050 00000440 		.word	1074003968
 126 0054 00010440 		.word	1074004224
 127 0058 00020440 		.word	1074004480
 128 005c 00030440 		.word	1074004736
 129 0060 00040440 		.word	1074004992
 130 0064 00050440 		.word	1074005248
 131 0068 00060440 		.word	1074005504
 132 006c 00070440 		.word	1074005760
 133              		.section	.text.CapSense_1_Init,"ax",%progbits
 134              		.align	2
 135              		.global	CapSense_1_Init
 136              		.code	16
 137              		.thumb_func
 138              		.type	CapSense_1_Init, %function
 139              	CapSense_1_Init:
 140              	.LFB35:
 141              		.file 1 "Generated_Source\\PSoC4\\CapSense_1.c"
   1:Generated_Source\PSoC4/CapSense_1.c **** /*******************************************************************************
   2:Generated_Source\PSoC4/CapSense_1.c **** * File Name: CapSense_1.c
   3:Generated_Source\PSoC4/CapSense_1.c **** * Version 2.60
   4:Generated_Source\PSoC4/CapSense_1.c **** *
   5:Generated_Source\PSoC4/CapSense_1.c **** * Description:
   6:Generated_Source\PSoC4/CapSense_1.c **** *  This file provides the source code for scanning APIs for the CapSense CSD
   7:Generated_Source\PSoC4/CapSense_1.c **** *  component.
   8:Generated_Source\PSoC4/CapSense_1.c **** *
   9:Generated_Source\PSoC4/CapSense_1.c **** * Note:
  10:Generated_Source\PSoC4/CapSense_1.c **** *
  11:Generated_Source\PSoC4/CapSense_1.c **** ********************************************************************************
  12:Generated_Source\PSoC4/CapSense_1.c **** * Copyright 2013-2016, Cypress Semiconductor Corporation.  All rights reserved.
  13:Generated_Source\PSoC4/CapSense_1.c **** * You may use this file only in accordance with the license, terms, conditions,
  14:Generated_Source\PSoC4/CapSense_1.c **** * disclaimers, and limitations in the end user license agreement accompanying
  15:Generated_Source\PSoC4/CapSense_1.c **** * the software package with which this file was provided.
  16:Generated_Source\PSoC4/CapSense_1.c **** *******************************************************************************/
  17:Generated_Source\PSoC4/CapSense_1.c **** 
  18:Generated_Source\PSoC4/CapSense_1.c **** #include "CapSense_1.h"
  19:Generated_Source\PSoC4/CapSense_1.c **** #include "CapSense_1_PVT.h"
  20:Generated_Source\PSoC4/CapSense_1.c **** #include "cypins.h"
  21:Generated_Source\PSoC4/CapSense_1.c **** #include "cyapicallbacks.h"
  22:Generated_Source\PSoC4/CapSense_1.c **** 
  23:Generated_Source\PSoC4/CapSense_1.c **** #if(0u != CapSense_1_CSHL_API_GENERATE)
  24:Generated_Source\PSoC4/CapSense_1.c ****     #include "CapSense_1_CSHL.h"
  25:Generated_Source\PSoC4/CapSense_1.c **** #endif /* (0u != CapSense_1_CSHL_API_GENERATE) */
  26:Generated_Source\PSoC4/CapSense_1.c **** 
  27:Generated_Source\PSoC4/CapSense_1.c **** /* This definition is intended to prevent unexpected linker error.
  28:Generated_Source\PSoC4/CapSense_1.c ****    For more details please see the IAR Technical Note 49981 */
  29:Generated_Source\PSoC4/CapSense_1.c **** #if defined(__ICCARM__)
  30:Generated_Source\PSoC4/CapSense_1.c ****     extern void CapSense_1_EnableSensor(uint32 sensor);
ARM GAS  C:\Users\IGOR~1.HOL\AppData\Local\Temp\ccdi3Ihk.s 			page 4


  31:Generated_Source\PSoC4/CapSense_1.c ****     extern void CapSense_1_DisableSensor(uint32 sensor);
  32:Generated_Source\PSoC4/CapSense_1.c **** #endif /* (__ICCARM__) */
  33:Generated_Source\PSoC4/CapSense_1.c **** 
  34:Generated_Source\PSoC4/CapSense_1.c **** /* SmartSense functions */
  35:Generated_Source\PSoC4/CapSense_1.c **** #if (CapSense_1_TUNING_METHOD == CapSense_1__TUNING_AUTO)
  36:Generated_Source\PSoC4/CapSense_1.c ****     uint8 CapSense_1_lowLevelTuningDone = 0u;
  37:Generated_Source\PSoC4/CapSense_1.c ****     uint8 CapSense_1_scanSpeedTbl[((CapSense_1_TOTAL_SENSOR_COUNT - 1u) / 8u) + 1u];
  38:Generated_Source\PSoC4/CapSense_1.c **** #endif /* (CapSense_1_TUNING_METHOD == CapSense_1__TUNING_AUTO) */
  39:Generated_Source\PSoC4/CapSense_1.c **** 
  40:Generated_Source\PSoC4/CapSense_1.c **** #if(CapSense_1_PRS_OPTIONS != CapSense_1__PRS_NONE)
  41:Generated_Source\PSoC4/CapSense_1.c ****     uint8 CapSense_1_prescalersTuningDone = 0u;
  42:Generated_Source\PSoC4/CapSense_1.c **** #endif /* (CapSense_1_PRS_OPTIONS == CapSense_1__PRS_NONE) */
  43:Generated_Source\PSoC4/CapSense_1.c **** 
  44:Generated_Source\PSoC4/CapSense_1.c **** /* Global software variables */
  45:Generated_Source\PSoC4/CapSense_1.c **** volatile uint8 CapSense_1_csdStatusVar = 0u;   /* CapSense CSD status, variable */
  46:Generated_Source\PSoC4/CapSense_1.c **** volatile uint8 CapSense_1_sensorIndex = 0u;    /* Index of scannig sensor */
  47:Generated_Source\PSoC4/CapSense_1.c **** 
  48:Generated_Source\PSoC4/CapSense_1.c **** /* Global array of Raw Counts */
  49:Generated_Source\PSoC4/CapSense_1.c **** uint16 CapSense_1_sensorRaw[CapSense_1_TOTAL_SENSOR_COUNT] = {0u};
  50:Generated_Source\PSoC4/CapSense_1.c **** 
  51:Generated_Source\PSoC4/CapSense_1.c **** /* Backup variables for trim registers*/
  52:Generated_Source\PSoC4/CapSense_1.c **** #if (CapSense_1_IDAC1_POLARITY == CapSense_1__IDAC_SINK)
  53:Generated_Source\PSoC4/CapSense_1.c ****     uint8 CapSense_1_csdTrim2;
  54:Generated_Source\PSoC4/CapSense_1.c **** #else
  55:Generated_Source\PSoC4/CapSense_1.c ****     uint8 CapSense_1_csdTrim1;
  56:Generated_Source\PSoC4/CapSense_1.c **** #endif /* (CapSense_1_IDAC1_POLARITY == CapSense_1__IDAC_SINK) */
  57:Generated_Source\PSoC4/CapSense_1.c **** 
  58:Generated_Source\PSoC4/CapSense_1.c **** /* Global array of un-scanned sensors state */
  59:Generated_Source\PSoC4/CapSense_1.c **** uint8 CapSense_1_unscannedSnsDriveMode[CapSense_1_PORT_PIN_CONFIG_TBL_ZISE];
  60:Generated_Source\PSoC4/CapSense_1.c **** 
  61:Generated_Source\PSoC4/CapSense_1.c **** /* Backup array for CapSense_1_sensorEnableMask */
  62:Generated_Source\PSoC4/CapSense_1.c **** uint8 CapSense_1_sensorEnableMaskBackup[(((CapSense_1_TOTAL_SENSOR_COUNT - 1u) / 8u) + 1u)];
  63:Generated_Source\PSoC4/CapSense_1.c **** 
  64:Generated_Source\PSoC4/CapSense_1.c **** /* Configured constants and arrays by Customizer */
  65:Generated_Source\PSoC4/CapSense_1.c **** uint8 CapSense_1_sensorEnableMask[(((CapSense_1_TOTAL_SENSOR_COUNT - 1u) / 8u) + 1u)] = {
  66:Generated_Source\PSoC4/CapSense_1.c **** 0x1u, };
  67:Generated_Source\PSoC4/CapSense_1.c **** 
  68:Generated_Source\PSoC4/CapSense_1.c **** reg32 * CapSense_1_pcTable[] = {
  69:Generated_Source\PSoC4/CapSense_1.c **** 0u,
  70:Generated_Source\PSoC4/CapSense_1.c **** };
  71:Generated_Source\PSoC4/CapSense_1.c **** 
  72:Generated_Source\PSoC4/CapSense_1.c **** const uint8 CapSense_1_portTable[] = {
  73:Generated_Source\PSoC4/CapSense_1.c **** 0u,
  74:Generated_Source\PSoC4/CapSense_1.c **** };
  75:Generated_Source\PSoC4/CapSense_1.c **** 
  76:Generated_Source\PSoC4/CapSense_1.c **** const uint32 CapSense_1_maskTable[] = {
  77:Generated_Source\PSoC4/CapSense_1.c **** 0u,
  78:Generated_Source\PSoC4/CapSense_1.c **** };
  79:Generated_Source\PSoC4/CapSense_1.c **** 
  80:Generated_Source\PSoC4/CapSense_1.c **** const uint8 CapSense_1_pinShiftTbl[] = {
  81:Generated_Source\PSoC4/CapSense_1.c ****     0u,
  82:Generated_Source\PSoC4/CapSense_1.c **** };
  83:Generated_Source\PSoC4/CapSense_1.c **** 
  84:Generated_Source\PSoC4/CapSense_1.c **** uint8 CapSense_1_modulationIDAC[CapSense_1_TOTAL_SENSOR_COUNT];
  85:Generated_Source\PSoC4/CapSense_1.c **** uint8 CapSense_1_compensationIDAC[CapSense_1_TOTAL_SENSOR_COUNT];
  86:Generated_Source\PSoC4/CapSense_1.c **** 
  87:Generated_Source\PSoC4/CapSense_1.c **** uint32 CapSense_1_widgetResolution[CapSense_1_RESOLUTIONS_TBL_SIZE] = {
ARM GAS  C:\Users\IGOR~1.HOL\AppData\Local\Temp\ccdi3Ihk.s 			page 5


  88:Generated_Source\PSoC4/CapSense_1.c ****     CapSense_1_RESOLUTION_12_BITS,
  89:Generated_Source\PSoC4/CapSense_1.c **** };
  90:Generated_Source\PSoC4/CapSense_1.c **** 
  91:Generated_Source\PSoC4/CapSense_1.c **** uint8 CapSense_1_senseClkDividerVal[CapSense_1_TOTAL_SCANSLOT_COUNT];
  92:Generated_Source\PSoC4/CapSense_1.c **** uint8 CapSense_1_sampleClkDividerVal[CapSense_1_TOTAL_SCANSLOT_COUNT];
  93:Generated_Source\PSoC4/CapSense_1.c **** 
  94:Generated_Source\PSoC4/CapSense_1.c **** const uint8 CapSense_1_widgetNumber[CapSense_1_TOTAL_SENSOR_COUNT] = {
  95:Generated_Source\PSoC4/CapSense_1.c ****     0u, /* DummyWidget__BTN */
  96:Generated_Source\PSoC4/CapSense_1.c **** };
  97:Generated_Source\PSoC4/CapSense_1.c **** 
  98:Generated_Source\PSoC4/CapSense_1.c **** reg32* const CapSense_1_prtSelTbl[CapSense_1_CFG_REG_TBL_SIZE] = {
  99:Generated_Source\PSoC4/CapSense_1.c ****     ((reg32 *) CYREG_HSIOM_PORT_SEL0),
 100:Generated_Source\PSoC4/CapSense_1.c ****     ((reg32 *) CYREG_HSIOM_PORT_SEL1),
 101:Generated_Source\PSoC4/CapSense_1.c ****     ((reg32 *) CYREG_HSIOM_PORT_SEL2),
 102:Generated_Source\PSoC4/CapSense_1.c ****     ((reg32 *) CYREG_HSIOM_PORT_SEL3),
 103:Generated_Source\PSoC4/CapSense_1.c ****     ((reg32 *) CYREG_HSIOM_PORT_SEL4),
 104:Generated_Source\PSoC4/CapSense_1.c ****     ((reg32 *) CYREG_HSIOM_PORT_SEL5),
 105:Generated_Source\PSoC4/CapSense_1.c ****     ((reg32 *) CYREG_HSIOM_PORT_SEL6),
 106:Generated_Source\PSoC4/CapSense_1.c ****     ((reg32 *) CYREG_HSIOM_PORT_SEL7),
 107:Generated_Source\PSoC4/CapSense_1.c **** };
 108:Generated_Source\PSoC4/CapSense_1.c **** 
 109:Generated_Source\PSoC4/CapSense_1.c **** reg32* const CapSense_1_prtCfgTbl[CapSense_1_CFG_REG_TBL_SIZE] = {
 110:Generated_Source\PSoC4/CapSense_1.c ****     ((reg32 *) CYREG_GPIO_PRT0_PC),
 111:Generated_Source\PSoC4/CapSense_1.c ****     ((reg32 *) CYREG_GPIO_PRT1_PC),
 112:Generated_Source\PSoC4/CapSense_1.c ****     ((reg32 *) CYREG_GPIO_PRT2_PC),
 113:Generated_Source\PSoC4/CapSense_1.c ****     ((reg32 *) CYREG_GPIO_PRT3_PC),
 114:Generated_Source\PSoC4/CapSense_1.c ****     ((reg32 *) CYREG_GPIO_PRT4_PC),
 115:Generated_Source\PSoC4/CapSense_1.c ****     ((reg32 *) CYREG_GPIO_PRT5_PC),
 116:Generated_Source\PSoC4/CapSense_1.c ****     ((reg32 *) CYREG_GPIO_PRT6_PC),
 117:Generated_Source\PSoC4/CapSense_1.c ****     ((reg32 *) CYREG_GPIO_PRT7_PC),
 118:Generated_Source\PSoC4/CapSense_1.c **** };
 119:Generated_Source\PSoC4/CapSense_1.c **** 
 120:Generated_Source\PSoC4/CapSense_1.c **** reg32* const CapSense_1_prtDRTbl[CapSense_1_CFG_REG_TBL_SIZE] = {
 121:Generated_Source\PSoC4/CapSense_1.c ****     ((reg32 *) CYREG_GPIO_PRT0_DR),
 122:Generated_Source\PSoC4/CapSense_1.c ****     ((reg32 *) CYREG_GPIO_PRT1_DR),
 123:Generated_Source\PSoC4/CapSense_1.c ****     ((reg32 *) CYREG_GPIO_PRT2_DR),
 124:Generated_Source\PSoC4/CapSense_1.c ****     ((reg32 *) CYREG_GPIO_PRT3_DR),
 125:Generated_Source\PSoC4/CapSense_1.c ****     ((reg32 *) CYREG_GPIO_PRT4_DR),
 126:Generated_Source\PSoC4/CapSense_1.c ****     ((reg32 *) CYREG_GPIO_PRT5_DR),
 127:Generated_Source\PSoC4/CapSense_1.c ****     ((reg32 *) CYREG_GPIO_PRT6_DR),
 128:Generated_Source\PSoC4/CapSense_1.c ****     ((reg32 *) CYREG_GPIO_PRT7_DR),
 129:Generated_Source\PSoC4/CapSense_1.c **** };
 130:Generated_Source\PSoC4/CapSense_1.c **** 
 131:Generated_Source\PSoC4/CapSense_1.c **** 
 132:Generated_Source\PSoC4/CapSense_1.c **** 
 133:Generated_Source\PSoC4/CapSense_1.c **** /*******************************************************************************
 134:Generated_Source\PSoC4/CapSense_1.c **** * Function Name: CapSense_1_Init
 135:Generated_Source\PSoC4/CapSense_1.c **** ********************************************************************************
 136:Generated_Source\PSoC4/CapSense_1.c **** *
 137:Generated_Source\PSoC4/CapSense_1.c **** * Summary:
 138:Generated_Source\PSoC4/CapSense_1.c **** *  API initializes default CapSense configuration provided by the customizer that defines
 139:Generated_Source\PSoC4/CapSense_1.c **** *  the mode of component operations and resets all the sensors to an inactive state.
 140:Generated_Source\PSoC4/CapSense_1.c **** *
 141:Generated_Source\PSoC4/CapSense_1.c **** * Parameters:
 142:Generated_Source\PSoC4/CapSense_1.c **** *  None
 143:Generated_Source\PSoC4/CapSense_1.c **** *
 144:Generated_Source\PSoC4/CapSense_1.c **** * Return:
ARM GAS  C:\Users\IGOR~1.HOL\AppData\Local\Temp\ccdi3Ihk.s 			page 6


 145:Generated_Source\PSoC4/CapSense_1.c **** *  None
 146:Generated_Source\PSoC4/CapSense_1.c **** *
 147:Generated_Source\PSoC4/CapSense_1.c **** * Global Variables:
 148:Generated_Source\PSoC4/CapSense_1.c **** *  CapSense_1_immunityIndex - defines immunity level.
 149:Generated_Source\PSoC4/CapSense_1.c **** *
 150:Generated_Source\PSoC4/CapSense_1.c **** * Side Effects:
 151:Generated_Source\PSoC4/CapSense_1.c **** *  None
 152:Generated_Source\PSoC4/CapSense_1.c **** *
 153:Generated_Source\PSoC4/CapSense_1.c **** *******************************************************************************/
 154:Generated_Source\PSoC4/CapSense_1.c **** void CapSense_1_Init(void)
 155:Generated_Source\PSoC4/CapSense_1.c **** {
 142              		.loc 1 155 0
 143              		.cfi_startproc
 144 0000 80B5     		push	{r7, lr}
 145              		.cfi_def_cfa_offset 8
 146              		.cfi_offset 7, -8
 147              		.cfi_offset 14, -4
 148 0002 82B0     		sub	sp, sp, #8
 149              		.cfi_def_cfa_offset 16
 150 0004 00AF     		add	r7, sp, #0
 151              		.cfi_def_cfa_register 7
 156:Generated_Source\PSoC4/CapSense_1.c ****     uint32 curSensor;
 157:Generated_Source\PSoC4/CapSense_1.c **** 
 158:Generated_Source\PSoC4/CapSense_1.c ****     #if(CapSense_1_IS_SHIELD_ENABLE)
 159:Generated_Source\PSoC4/CapSense_1.c **** 
 160:Generated_Source\PSoC4/CapSense_1.c ****         #if((CapSense_1_CSH_TANK_PREGARGE_OPTION == CapSense_1__CAPPRIOBUF) || (0u != CapSense_1_CS
 161:Generated_Source\PSoC4/CapSense_1.c ****             uint32 newRegValue;
 162:Generated_Source\PSoC4/CapSense_1.c **** 
 163:Generated_Source\PSoC4/CapSense_1.c ****             newRegValue = CapSense_1_CTANK_CONNECTION_REG;
 164:Generated_Source\PSoC4/CapSense_1.c ****             newRegValue &= ~(CapSense_1_CSD_CTANK_CONNECTION_MASK);
 165:Generated_Source\PSoC4/CapSense_1.c ****             newRegValue |= CapSense_1_CSD_CTANK_TO_AMUXBUS_B;
 166:Generated_Source\PSoC4/CapSense_1.c ****             CapSense_1_CTANK_CONNECTION_REG = newRegValue;
 167:Generated_Source\PSoC4/CapSense_1.c **** 
 168:Generated_Source\PSoC4/CapSense_1.c ****             #if(CapSense_1_CSH_TANK_PREGARGE_OPTION == CapSense_1__CAPPRIOBUF)
 169:Generated_Source\PSoC4/CapSense_1.c ****                 newRegValue = CapSense_1_CTANK_PORT_PC_REG;
 170:Generated_Source\PSoC4/CapSense_1.c ****                 newRegValue &= ~(CapSense_1_CSD_CTANK_PC_MASK);
 171:Generated_Source\PSoC4/CapSense_1.c ****                 newRegValue |= CapSense_1_CTANK_PC_STRONG_MODE;
 172:Generated_Source\PSoC4/CapSense_1.c ****                 CapSense_1_CTANK_PORT_PC_REG = newRegValue;
 173:Generated_Source\PSoC4/CapSense_1.c **** 
 174:Generated_Source\PSoC4/CapSense_1.c ****                 newRegValue = CapSense_1_CTANK_PORT_DR_REG;
 175:Generated_Source\PSoC4/CapSense_1.c ****                 newRegValue &= ~(CapSense_1_CTANK_DR_MASK);
 176:Generated_Source\PSoC4/CapSense_1.c ****                 newRegValue |= CapSense_1_CTANK_DR_CONFIG;
 177:Generated_Source\PSoC4/CapSense_1.c ****                 CapSense_1_CTANK_PORT_DR_REG = newRegValue;
 178:Generated_Source\PSoC4/CapSense_1.c ****             #endif /* (CapSense_1_CSH_TANK_PREGARGE_OPTION == CapSense_1__CAPPRIOBUF) */
 179:Generated_Source\PSoC4/CapSense_1.c **** 
 180:Generated_Source\PSoC4/CapSense_1.c ****         #endif /* ((CapSense_1_CSH_TANK_PREGARGE_OPTION == CapSense_1__CAPPRIOBUF) || (CapSense_1_C
 181:Generated_Source\PSoC4/CapSense_1.c **** 
 182:Generated_Source\PSoC4/CapSense_1.c ****         CapSense_1_EnableShieldElectrode((uint32)CapSense_1_SHIELD_PIN_NUMBER, (uint32)CapSense_1_S
 183:Generated_Source\PSoC4/CapSense_1.c **** 
 184:Generated_Source\PSoC4/CapSense_1.c ****     #endif /* (CapSense_1_IS_SHIELD_ENABLE) */
 185:Generated_Source\PSoC4/CapSense_1.c **** 
 186:Generated_Source\PSoC4/CapSense_1.c ****     for(curSensor = 0u; curSensor < CapSense_1_TOTAL_SENSOR_COUNT; curSensor++)
 152              		.loc 1 186 0
 153 0006 0023     		mov	r3, #0
 154 0008 7B60     		str	r3, [r7, #4]
 155 000a 07E0     		b	.L2
 156              	.L3:
ARM GAS  C:\Users\IGOR~1.HOL\AppData\Local\Temp\ccdi3Ihk.s 			page 7


 187:Generated_Source\PSoC4/CapSense_1.c ****     {
 188:Generated_Source\PSoC4/CapSense_1.c ****         CapSense_1_SetUnscannedSensorState(curSensor, CapSense_1_CONNECT_INACTIVE_SNS);
 157              		.loc 1 188 0 discriminator 3
 158 000c 7B68     		ldr	r3, [r7, #4]
 159 000e 181C     		mov	r0, r3
 160 0010 0021     		mov	r1, #0
 161 0012 FFF7FEFF 		bl	CapSense_1_SetUnscannedSensorState
 186:Generated_Source\PSoC4/CapSense_1.c ****     {
 162              		.loc 1 186 0 discriminator 3
 163 0016 7B68     		ldr	r3, [r7, #4]
 164 0018 0133     		add	r3, r3, #1
 165 001a 7B60     		str	r3, [r7, #4]
 166              	.L2:
 186:Generated_Source\PSoC4/CapSense_1.c ****     {
 167              		.loc 1 186 0 is_stmt 0 discriminator 1
 168 001c 7B68     		ldr	r3, [r7, #4]
 169 001e 002B     		cmp	r3, #0
 170 0020 F4D0     		beq	.L3
 189:Generated_Source\PSoC4/CapSense_1.c ****     }
 190:Generated_Source\PSoC4/CapSense_1.c **** 
 191:Generated_Source\PSoC4/CapSense_1.c ****     CapSense_1_CsdHwBlockInit();
 171              		.loc 1 191 0 is_stmt 1
 172 0022 FFF7FEFF 		bl	CapSense_1_CsdHwBlockInit
 192:Generated_Source\PSoC4/CapSense_1.c ****     CapSense_1_SetShieldDelay(CapSense_1_SHIELD_DELAY );
 173              		.loc 1 192 0
 174 0026 0020     		mov	r0, #0
 175 0028 FFF7FEFF 		bl	CapSense_1_SetShieldDelay
 193:Generated_Source\PSoC4/CapSense_1.c **** 
 194:Generated_Source\PSoC4/CapSense_1.c ****     /* Clear all sensors */
 195:Generated_Source\PSoC4/CapSense_1.c ****     CapSense_1_ClearSensors();
 176              		.loc 1 195 0
 177 002c FFF7FEFF 		bl	CapSense_1_ClearSensors
 196:Generated_Source\PSoC4/CapSense_1.c **** }
 178              		.loc 1 196 0
 179 0030 BD46     		mov	sp, r7
 180 0032 02B0     		add	sp, sp, #8
 181              		@ sp needed
 182 0034 80BD     		pop	{r7, pc}
 183              		.cfi_endproc
 184              	.LFE35:
 185              		.size	CapSense_1_Init, .-CapSense_1_Init
 186 0036 C046     		.section	.text.CapSense_1_CsdHwBlockInit,"ax",%progbits
 187              		.align	2
 188              		.global	CapSense_1_CsdHwBlockInit
 189              		.code	16
 190              		.thumb_func
 191              		.type	CapSense_1_CsdHwBlockInit, %function
 192              	CapSense_1_CsdHwBlockInit:
 193              	.LFB36:
 197:Generated_Source\PSoC4/CapSense_1.c **** 
 198:Generated_Source\PSoC4/CapSense_1.c **** /*******************************************************************************
 199:Generated_Source\PSoC4/CapSense_1.c **** * Function Name: CapSense_1_CsdHwBlockInit
 200:Generated_Source\PSoC4/CapSense_1.c **** ********************************************************************************
 201:Generated_Source\PSoC4/CapSense_1.c **** *
 202:Generated_Source\PSoC4/CapSense_1.c **** * Summary:
 203:Generated_Source\PSoC4/CapSense_1.c **** *  Initialises the hardware parameters of the CSD block
 204:Generated_Source\PSoC4/CapSense_1.c **** *
ARM GAS  C:\Users\IGOR~1.HOL\AppData\Local\Temp\ccdi3Ihk.s 			page 8


 205:Generated_Source\PSoC4/CapSense_1.c **** * Parameters:
 206:Generated_Source\PSoC4/CapSense_1.c **** *  None
 207:Generated_Source\PSoC4/CapSense_1.c **** *
 208:Generated_Source\PSoC4/CapSense_1.c **** * Return:
 209:Generated_Source\PSoC4/CapSense_1.c **** *  None
 210:Generated_Source\PSoC4/CapSense_1.c **** *
 211:Generated_Source\PSoC4/CapSense_1.c **** * Global Variables:
 212:Generated_Source\PSoC4/CapSense_1.c **** *  CapSense_1_csdTrim1 - Contains IDAC trim register value for Sourcing Mode.
 213:Generated_Source\PSoC4/CapSense_1.c **** *  CapSense_1_csdTrim2 - Contains IDAC trim register value for Sinking Mode.
 214:Generated_Source\PSoC4/CapSense_1.c **** *
 215:Generated_Source\PSoC4/CapSense_1.c **** * Side Effects:
 216:Generated_Source\PSoC4/CapSense_1.c **** *  None
 217:Generated_Source\PSoC4/CapSense_1.c **** *
 218:Generated_Source\PSoC4/CapSense_1.c **** *******************************************************************************/
 219:Generated_Source\PSoC4/CapSense_1.c **** void CapSense_1_CsdHwBlockInit(void)
 220:Generated_Source\PSoC4/CapSense_1.c **** {
 194              		.loc 1 220 0
 195              		.cfi_startproc
 196 0000 80B5     		push	{r7, lr}
 197              		.cfi_def_cfa_offset 8
 198              		.cfi_offset 7, -8
 199              		.cfi_offset 14, -4
 200 0002 82B0     		sub	sp, sp, #8
 201              		.cfi_def_cfa_offset 16
 202 0004 00AF     		add	r7, sp, #0
 203              		.cfi_def_cfa_register 7
 221:Generated_Source\PSoC4/CapSense_1.c ****     uint32 newRegValue;
 222:Generated_Source\PSoC4/CapSense_1.c **** 
 223:Generated_Source\PSoC4/CapSense_1.c ****         /* Set trim registers for CSD Mode */
 224:Generated_Source\PSoC4/CapSense_1.c ****     #if (CapSense_1_IDAC1_POLARITY == CapSense_1__IDAC_SINK)
 225:Generated_Source\PSoC4/CapSense_1.c ****         /* iDAC1 Sinking Mode */
 226:Generated_Source\PSoC4/CapSense_1.c ****         CapSense_1_csdTrim2 = (uint8)CapSense_1_CSD_TRIM2_REG;
 227:Generated_Source\PSoC4/CapSense_1.c ****         newRegValue = CapSense_1_csdTrim2;
 228:Generated_Source\PSoC4/CapSense_1.c ****         newRegValue &= CapSense_1_CSD_IDAC1_TRIM_MASK;
 229:Generated_Source\PSoC4/CapSense_1.c ****         newRegValue |= (uint32)((uint32)CapSense_1_SFLASH_CSD_TRIM2_REG & (uint32)CapSense_1_CSFLAS
 230:Generated_Source\PSoC4/CapSense_1.c **** 
 231:Generated_Source\PSoC4/CapSense_1.c ****         #if (CapSense_1_IDAC_CNT == 2u)
 232:Generated_Source\PSoC4/CapSense_1.c ****             /* iDAC2 Sinking Mode */
 233:Generated_Source\PSoC4/CapSense_1.c ****             newRegValue &= CapSense_1_CSD_IDAC2_TRIM_MASK;
 234:Generated_Source\PSoC4/CapSense_1.c ****             newRegValue |= (uint32)((uint32)CapSense_1_SFLASH_CSD_TRIM2_REG & (uint32)CapSense_1_CS
 235:Generated_Source\PSoC4/CapSense_1.c ****         #endif /* (CapSense_1_IDAC_CNT == 2u) */
 236:Generated_Source\PSoC4/CapSense_1.c ****         CapSense_1_CSD_TRIM2_REG = newRegValue;
 237:Generated_Source\PSoC4/CapSense_1.c ****     #else
 238:Generated_Source\PSoC4/CapSense_1.c ****         /* iDAC1 Sourcing Mode */
 239:Generated_Source\PSoC4/CapSense_1.c ****         CapSense_1_csdTrim1 = (uint8)CapSense_1_CSD_TRIM1_REG;
 204              		.loc 1 239 0
 205 0006 244B     		ldr	r3, .L5
 206 0008 1B68     		ldr	r3, [r3]
 207 000a DAB2     		uxtb	r2, r3
 208 000c 234B     		ldr	r3, .L5+4
 209 000e 1A70     		strb	r2, [r3]
 240:Generated_Source\PSoC4/CapSense_1.c ****         newRegValue = CapSense_1_csdTrim1;
 210              		.loc 1 240 0
 211 0010 224B     		ldr	r3, .L5+4
 212 0012 1B78     		ldrb	r3, [r3]
 213 0014 7B60     		str	r3, [r7, #4]
 241:Generated_Source\PSoC4/CapSense_1.c ****         newRegValue &= CapSense_1_CSD_IDAC1_TRIM_MASK;
ARM GAS  C:\Users\IGOR~1.HOL\AppData\Local\Temp\ccdi3Ihk.s 			page 9


 214              		.loc 1 241 0
 215 0016 7B68     		ldr	r3, [r7, #4]
 216 0018 0F22     		mov	r2, #15
 217 001a 9343     		bic	r3, r2
 218 001c 7B60     		str	r3, [r7, #4]
 242:Generated_Source\PSoC4/CapSense_1.c ****         newRegValue |= (uint32)((uint32)CapSense_1_SFLASH_CSD_TRIM1_REG & (uint32)CapSense_1_CSFLAS
 219              		.loc 1 242 0
 220 001e 204B     		ldr	r3, .L5+8
 221 0020 1B78     		ldrb	r3, [r3]
 222 0022 DBB2     		uxtb	r3, r3
 223 0024 1A1C     		mov	r2, r3
 224 0026 0F23     		mov	r3, #15
 225 0028 1340     		and	r3, r2
 226 002a 7A68     		ldr	r2, [r7, #4]
 227 002c 1343     		orr	r3, r2
 228 002e 7B60     		str	r3, [r7, #4]
 243:Generated_Source\PSoC4/CapSense_1.c ****         #if (CapSense_1_IDAC_CNT == 2u)
 244:Generated_Source\PSoC4/CapSense_1.c ****              /* iDAC2 Sourcing Mode */
 245:Generated_Source\PSoC4/CapSense_1.c ****             newRegValue &= CapSense_1_CSD_IDAC2_TRIM_MASK;
 229              		.loc 1 245 0
 230 0030 7B68     		ldr	r3, [r7, #4]
 231 0032 F022     		mov	r2, #240
 232 0034 9343     		bic	r3, r2
 233 0036 7B60     		str	r3, [r7, #4]
 246:Generated_Source\PSoC4/CapSense_1.c ****             newRegValue |= (uint32)((uint32)CapSense_1_SFLASH_CSD_TRIM1_REG & (uint32)CapSense_1_CS
 234              		.loc 1 246 0
 235 0038 194B     		ldr	r3, .L5+8
 236 003a 1B78     		ldrb	r3, [r3]
 237 003c DBB2     		uxtb	r3, r3
 238 003e 1A1C     		mov	r2, r3
 239 0040 F023     		mov	r3, #240
 240 0042 1340     		and	r3, r2
 241 0044 7A68     		ldr	r2, [r7, #4]
 242 0046 1343     		orr	r3, r2
 243 0048 7B60     		str	r3, [r7, #4]
 247:Generated_Source\PSoC4/CapSense_1.c ****         #endif
 248:Generated_Source\PSoC4/CapSense_1.c ****         CapSense_1_CSD_TRIM1_REG = newRegValue;
 244              		.loc 1 248 0
 245 004a 134B     		ldr	r3, .L5
 246 004c 7A68     		ldr	r2, [r7, #4]
 247 004e 1A60     		str	r2, [r3]
 249:Generated_Source\PSoC4/CapSense_1.c ****     #endif /* (CapSense_1_IDAC1_POLARITY == CapSense_1__IDAC_SINK) */
 250:Generated_Source\PSoC4/CapSense_1.c **** 
 251:Generated_Source\PSoC4/CapSense_1.c ****     /* Configure CSD and IDAC */
 252:Generated_Source\PSoC4/CapSense_1.c ****     #if (CapSense_1_IDAC_CNT > 1u)
 253:Generated_Source\PSoC4/CapSense_1.c ****         CapSense_1_CSD_IDAC_REG = CapSense_1_DEFAULT_CSD_IDAC_CONFIG;
 248              		.loc 1 253 0
 249 0050 144B     		ldr	r3, .L5+12
 250 0052 154A     		ldr	r2, .L5+16
 251 0054 1A60     		str	r2, [r3]
 254:Generated_Source\PSoC4/CapSense_1.c ****         CapSense_1_CSD_CFG_REG = CapSense_1_DEFAULT_CSD_CONFIG;
 252              		.loc 1 254 0
 253 0056 154B     		ldr	r3, .L5+20
 254 0058 154A     		ldr	r2, .L5+24
 255 005a 1A60     		str	r2, [r3]
 255:Generated_Source\PSoC4/CapSense_1.c ****     #else
 256:Generated_Source\PSoC4/CapSense_1.c ****         CapSense_1_CSD_IDAC_REG &= ~(CapSense_1_CSD_IDAC1_MODE_MASK  | CapSense_1_CSD_IDAC1_DATA_MA
ARM GAS  C:\Users\IGOR~1.HOL\AppData\Local\Temp\ccdi3Ihk.s 			page 10


 257:Generated_Source\PSoC4/CapSense_1.c ****         CapSense_1_CSD_IDAC_REG |= CapSense_1_DEFAULT_CSD_IDAC_CONFIG;
 258:Generated_Source\PSoC4/CapSense_1.c **** 
 259:Generated_Source\PSoC4/CapSense_1.c ****         CapSense_1_CSD_CFG_REG &= ~(CapSense_1_CSD_CONFIG_MASK);
 260:Generated_Source\PSoC4/CapSense_1.c ****         CapSense_1_CSD_CFG_REG |= (CapSense_1_DEFAULT_CSD_CONFIG);
 261:Generated_Source\PSoC4/CapSense_1.c ****     #endif /* (CapSense_1_IDAC_CNT > 1u) */
 262:Generated_Source\PSoC4/CapSense_1.c **** 
 263:Generated_Source\PSoC4/CapSense_1.c **** 
 264:Generated_Source\PSoC4/CapSense_1.c ****     /* Connect Cmod to AMUX bus */
 265:Generated_Source\PSoC4/CapSense_1.c ****     newRegValue = CapSense_1_CMOD_CONNECTION_REG;
 256              		.loc 1 265 0
 257 005c 154B     		ldr	r3, .L5+28
 258 005e 1B68     		ldr	r3, [r3]
 259 0060 7B60     		str	r3, [r7, #4]
 266:Generated_Source\PSoC4/CapSense_1.c ****     newRegValue &= ~(CapSense_1_CSD_CMOD_CONNECTION_MASK);
 260              		.loc 1 266 0
 261 0062 7B68     		ldr	r3, [r7, #4]
 262 0064 0F22     		mov	r2, #15
 263 0066 9343     		bic	r3, r2
 264 0068 7B60     		str	r3, [r7, #4]
 267:Generated_Source\PSoC4/CapSense_1.c ****     newRegValue |= CapSense_1_CSD_CMOD_TO_AMUXBUS_A;
 265              		.loc 1 267 0
 266 006a 7B68     		ldr	r3, [r7, #4]
 267 006c 0622     		mov	r2, #6
 268 006e 1343     		orr	r3, r2
 269 0070 7B60     		str	r3, [r7, #4]
 268:Generated_Source\PSoC4/CapSense_1.c ****     CapSense_1_CMOD_CONNECTION_REG = newRegValue;
 270              		.loc 1 268 0
 271 0072 104B     		ldr	r3, .L5+28
 272 0074 7A68     		ldr	r2, [r7, #4]
 273 0076 1A60     		str	r2, [r3]
 269:Generated_Source\PSoC4/CapSense_1.c **** 
 270:Generated_Source\PSoC4/CapSense_1.c ****     /* Configure Dead Band PWM if it is enabled */
 271:Generated_Source\PSoC4/CapSense_1.c ****     #if(CapSense_1_CSD_4B_PWM_MODE != CapSense_1__PWM_OFF)
 272:Generated_Source\PSoC4/CapSense_1.c ****         CapSense_1_CSD_4B_PWM_REG = CapSense_1_DEFAULT_CSD_4B_PWM_CONFIG;
 273:Generated_Source\PSoC4/CapSense_1.c ****     #endif /* (CapSense_1_CSD_4B_PWM_MODE != CapSense_1__PWM_OFF) */
 274:Generated_Source\PSoC4/CapSense_1.c **** 
 275:Generated_Source\PSoC4/CapSense_1.c ****     /* Setup ISR */
 276:Generated_Source\PSoC4/CapSense_1.c ****     CyIntDisable(CapSense_1_ISR_NUMBER);
 274              		.loc 1 276 0
 275 0078 1220     		mov	r0, #18
 276 007a FFF7FEFF 		bl	CyIntDisable
 277:Generated_Source\PSoC4/CapSense_1.c ****     #if !defined(CY_EXTERNAL_INTERRUPT_CONFIG)
 278:Generated_Source\PSoC4/CapSense_1.c ****         (void)CyIntSetVector(CapSense_1_ISR_NUMBER, &CapSense_1_ISR);
 277              		.loc 1 278 0
 278 007e 0E4B     		ldr	r3, .L5+32
 279 0080 1220     		mov	r0, #18
 280 0082 191C     		mov	r1, r3
 281 0084 FFF7FEFF 		bl	CyIntSetVector
 279:Generated_Source\PSoC4/CapSense_1.c ****         CyIntSetPriority(CapSense_1_ISR_NUMBER, CapSense_1_ISR_PRIORITY);
 282              		.loc 1 279 0
 283 0088 1220     		mov	r0, #18
 284 008a 0321     		mov	r1, #3
 285 008c FFF7FEFF 		bl	CyIntSetPriority
 280:Generated_Source\PSoC4/CapSense_1.c ****     #endif /* (CY_EXTERNAL_INTERRUPT_CONFIG) */
 281:Generated_Source\PSoC4/CapSense_1.c **** }
 286              		.loc 1 281 0
 287 0090 BD46     		mov	sp, r7
ARM GAS  C:\Users\IGOR~1.HOL\AppData\Local\Temp\ccdi3Ihk.s 			page 11


 288 0092 02B0     		add	sp, sp, #8
 289              		@ sp needed
 290 0094 80BD     		pop	{r7, pc}
 291              	.L6:
 292 0096 C046     		.align	2
 293              	.L5:
 294 0098 00FF2940 		.word	1076494080
 295 009c 00000000 		.word	CapSense_1_csdTrim1
 296 00a0 D6F0FF0F 		.word	268431574
 297 00a4 08002940 		.word	1076428808
 298 00a8 00020001 		.word	16777728
 299 00ac 04002940 		.word	1076428804
 300 00b0 0008A001 		.word	27265024
 301 00b4 00050240 		.word	1073874176
 302 00b8 00000000 		.word	CapSense_1_ISR
 303              		.cfi_endproc
 304              	.LFE36:
 305              		.size	CapSense_1_CsdHwBlockInit, .-CapSense_1_CsdHwBlockInit
 306              		.section	.text.CapSense_1_Enable,"ax",%progbits
 307              		.align	2
 308              		.global	CapSense_1_Enable
 309              		.code	16
 310              		.thumb_func
 311              		.type	CapSense_1_Enable, %function
 312              	CapSense_1_Enable:
 313              	.LFB37:
 282:Generated_Source\PSoC4/CapSense_1.c **** 
 283:Generated_Source\PSoC4/CapSense_1.c **** 
 284:Generated_Source\PSoC4/CapSense_1.c **** /*******************************************************************************
 285:Generated_Source\PSoC4/CapSense_1.c **** * Function Name: CapSense_1_Enable
 286:Generated_Source\PSoC4/CapSense_1.c **** ********************************************************************************
 287:Generated_Source\PSoC4/CapSense_1.c **** *
 288:Generated_Source\PSoC4/CapSense_1.c **** * Summary:
 289:Generated_Source\PSoC4/CapSense_1.c **** *  Enables the CSD block and related resources to an active mode.
 290:Generated_Source\PSoC4/CapSense_1.c **** *
 291:Generated_Source\PSoC4/CapSense_1.c **** * Parameters:
 292:Generated_Source\PSoC4/CapSense_1.c **** *  None
 293:Generated_Source\PSoC4/CapSense_1.c **** *
 294:Generated_Source\PSoC4/CapSense_1.c **** * Return:
 295:Generated_Source\PSoC4/CapSense_1.c **** *  None
 296:Generated_Source\PSoC4/CapSense_1.c **** *
 297:Generated_Source\PSoC4/CapSense_1.c **** * Global Variables:
 298:Generated_Source\PSoC4/CapSense_1.c **** *  None.
 299:Generated_Source\PSoC4/CapSense_1.c **** *
 300:Generated_Source\PSoC4/CapSense_1.c **** * Side Effects:
 301:Generated_Source\PSoC4/CapSense_1.c **** *  None
 302:Generated_Source\PSoC4/CapSense_1.c **** *
 303:Generated_Source\PSoC4/CapSense_1.c **** *******************************************************************************/
 304:Generated_Source\PSoC4/CapSense_1.c **** void CapSense_1_Enable(void)
 305:Generated_Source\PSoC4/CapSense_1.c **** {
 314              		.loc 1 305 0
 315              		.cfi_startproc
 316 0000 80B5     		push	{r7, lr}
 317              		.cfi_def_cfa_offset 8
 318              		.cfi_offset 7, -8
 319              		.cfi_offset 14, -4
 320 0002 82B0     		sub	sp, sp, #8
ARM GAS  C:\Users\IGOR~1.HOL\AppData\Local\Temp\ccdi3Ihk.s 			page 12


 321              		.cfi_def_cfa_offset 16
 322 0004 00AF     		add	r7, sp, #0
 323              		.cfi_def_cfa_register 7
 306:Generated_Source\PSoC4/CapSense_1.c ****     uint32 newRegValue;
 307:Generated_Source\PSoC4/CapSense_1.c **** 
 308:Generated_Source\PSoC4/CapSense_1.c ****     /* Enable Clocks */
 309:Generated_Source\PSoC4/CapSense_1.c ****     CapSense_1_SenseClk_Stop();
 324              		.loc 1 309 0
 325 0006 FFF7FEFF 		bl	CapSense_1_SenseClk_Stop
 310:Generated_Source\PSoC4/CapSense_1.c ****     CapSense_1_SampleClk_Stop();
 326              		.loc 1 310 0
 327 000a FFF7FEFF 		bl	CapSense_1_SampleClk_Stop
 311:Generated_Source\PSoC4/CapSense_1.c **** 
 312:Generated_Source\PSoC4/CapSense_1.c ****     CapSense_1_SampleClk_SetDividerValue((uint16)CapSense_1_INITIAL_CLK_DIVIDER);
 328              		.loc 1 312 0
 329 000e 0020     		mov	r0, #0
 330 0010 0021     		mov	r1, #0
 331 0012 FFF7FEFF 		bl	CapSense_1_SampleClk_SetFractionalDividerRegister
 313:Generated_Source\PSoC4/CapSense_1.c ****     CapSense_1_SenseClk_SetDividerValue((uint16)CapSense_1_INITIAL_CLK_DIVIDER);
 332              		.loc 1 313 0
 333 0016 0020     		mov	r0, #0
 334 0018 0021     		mov	r1, #0
 335 001a FFF7FEFF 		bl	CapSense_1_SenseClk_SetFractionalDividerRegister
 314:Generated_Source\PSoC4/CapSense_1.c **** 
 315:Generated_Source\PSoC4/CapSense_1.c ****     #if (0u == CapSense_1_IS_M0S8PERI_BLOCK)
 316:Generated_Source\PSoC4/CapSense_1.c ****         CapSense_1_SenseClk_Start();
 317:Generated_Source\PSoC4/CapSense_1.c ****         CapSense_1_SampleClk_Start();
 318:Generated_Source\PSoC4/CapSense_1.c ****     #else
 319:Generated_Source\PSoC4/CapSense_1.c ****         CapSense_1_SampleClk_Start();
 336              		.loc 1 319 0
 337 001e FF20     		mov	r0, #255
 338 0020 FFF7FEFF 		bl	CapSense_1_SampleClk_StartEx
 320:Generated_Source\PSoC4/CapSense_1.c ****         CapSense_1_SenseClk_StartEx(CapSense_1_SampleClk__DIV_ID);
 339              		.loc 1 320 0
 340 0024 4020     		mov	r0, #64
 341 0026 FFF7FEFF 		bl	CapSense_1_SenseClk_StartEx
 321:Generated_Source\PSoC4/CapSense_1.c ****     #endif /* (0u == CapSense_1_IS_M0S8PERI_BLOCK) */
 322:Generated_Source\PSoC4/CapSense_1.c **** 
 323:Generated_Source\PSoC4/CapSense_1.c ****     /* Enable the CSD block */
 324:Generated_Source\PSoC4/CapSense_1.c ****     newRegValue = CapSense_1_CSD_CFG_REG;
 342              		.loc 1 324 0
 343 002a 084B     		ldr	r3, .L8
 344 002c 1B68     		ldr	r3, [r3]
 345 002e 7B60     		str	r3, [r7, #4]
 325:Generated_Source\PSoC4/CapSense_1.c ****     newRegValue |= (CapSense_1_CSD_CFG_ENABLE | CapSense_1_CSD_CFG_SENSE_COMP_EN
 346              		.loc 1 325 0
 347 0030 7B68     		ldr	r3, [r7, #4]
 348 0032 074A     		ldr	r2, .L8+4
 349 0034 1343     		orr	r3, r2
 350 0036 7B60     		str	r3, [r7, #4]
 326:Generated_Source\PSoC4/CapSense_1.c ****                                                    | CapSense_1_CSD_CFG_SENSE_EN);
 327:Generated_Source\PSoC4/CapSense_1.c ****     CapSense_1_CSD_CFG_REG = newRegValue;
 351              		.loc 1 327 0
 352 0038 044B     		ldr	r3, .L8
 353 003a 7A68     		ldr	r2, [r7, #4]
 354 003c 1A60     		str	r2, [r3]
 328:Generated_Source\PSoC4/CapSense_1.c **** 
ARM GAS  C:\Users\IGOR~1.HOL\AppData\Local\Temp\ccdi3Ihk.s 			page 13


 329:Generated_Source\PSoC4/CapSense_1.c ****     /* Enable interrupt */
 330:Generated_Source\PSoC4/CapSense_1.c ****     CyIntEnable(CapSense_1_ISR_NUMBER);
 355              		.loc 1 330 0
 356 003e 1220     		mov	r0, #18
 357 0040 FFF7FEFF 		bl	CyIntEnable
 331:Generated_Source\PSoC4/CapSense_1.c **** }
 358              		.loc 1 331 0
 359 0044 BD46     		mov	sp, r7
 360 0046 02B0     		add	sp, sp, #8
 361              		@ sp needed
 362 0048 80BD     		pop	{r7, pc}
 363              	.L9:
 364 004a C046     		.align	2
 365              	.L8:
 366 004c 04002940 		.word	1076428804
 367 0050 00100880 		.word	-2146955264
 368              		.cfi_endproc
 369              	.LFE37:
 370              		.size	CapSense_1_Enable, .-CapSense_1_Enable
 371              		.section	.text.CapSense_1_Start,"ax",%progbits
 372              		.align	2
 373              		.global	CapSense_1_Start
 374              		.code	16
 375              		.thumb_func
 376              		.type	CapSense_1_Start, %function
 377              	CapSense_1_Start:
 378              	.LFB38:
 332:Generated_Source\PSoC4/CapSense_1.c **** 
 333:Generated_Source\PSoC4/CapSense_1.c **** 
 334:Generated_Source\PSoC4/CapSense_1.c **** /*******************************************************************************
 335:Generated_Source\PSoC4/CapSense_1.c **** * Function Name: CapSense_1_Start
 336:Generated_Source\PSoC4/CapSense_1.c **** ********************************************************************************
 337:Generated_Source\PSoC4/CapSense_1.c **** *
 338:Generated_Source\PSoC4/CapSense_1.c **** * Summary:
 339:Generated_Source\PSoC4/CapSense_1.c **** *  This is the preferred method to begin the component operation. CapSense_Start()
 340:Generated_Source\PSoC4/CapSense_1.c **** *  calls the CapSense_Init() function, and then calls the CapSense_Enable()
 341:Generated_Source\PSoC4/CapSense_1.c **** *  function. Initializes the registers and starts the CSD method of the CapSense
 342:Generated_Source\PSoC4/CapSense_1.c **** *  component. Resets all the sensors to an inactive state. Enables interrupts for
 343:Generated_Source\PSoC4/CapSense_1.c **** *  sensors scanning. When the SmartSense tuning mode is selected, the tuning procedure
 344:Generated_Source\PSoC4/CapSense_1.c **** *  is applied for all the sensors. The CapSense_Start() routine must be called before
 345:Generated_Source\PSoC4/CapSense_1.c **** *  any other API routines.
 346:Generated_Source\PSoC4/CapSense_1.c **** *
 347:Generated_Source\PSoC4/CapSense_1.c **** * Parameters:
 348:Generated_Source\PSoC4/CapSense_1.c **** *  None
 349:Generated_Source\PSoC4/CapSense_1.c **** *
 350:Generated_Source\PSoC4/CapSense_1.c **** * Return:
 351:Generated_Source\PSoC4/CapSense_1.c **** *  None
 352:Generated_Source\PSoC4/CapSense_1.c **** *
 353:Generated_Source\PSoC4/CapSense_1.c **** * Global Variables:
 354:Generated_Source\PSoC4/CapSense_1.c **** *   CapSense_1_initVar - used to check the initial configuration,
 355:Generated_Source\PSoC4/CapSense_1.c **** *   modified on the first function call.
 356:Generated_Source\PSoC4/CapSense_1.c **** *  CapSense_1_lowLevelTuningDone - Used to notify the Tuner GUI that
 357:Generated_Source\PSoC4/CapSense_1.c **** *   tuning of the scanning parameters is done.
 358:Generated_Source\PSoC4/CapSense_1.c **** *
 359:Generated_Source\PSoC4/CapSense_1.c **** * Side Effects:
 360:Generated_Source\PSoC4/CapSense_1.c **** *  None
 361:Generated_Source\PSoC4/CapSense_1.c **** *
ARM GAS  C:\Users\IGOR~1.HOL\AppData\Local\Temp\ccdi3Ihk.s 			page 14


 362:Generated_Source\PSoC4/CapSense_1.c **** *******************************************************************************/
 363:Generated_Source\PSoC4/CapSense_1.c **** void CapSense_1_Start(void)
 364:Generated_Source\PSoC4/CapSense_1.c **** {
 379              		.loc 1 364 0
 380              		.cfi_startproc
 381 0000 80B5     		push	{r7, lr}
 382              		.cfi_def_cfa_offset 8
 383              		.cfi_offset 7, -8
 384              		.cfi_offset 14, -4
 385 0002 00AF     		add	r7, sp, #0
 386              		.cfi_def_cfa_register 7
 365:Generated_Source\PSoC4/CapSense_1.c **** 
 366:Generated_Source\PSoC4/CapSense_1.c ****     static uint8 CapSense_1_initVar = 0u;
 367:Generated_Source\PSoC4/CapSense_1.c **** 
 368:Generated_Source\PSoC4/CapSense_1.c ****     #if((0u != CapSense_1_AUTOCALIBRATION_ENABLE) && (CapSense_1_TUNING_METHOD != CapSense_1__TUNIN
 369:Generated_Source\PSoC4/CapSense_1.c ****         uint32 curSensor;
 370:Generated_Source\PSoC4/CapSense_1.c ****         uint32 rawLevel;
 371:Generated_Source\PSoC4/CapSense_1.c ****         uint32 widget;
 372:Generated_Source\PSoC4/CapSense_1.c ****     #endif /* ((0u != CapSense_1_AUTOCALIBRATION_ENABLE) && (CapSense_1_TUNING_METHOD != CapSense_1
 373:Generated_Source\PSoC4/CapSense_1.c **** 
 374:Generated_Source\PSoC4/CapSense_1.c ****     if (CapSense_1_initVar == 0u)
 387              		.loc 1 374 0
 388 0004 0C4B     		ldr	r3, .L12
 389 0006 1B78     		ldrb	r3, [r3]
 390 0008 002B     		cmp	r3, #0
 391 000a 04D1     		bne	.L11
 375:Generated_Source\PSoC4/CapSense_1.c ****     {
 376:Generated_Source\PSoC4/CapSense_1.c ****         CapSense_1_Init();
 392              		.loc 1 376 0
 393 000c FFF7FEFF 		bl	CapSense_1_Init
 377:Generated_Source\PSoC4/CapSense_1.c ****         CapSense_1_initVar = 1u;
 394              		.loc 1 377 0
 395 0010 094B     		ldr	r3, .L12
 396 0012 0122     		mov	r2, #1
 397 0014 1A70     		strb	r2, [r3]
 398              	.L11:
 378:Generated_Source\PSoC4/CapSense_1.c ****     }
 379:Generated_Source\PSoC4/CapSense_1.c ****     CapSense_1_Enable();
 399              		.loc 1 379 0
 400 0016 FFF7FEFF 		bl	CapSense_1_Enable
 380:Generated_Source\PSoC4/CapSense_1.c **** 
 381:Generated_Source\PSoC4/CapSense_1.c ****     /* AutoTunning start */
 382:Generated_Source\PSoC4/CapSense_1.c ****     #if(CapSense_1_TUNING_METHOD == CapSense_1__TUNING_AUTO)
 383:Generated_Source\PSoC4/CapSense_1.c ****         #if(0u != CapSense_1_CSHL_API_GENERATE)
 384:Generated_Source\PSoC4/CapSense_1.c ****             CapSense_1_AutoTune();
 401              		.loc 1 384 0
 402 001a FFF7FEFF 		bl	CapSense_1_AutoTune
 385:Generated_Source\PSoC4/CapSense_1.c ****             CapSense_1_lowLevelTuningDone = 1u;
 403              		.loc 1 385 0
 404 001e 074B     		ldr	r3, .L12+4
 405 0020 0122     		mov	r2, #1
 406 0022 1A70     		strb	r2, [r3]
 386:Generated_Source\PSoC4/CapSense_1.c ****         #endif /* (0u != CapSense_1_CSHL_API_GENERATE) */
 387:Generated_Source\PSoC4/CapSense_1.c ****     #else
 388:Generated_Source\PSoC4/CapSense_1.c ****         #if(0u != CapSense_1_AUTOCALIBRATION_ENABLE)
 389:Generated_Source\PSoC4/CapSense_1.c **** 
 390:Generated_Source\PSoC4/CapSense_1.c ****             #if(CapSense_1_IDAC_CNT > 1u)
ARM GAS  C:\Users\IGOR~1.HOL\AppData\Local\Temp\ccdi3Ihk.s 			page 15


 391:Generated_Source\PSoC4/CapSense_1.c ****                 CapSense_1_CSD_IDAC_REG &= ~(CapSense_1_CSD_IDAC2_MODE_MASK);
 392:Generated_Source\PSoC4/CapSense_1.c ****             #endif /* (CapSense_1_IDAC_CNT > 1u) */
 393:Generated_Source\PSoC4/CapSense_1.c **** 
 394:Generated_Source\PSoC4/CapSense_1.c ****             for(curSensor = 0u; curSensor < CapSense_1_TOTAL_SCANSLOT_COUNT; curSensor++)
 395:Generated_Source\PSoC4/CapSense_1.c ****             {
 396:Generated_Source\PSoC4/CapSense_1.c ****                 widget = CapSense_1_widgetNumber[curSensor];
 397:Generated_Source\PSoC4/CapSense_1.c ****                 rawLevel = CapSense_1_widgetResolution[widget] >> CapSense_1_RESOLUTION_OFFSET;
 398:Generated_Source\PSoC4/CapSense_1.c **** 
 399:Generated_Source\PSoC4/CapSense_1.c ****                 /* Calibration level should be equal to 85% from scanning resolution */
 400:Generated_Source\PSoC4/CapSense_1.c ****                 rawLevel = (rawLevel * 85u) / 100u;
 401:Generated_Source\PSoC4/CapSense_1.c **** 
 402:Generated_Source\PSoC4/CapSense_1.c ****                 CapSense_1_CalibrateSensor(curSensor, rawLevel, CapSense_1_modulationIDAC);
 403:Generated_Source\PSoC4/CapSense_1.c ****             }
 404:Generated_Source\PSoC4/CapSense_1.c **** 
 405:Generated_Source\PSoC4/CapSense_1.c ****             #if(0u != CapSense_1_TOTAL_CENTROIDS_COUNT)
 406:Generated_Source\PSoC4/CapSense_1.c ****                 CapSense_1_NormalizeWidgets(CapSense_1_END_OF_WIDGETS_INDEX, CapSense_1_modulationI
 407:Generated_Source\PSoC4/CapSense_1.c ****             #endif /* (0u != CapSense_1_TOTAL_CENTROIDS_COUNT)  */
 408:Generated_Source\PSoC4/CapSense_1.c **** 
 409:Generated_Source\PSoC4/CapSense_1.c ****             #if(CapSense_1_IDAC_CNT > 1u)
 410:Generated_Source\PSoC4/CapSense_1.c ****                 for(curSensor = 0u; curSensor < CapSense_1_TOTAL_SCANSLOT_COUNT; curSensor++)
 411:Generated_Source\PSoC4/CapSense_1.c ****                 {
 412:Generated_Source\PSoC4/CapSense_1.c ****                     CapSense_1_compensationIDAC[curSensor] = CapSense_1_modulationIDAC[curSensor] /
 413:Generated_Source\PSoC4/CapSense_1.c ****                     CapSense_1_modulationIDAC[curSensor] = (CapSense_1_modulationIDAC[curSensor] + 
 414:Generated_Source\PSoC4/CapSense_1.c ****                 }
 415:Generated_Source\PSoC4/CapSense_1.c ****                 CapSense_1_CSD_IDAC_REG |= CapSense_1_CSD_IDAC2_MODE_FIXED;
 416:Generated_Source\PSoC4/CapSense_1.c ****             #endif /* (CapSense_1_IDAC_CNT > 1u) */
 417:Generated_Source\PSoC4/CapSense_1.c **** 
 418:Generated_Source\PSoC4/CapSense_1.c ****         #endif /* (0u != CapSense_1_AUTOCALIBRATION_ENABLE) */
 419:Generated_Source\PSoC4/CapSense_1.c **** 
 420:Generated_Source\PSoC4/CapSense_1.c ****     #endif /* ((CapSense_1_TUNING_METHOD == CapSense_1__TUNING_AUTO) */
 421:Generated_Source\PSoC4/CapSense_1.c **** 
 422:Generated_Source\PSoC4/CapSense_1.c ****     /* Initialize Advanced Centroid */
 423:Generated_Source\PSoC4/CapSense_1.c ****     #if(CapSense_1_TOTAL_TRACKPAD_GESTURES_COUNT > 0u)
 424:Generated_Source\PSoC4/CapSense_1.c ****         CapSense_1_AdvancedCentroidInit();
 425:Generated_Source\PSoC4/CapSense_1.c ****     #endif /* (CapSense_1_TOTAL_TRACKPAD_GESTURES_COUNT > 0u) */
 426:Generated_Source\PSoC4/CapSense_1.c **** 
 427:Generated_Source\PSoC4/CapSense_1.c ****     /* Connect sense comparator input to AMUXA */
 428:Generated_Source\PSoC4/CapSense_1.c ****     CapSense_1_CSD_CFG_REG |= CapSense_1_CSD_CFG_SENSE_INSEL;
 407              		.loc 1 428 0
 408 0024 064B     		ldr	r3, .L12+8
 409 0026 064A     		ldr	r2, .L12+8
 410 0028 1268     		ldr	r2, [r2]
 411 002a 8021     		mov	r1, #128
 412 002c C903     		lsl	r1, r1, #15
 413 002e 0A43     		orr	r2, r1
 414 0030 1A60     		str	r2, [r3]
 429:Generated_Source\PSoC4/CapSense_1.c **** }
 415              		.loc 1 429 0
 416 0032 BD46     		mov	sp, r7
 417              		@ sp needed
 418 0034 80BD     		pop	{r7, pc}
 419              	.L13:
 420 0036 C046     		.align	2
 421              	.L12:
 422 0038 0C000000 		.word	CapSense_1_initVar.5307
 423 003c 00000000 		.word	CapSense_1_lowLevelTuningDone
 424 0040 04002940 		.word	1076428804
ARM GAS  C:\Users\IGOR~1.HOL\AppData\Local\Temp\ccdi3Ihk.s 			page 16


 425              		.cfi_endproc
 426              	.LFE38:
 427              		.size	CapSense_1_Start, .-CapSense_1_Start
 428              		.section	.text.CapSense_1_Stop,"ax",%progbits
 429              		.align	2
 430              		.global	CapSense_1_Stop
 431              		.code	16
 432              		.thumb_func
 433              		.type	CapSense_1_Stop, %function
 434              	CapSense_1_Stop:
 435              	.LFB39:
 430:Generated_Source\PSoC4/CapSense_1.c **** 
 431:Generated_Source\PSoC4/CapSense_1.c **** 
 432:Generated_Source\PSoC4/CapSense_1.c **** /*******************************************************************************
 433:Generated_Source\PSoC4/CapSense_1.c **** * Function Name: CapSense_1_Stop
 434:Generated_Source\PSoC4/CapSense_1.c **** ********************************************************************************
 435:Generated_Source\PSoC4/CapSense_1.c **** *
 436:Generated_Source\PSoC4/CapSense_1.c **** * Summary:
 437:Generated_Source\PSoC4/CapSense_1.c **** *  Stops the sensor scanning, disables component interrupts, and resets all the
 438:Generated_Source\PSoC4/CapSense_1.c **** *  sensors to an inactive state. Disables the Active mode power template bits for
 439:Generated_Source\PSoC4/CapSense_1.c **** *  the subcomponents used within CapSense.
 440:Generated_Source\PSoC4/CapSense_1.c **** *
 441:Generated_Source\PSoC4/CapSense_1.c **** * Parameters:
 442:Generated_Source\PSoC4/CapSense_1.c **** *  None
 443:Generated_Source\PSoC4/CapSense_1.c **** *
 444:Generated_Source\PSoC4/CapSense_1.c **** * Return:
 445:Generated_Source\PSoC4/CapSense_1.c **** *  None
 446:Generated_Source\PSoC4/CapSense_1.c **** *
 447:Generated_Source\PSoC4/CapSense_1.c **** * Global Variables:
 448:Generated_Source\PSoC4/CapSense_1.c **** *  CapSense_1_csdTrim1 - Contains the IDAC trim register value for the Sourcing Mode.
 449:Generated_Source\PSoC4/CapSense_1.c **** *  CapSense_1_csdTrim2 - Contains the IDAC trim register value for vSinking Mode.
 450:Generated_Source\PSoC4/CapSense_1.c **** *
 451:Generated_Source\PSoC4/CapSense_1.c **** * Side Effects:
 452:Generated_Source\PSoC4/CapSense_1.c **** *  This function should be called after scans are completed.
 453:Generated_Source\PSoC4/CapSense_1.c **** *
 454:Generated_Source\PSoC4/CapSense_1.c **** *******************************************************************************/
 455:Generated_Source\PSoC4/CapSense_1.c **** void CapSense_1_Stop(void)
 456:Generated_Source\PSoC4/CapSense_1.c **** {
 436              		.loc 1 456 0
 437              		.cfi_startproc
 438 0000 80B5     		push	{r7, lr}
 439              		.cfi_def_cfa_offset 8
 440              		.cfi_offset 7, -8
 441              		.cfi_offset 14, -4
 442 0002 00AF     		add	r7, sp, #0
 443              		.cfi_def_cfa_register 7
 457:Generated_Source\PSoC4/CapSense_1.c ****     /* Disable interrupt */
 458:Generated_Source\PSoC4/CapSense_1.c ****     CyIntDisable(CapSense_1_ISR_NUMBER);
 444              		.loc 1 458 0
 445 0004 1220     		mov	r0, #18
 446 0006 FFF7FEFF 		bl	CyIntDisable
 459:Generated_Source\PSoC4/CapSense_1.c **** 
 460:Generated_Source\PSoC4/CapSense_1.c ****     CapSense_1_CSD_CFG_REG &= ~(CapSense_1_CSD_CFG_SENSE_COMP_EN | CapSense_1_CSD_CFG_SENSE_EN);
 447              		.loc 1 460 0
 448 000a 094B     		ldr	r3, .L15
 449 000c 084A     		ldr	r2, .L15
 450 000e 1268     		ldr	r2, [r2]
ARM GAS  C:\Users\IGOR~1.HOL\AppData\Local\Temp\ccdi3Ihk.s 			page 17


 451 0010 0849     		ldr	r1, .L15+4
 452 0012 0A40     		and	r2, r1
 453 0014 1A60     		str	r2, [r3]
 461:Generated_Source\PSoC4/CapSense_1.c **** 
 462:Generated_Source\PSoC4/CapSense_1.c ****     #if(CapSense_1_IDAC_CNT == 2u)
 463:Generated_Source\PSoC4/CapSense_1.c ****         CapSense_1_CSD_CFG_REG &= ~(CapSense_1_CSD_CFG_ENABLE);
 454              		.loc 1 463 0
 455 0016 064B     		ldr	r3, .L15
 456 0018 054A     		ldr	r2, .L15
 457 001a 1268     		ldr	r2, [r2]
 458 001c 5200     		lsl	r2, r2, #1
 459 001e 5208     		lsr	r2, r2, #1
 460 0020 1A60     		str	r2, [r3]
 464:Generated_Source\PSoC4/CapSense_1.c ****     #endif /* (CapSense_1_IDAC_CNT == 2u) */
 465:Generated_Source\PSoC4/CapSense_1.c **** 
 466:Generated_Source\PSoC4/CapSense_1.c ****     /* Disable the Clocks */
 467:Generated_Source\PSoC4/CapSense_1.c ****     CapSense_1_SenseClk_Stop();
 461              		.loc 1 467 0
 462 0022 FFF7FEFF 		bl	CapSense_1_SenseClk_Stop
 468:Generated_Source\PSoC4/CapSense_1.c ****     CapSense_1_SampleClk_Stop();
 463              		.loc 1 468 0
 464 0026 FFF7FEFF 		bl	CapSense_1_SampleClk_Stop
 469:Generated_Source\PSoC4/CapSense_1.c **** }
 465              		.loc 1 469 0
 466 002a BD46     		mov	sp, r7
 467              		@ sp needed
 468 002c 80BD     		pop	{r7, pc}
 469              	.L16:
 470 002e C046     		.align	2
 471              	.L15:
 472 0030 04002940 		.word	1076428804
 473 0034 FFEFF7FF 		.word	-528385
 474              		.cfi_endproc
 475              	.LFE39:
 476              		.size	CapSense_1_Stop, .-CapSense_1_Stop
 477              		.section	.text.CapSense_1_FindNextSensor,"ax",%progbits
 478              		.align	2
 479              		.global	CapSense_1_FindNextSensor
 480              		.code	16
 481              		.thumb_func
 482              		.type	CapSense_1_FindNextSensor, %function
 483              	CapSense_1_FindNextSensor:
 484              	.LFB40:
 470:Generated_Source\PSoC4/CapSense_1.c **** 
 471:Generated_Source\PSoC4/CapSense_1.c **** 
 472:Generated_Source\PSoC4/CapSense_1.c **** /*******************************************************************************
 473:Generated_Source\PSoC4/CapSense_1.c **** * Function Name: CapSense_1_FindNextSensor
 474:Generated_Source\PSoC4/CapSense_1.c **** ********************************************************************************
 475:Generated_Source\PSoC4/CapSense_1.c **** *
 476:Generated_Source\PSoC4/CapSense_1.c **** * Summary:
 477:Generated_Source\PSoC4/CapSense_1.c **** *  Finds the next sensor to scan.
 478:Generated_Source\PSoC4/CapSense_1.c **** *
 479:Generated_Source\PSoC4/CapSense_1.c **** * Parameters:
 480:Generated_Source\PSoC4/CapSense_1.c **** *  snsIndex:  Current index of sensor.
 481:Generated_Source\PSoC4/CapSense_1.c **** *
 482:Generated_Source\PSoC4/CapSense_1.c **** * Return:
 483:Generated_Source\PSoC4/CapSense_1.c **** *  Returns the next sensor index to scan.
ARM GAS  C:\Users\IGOR~1.HOL\AppData\Local\Temp\ccdi3Ihk.s 			page 18


 484:Generated_Source\PSoC4/CapSense_1.c **** *
 485:Generated_Source\PSoC4/CapSense_1.c **** * Global Variables:
 486:Generated_Source\PSoC4/CapSense_1.c **** *  CapSense_1_sensorEnableMask[] - used to store bit masks of the enabled sensors.
 487:Generated_Source\PSoC4/CapSense_1.c **** *
 488:Generated_Source\PSoC4/CapSense_1.c **** * Side Effects:
 489:Generated_Source\PSoC4/CapSense_1.c **** *  This function affects the  current scanning and should not
 490:Generated_Source\PSoC4/CapSense_1.c **** *  be used outside the component.
 491:Generated_Source\PSoC4/CapSense_1.c **** *
 492:Generated_Source\PSoC4/CapSense_1.c **** *******************************************************************************/
 493:Generated_Source\PSoC4/CapSense_1.c **** uint8 CapSense_1_FindNextSensor(uint8 snsIndex)
 494:Generated_Source\PSoC4/CapSense_1.c **** {
 485              		.loc 1 494 0
 486              		.cfi_startproc
 487 0000 80B5     		push	{r7, lr}
 488              		.cfi_def_cfa_offset 8
 489              		.cfi_offset 7, -8
 490              		.cfi_offset 14, -4
 491 0002 84B0     		sub	sp, sp, #16
 492              		.cfi_def_cfa_offset 24
 493 0004 00AF     		add	r7, sp, #0
 494              		.cfi_def_cfa_register 7
 495 0006 021C     		mov	r2, r0
 496 0008 FB1D     		add	r3, r7, #7
 497 000a 1A70     		strb	r2, [r3]
 498              	.L20:
 495:Generated_Source\PSoC4/CapSense_1.c ****     uint32 enableFlag;
 496:Generated_Source\PSoC4/CapSense_1.c **** 
 497:Generated_Source\PSoC4/CapSense_1.c ****     /* Check if sensor enabled */
 498:Generated_Source\PSoC4/CapSense_1.c ****     do
 499:Generated_Source\PSoC4/CapSense_1.c ****     {
 500:Generated_Source\PSoC4/CapSense_1.c ****         /* Proceed with next sensor */
 501:Generated_Source\PSoC4/CapSense_1.c ****         snsIndex++;
 499              		.loc 1 501 0
 500 000c FB1D     		add	r3, r7, #7
 501 000e 1A78     		ldrb	r2, [r3]
 502 0010 FB1D     		add	r3, r7, #7
 503 0012 0132     		add	r2, r2, #1
 504 0014 1A70     		strb	r2, [r3]
 502:Generated_Source\PSoC4/CapSense_1.c ****         if(snsIndex == CapSense_1_TOTAL_SENSOR_COUNT)
 505              		.loc 1 502 0
 506 0016 FB1D     		add	r3, r7, #7
 507 0018 1B78     		ldrb	r3, [r3]
 508 001a 012B     		cmp	r3, #1
 509 001c 00D1     		bne	.L18
 503:Generated_Source\PSoC4/CapSense_1.c ****         {
 504:Generated_Source\PSoC4/CapSense_1.c ****             break;
 510              		.loc 1 504 0
 511 001e 0BE0     		b	.L19
 512              	.L18:
 505:Generated_Source\PSoC4/CapSense_1.c ****         }
 506:Generated_Source\PSoC4/CapSense_1.c ****         enableFlag = CapSense_1_GetBitValue(CapSense_1_sensorEnableMask, (uint32)snsIndex);
 513              		.loc 1 506 0
 514 0020 FB1D     		add	r3, r7, #7
 515 0022 1B78     		ldrb	r3, [r3]
 516 0024 074A     		ldr	r2, .L22
 517 0026 101C     		mov	r0, r2
 518 0028 191C     		mov	r1, r3
ARM GAS  C:\Users\IGOR~1.HOL\AppData\Local\Temp\ccdi3Ihk.s 			page 19


 519 002a FFF7FEFF 		bl	CapSense_1_GetBitValue
 520 002e 031C     		mov	r3, r0
 521 0030 FB60     		str	r3, [r7, #12]
 507:Generated_Source\PSoC4/CapSense_1.c ****     }
 508:Generated_Source\PSoC4/CapSense_1.c ****     while(enableFlag == 0u);
 522              		.loc 1 508 0
 523 0032 FB68     		ldr	r3, [r7, #12]
 524 0034 002B     		cmp	r3, #0
 525 0036 E9D0     		beq	.L20
 526              	.L19:
 509:Generated_Source\PSoC4/CapSense_1.c **** 
 510:Generated_Source\PSoC4/CapSense_1.c ****     return ((uint8)snsIndex);
 527              		.loc 1 510 0
 528 0038 FB1D     		add	r3, r7, #7
 529 003a 1B78     		ldrb	r3, [r3]
 511:Generated_Source\PSoC4/CapSense_1.c **** }
 530              		.loc 1 511 0
 531 003c 181C     		mov	r0, r3
 532 003e BD46     		mov	sp, r7
 533 0040 04B0     		add	sp, sp, #16
 534              		@ sp needed
 535 0042 80BD     		pop	{r7, pc}
 536              	.L23:
 537              		.align	2
 538              	.L22:
 539 0044 00000000 		.word	CapSense_1_sensorEnableMask
 540              		.cfi_endproc
 541              	.LFE40:
 542              		.size	CapSense_1_FindNextSensor, .-CapSense_1_FindNextSensor
 543              		.section	.text.CapSense_1_ScanSensor,"ax",%progbits
 544              		.align	2
 545              		.global	CapSense_1_ScanSensor
 546              		.code	16
 547              		.thumb_func
 548              		.type	CapSense_1_ScanSensor, %function
 549              	CapSense_1_ScanSensor:
 550              	.LFB41:
 512:Generated_Source\PSoC4/CapSense_1.c **** 
 513:Generated_Source\PSoC4/CapSense_1.c **** 
 514:Generated_Source\PSoC4/CapSense_1.c **** /*******************************************************************************
 515:Generated_Source\PSoC4/CapSense_1.c **** * Function Name: CapSense_1_ScanSensor
 516:Generated_Source\PSoC4/CapSense_1.c **** ********************************************************************************
 517:Generated_Source\PSoC4/CapSense_1.c **** *
 518:Generated_Source\PSoC4/CapSense_1.c **** * Summary:
 519:Generated_Source\PSoC4/CapSense_1.c **** *  Sets the scan settings and starts scanning a sensor. After scanning is complete,
 520:Generated_Source\PSoC4/CapSense_1.c **** *  the ISR copies the measured sensor raw data to the global raw sensor array.
 521:Generated_Source\PSoC4/CapSense_1.c **** *  Use of the ISR ensures this function is non-blocking.
 522:Generated_Source\PSoC4/CapSense_1.c **** *  Each sensor has a unique number within the sensor array.
 523:Generated_Source\PSoC4/CapSense_1.c **** *  This number is assigned by the CapSense customizer in sequence.
 524:Generated_Source\PSoC4/CapSense_1.c **** *
 525:Generated_Source\PSoC4/CapSense_1.c **** * Parameters:
 526:Generated_Source\PSoC4/CapSense_1.c **** *  sensor:  Sensor number.
 527:Generated_Source\PSoC4/CapSense_1.c **** *
 528:Generated_Source\PSoC4/CapSense_1.c **** * Return:
 529:Generated_Source\PSoC4/CapSense_1.c **** *  None
 530:Generated_Source\PSoC4/CapSense_1.c **** *
 531:Generated_Source\PSoC4/CapSense_1.c **** * Global Variables:
ARM GAS  C:\Users\IGOR~1.HOL\AppData\Local\Temp\ccdi3Ihk.s 			page 20


 532:Generated_Source\PSoC4/CapSense_1.c **** *  CapSense_1_csdStatusVar - used to provide the status and mode of the scanning process.
 533:Generated_Source\PSoC4/CapSense_1.c **** *  Sets the busy status(scan in progress) and mode of scan as single scan.
 534:Generated_Source\PSoC4/CapSense_1.c **** *  CapSense_1_sensorIndex - used to store a sensor scanning sensor number.
 535:Generated_Source\PSoC4/CapSense_1.c **** *  Sets to the provided sensor argument.
 536:Generated_Source\PSoC4/CapSense_1.c **** *
 537:Generated_Source\PSoC4/CapSense_1.c **** * Side Effects:
 538:Generated_Source\PSoC4/CapSense_1.c **** *  None
 539:Generated_Source\PSoC4/CapSense_1.c **** *
 540:Generated_Source\PSoC4/CapSense_1.c **** *******************************************************************************/
 541:Generated_Source\PSoC4/CapSense_1.c **** void CapSense_1_ScanSensor(uint32 sensor)
 542:Generated_Source\PSoC4/CapSense_1.c **** {
 551              		.loc 1 542 0
 552              		.cfi_startproc
 553 0000 80B5     		push	{r7, lr}
 554              		.cfi_def_cfa_offset 8
 555              		.cfi_offset 7, -8
 556              		.cfi_offset 14, -4
 557 0002 82B0     		sub	sp, sp, #8
 558              		.cfi_def_cfa_offset 16
 559 0004 00AF     		add	r7, sp, #0
 560              		.cfi_def_cfa_register 7
 561 0006 7860     		str	r0, [r7, #4]
 543:Generated_Source\PSoC4/CapSense_1.c ****     /* Clears status/control variable and set sensorIndex */
 544:Generated_Source\PSoC4/CapSense_1.c ****     CapSense_1_csdStatusVar = 0u;
 562              		.loc 1 544 0
 563 0008 084B     		ldr	r3, .L25
 564 000a 0022     		mov	r2, #0
 565 000c 1A70     		strb	r2, [r3]
 545:Generated_Source\PSoC4/CapSense_1.c ****     CapSense_1_sensorIndex = (uint8)sensor;
 566              		.loc 1 545 0
 567 000e 7B68     		ldr	r3, [r7, #4]
 568 0010 DAB2     		uxtb	r2, r3
 569 0012 074B     		ldr	r3, .L25+4
 570 0014 1A70     		strb	r2, [r3]
 546:Generated_Source\PSoC4/CapSense_1.c **** 
 547:Generated_Source\PSoC4/CapSense_1.c ****     /* Start of sensor scan */
 548:Generated_Source\PSoC4/CapSense_1.c ****     CapSense_1_csdStatusVar = (CapSense_1_SW_STS_BUSY | CapSense_1_SW_CTRL_SINGLE_SCAN);
 571              		.loc 1 548 0
 572 0016 054B     		ldr	r3, .L25
 573 0018 8122     		mov	r2, #129
 574 001a 1A70     		strb	r2, [r3]
 549:Generated_Source\PSoC4/CapSense_1.c ****     CapSense_1_PreScan(sensor);
 575              		.loc 1 549 0
 576 001c 7B68     		ldr	r3, [r7, #4]
 577 001e 181C     		mov	r0, r3
 578 0020 FFF7FEFF 		bl	CapSense_1_PreScan
 550:Generated_Source\PSoC4/CapSense_1.c **** }
 579              		.loc 1 550 0
 580 0024 BD46     		mov	sp, r7
 581 0026 02B0     		add	sp, sp, #8
 582              		@ sp needed
 583 0028 80BD     		pop	{r7, pc}
 584              	.L26:
 585 002a C046     		.align	2
 586              	.L25:
 587 002c 00000000 		.word	CapSense_1_csdStatusVar
 588 0030 00000000 		.word	CapSense_1_sensorIndex
ARM GAS  C:\Users\IGOR~1.HOL\AppData\Local\Temp\ccdi3Ihk.s 			page 21


 589              		.cfi_endproc
 590              	.LFE41:
 591              		.size	CapSense_1_ScanSensor, .-CapSense_1_ScanSensor
 592              		.section	.text.CapSense_1_ScanWidget,"ax",%progbits
 593              		.align	2
 594              		.global	CapSense_1_ScanWidget
 595              		.code	16
 596              		.thumb_func
 597              		.type	CapSense_1_ScanWidget, %function
 598              	CapSense_1_ScanWidget:
 599              	.LFB42:
 551:Generated_Source\PSoC4/CapSense_1.c **** 
 552:Generated_Source\PSoC4/CapSense_1.c **** 
 553:Generated_Source\PSoC4/CapSense_1.c **** #if(0u != CapSense_1_CSHL_API_GENERATE)
 554:Generated_Source\PSoC4/CapSense_1.c **** /*******************************************************************************
 555:Generated_Source\PSoC4/CapSense_1.c **** * Function Name: CapSense_1_ScanWidget
 556:Generated_Source\PSoC4/CapSense_1.c **** ********************************************************************************
 557:Generated_Source\PSoC4/CapSense_1.c **** *
 558:Generated_Source\PSoC4/CapSense_1.c **** * Summary:
 559:Generated_Source\PSoC4/CapSense_1.c **** *  Sets the scan settings and starts scanning a widget.
 560:Generated_Source\PSoC4/CapSense_1.c **** *
 561:Generated_Source\PSoC4/CapSense_1.c **** * Parameters:
 562:Generated_Source\PSoC4/CapSense_1.c **** *  uint32 widget: Widget number.
 563:Generated_Source\PSoC4/CapSense_1.c **** *
 564:Generated_Source\PSoC4/CapSense_1.c **** * Return:
 565:Generated_Source\PSoC4/CapSense_1.c **** *  None
 566:Generated_Source\PSoC4/CapSense_1.c **** *
 567:Generated_Source\PSoC4/CapSense_1.c **** * Global Variables:
 568:Generated_Source\PSoC4/CapSense_1.c **** *  CapSense_1_csdStatusVar - used to provide the status and mode of the scanning process.
 569:Generated_Source\PSoC4/CapSense_1.c **** *  Sets the busy status(scan in progress) and clears the single scan mode.
 570:Generated_Source\PSoC4/CapSense_1.c **** *  CapSense_1_sensorIndex - used to store a sensor scanning sensor number.
 571:Generated_Source\PSoC4/CapSense_1.c **** *  Sets to 0xFF and provided to function CapSense_1_FindNextSensor or
 572:Generated_Source\PSoC4/CapSense_1.c **** *  CapSense_1_sensorEnableMask[] - used to store bit masks of the enabled sensors.
 573:Generated_Source\PSoC4/CapSense_1.c **** *  CapSense_1_sensorEnableMaskBackup[] - used to backup bit masks of the enabled
 574:Generated_Source\PSoC4/CapSense_1.c **** *   sensors.
 575:Generated_Source\PSoC4/CapSense_1.c **** *
 576:Generated_Source\PSoC4/CapSense_1.c **** * Side Effects:
 577:Generated_Source\PSoC4/CapSense_1.c **** *  None
 578:Generated_Source\PSoC4/CapSense_1.c **** *
 579:Generated_Source\PSoC4/CapSense_1.c **** *******************************************************************************/
 580:Generated_Source\PSoC4/CapSense_1.c **** void CapSense_1_ScanWidget(uint32 widget)
 581:Generated_Source\PSoC4/CapSense_1.c **** {
 600              		.loc 1 581 0
 601              		.cfi_startproc
 602 0000 80B5     		push	{r7, lr}
 603              		.cfi_def_cfa_offset 8
 604              		.cfi_offset 7, -8
 605              		.cfi_offset 14, -4
 606 0002 86B0     		sub	sp, sp, #24
 607              		.cfi_def_cfa_offset 32
 608 0004 00AF     		add	r7, sp, #0
 609              		.cfi_def_cfa_register 7
 610 0006 7860     		str	r0, [r7, #4]
 582:Generated_Source\PSoC4/CapSense_1.c ****     uint32 sensorsPerWidget;
 583:Generated_Source\PSoC4/CapSense_1.c ****     uint32 lastSensor;
 584:Generated_Source\PSoC4/CapSense_1.c ****     uint32 snsIndex;
 585:Generated_Source\PSoC4/CapSense_1.c **** 
ARM GAS  C:\Users\IGOR~1.HOL\AppData\Local\Temp\ccdi3Ihk.s 			page 22


 586:Generated_Source\PSoC4/CapSense_1.c ****     /* Get first sensor in widget */
 587:Generated_Source\PSoC4/CapSense_1.c ****     CapSense_1_sensorIndex = CapSense_1_rawDataIndex[widget];
 611              		.loc 1 587 0
 612 0008 2F4A     		ldr	r2, .L36
 613 000a 7B68     		ldr	r3, [r7, #4]
 614 000c D318     		add	r3, r2, r3
 615 000e 1A78     		ldrb	r2, [r3]
 616 0010 2E4B     		ldr	r3, .L36+4
 617 0012 1A70     		strb	r2, [r3]
 588:Generated_Source\PSoC4/CapSense_1.c **** 
 589:Generated_Source\PSoC4/CapSense_1.c ****     /* Get number of sensors in widget */
 590:Generated_Source\PSoC4/CapSense_1.c ****     sensorsPerWidget = CapSense_1_numberOfSensors[widget];
 618              		.loc 1 590 0
 619 0014 2E4A     		ldr	r2, .L36+8
 620 0016 7B68     		ldr	r3, [r7, #4]
 621 0018 D318     		add	r3, r2, r3
 622 001a 1B78     		ldrb	r3, [r3]
 623 001c 7B61     		str	r3, [r7, #20]
 591:Generated_Source\PSoC4/CapSense_1.c **** 
 592:Generated_Source\PSoC4/CapSense_1.c ****     /* Check if generic Sensor */
 593:Generated_Source\PSoC4/CapSense_1.c ****     if(sensorsPerWidget == 0u)
 624              		.loc 1 593 0
 625 001e 7B69     		ldr	r3, [r7, #20]
 626 0020 002B     		cmp	r3, #0
 627 0022 01D1     		bne	.L28
 594:Generated_Source\PSoC4/CapSense_1.c ****     {
 595:Generated_Source\PSoC4/CapSense_1.c ****         sensorsPerWidget = 1u;
 628              		.loc 1 595 0
 629 0024 0123     		mov	r3, #1
 630 0026 7B61     		str	r3, [r7, #20]
 631              	.L28:
 596:Generated_Source\PSoC4/CapSense_1.c ****     }
 597:Generated_Source\PSoC4/CapSense_1.c **** 
 598:Generated_Source\PSoC4/CapSense_1.c ****     /* Get last sensor in widget */
 599:Generated_Source\PSoC4/CapSense_1.c ****     lastSensor = (CapSense_1_rawDataIndex[widget] + sensorsPerWidget) - 1u;
 632              		.loc 1 599 0
 633 0028 274A     		ldr	r2, .L36
 634 002a 7B68     		ldr	r3, [r7, #4]
 635 002c D318     		add	r3, r2, r3
 636 002e 1B78     		ldrb	r3, [r3]
 637 0030 1A1C     		mov	r2, r3
 638 0032 7B69     		ldr	r3, [r7, #20]
 639 0034 D318     		add	r3, r2, r3
 640 0036 013B     		sub	r3, r3, #1
 641 0038 FB60     		str	r3, [r7, #12]
 600:Generated_Source\PSoC4/CapSense_1.c **** 
 601:Generated_Source\PSoC4/CapSense_1.c ****     /* Backup sensorEnableMask array */
 602:Generated_Source\PSoC4/CapSense_1.c ****     for(snsIndex = 0u; snsIndex < CapSense_1_TOTAL_SENSOR_MASK; snsIndex++)
 642              		.loc 1 602 0
 643 003a 0023     		mov	r3, #0
 644 003c 3B61     		str	r3, [r7, #16]
 645 003e 0BE0     		b	.L29
 646              	.L30:
 603:Generated_Source\PSoC4/CapSense_1.c ****     {
 604:Generated_Source\PSoC4/CapSense_1.c ****         /* Backup sensorEnableMask array */
 605:Generated_Source\PSoC4/CapSense_1.c ****         CapSense_1_sensorEnableMaskBackup[snsIndex] = CapSense_1_sensorEnableMask[snsIndex];
 647              		.loc 1 605 0 discriminator 3
ARM GAS  C:\Users\IGOR~1.HOL\AppData\Local\Temp\ccdi3Ihk.s 			page 23


 648 0040 244A     		ldr	r2, .L36+12
 649 0042 3B69     		ldr	r3, [r7, #16]
 650 0044 D318     		add	r3, r2, r3
 651 0046 1978     		ldrb	r1, [r3]
 652 0048 234A     		ldr	r2, .L36+16
 653 004a 3B69     		ldr	r3, [r7, #16]
 654 004c D318     		add	r3, r2, r3
 655 004e 0A1C     		add	r2, r1, #0
 656 0050 1A70     		strb	r2, [r3]
 602:Generated_Source\PSoC4/CapSense_1.c ****     {
 657              		.loc 1 602 0 discriminator 3
 658 0052 3B69     		ldr	r3, [r7, #16]
 659 0054 0133     		add	r3, r3, #1
 660 0056 3B61     		str	r3, [r7, #16]
 661              	.L29:
 602:Generated_Source\PSoC4/CapSense_1.c ****     {
 662              		.loc 1 602 0 is_stmt 0 discriminator 1
 663 0058 3B69     		ldr	r3, [r7, #16]
 664 005a 002B     		cmp	r3, #0
 665 005c F0D0     		beq	.L30
 606:Generated_Source\PSoC4/CapSense_1.c ****     }
 607:Generated_Source\PSoC4/CapSense_1.c **** 
 608:Generated_Source\PSoC4/CapSense_1.c ****     /* Update sensorEnableMask to scan the sensors that belong to widget */
 609:Generated_Source\PSoC4/CapSense_1.c ****     for(snsIndex = 0u; snsIndex < CapSense_1_TOTAL_SENSOR_COUNT; snsIndex++)
 666              		.loc 1 609 0 is_stmt 1
 667 005e 0023     		mov	r3, #0
 668 0060 3B61     		str	r3, [r7, #16]
 669 0062 1CE0     		b	.L31
 670              	.L34:
 610:Generated_Source\PSoC4/CapSense_1.c ****     {
 611:Generated_Source\PSoC4/CapSense_1.c ****         /* Update sensorEnableMask array bits to scan the widget only */
 612:Generated_Source\PSoC4/CapSense_1.c ****         if((snsIndex >= CapSense_1_sensorIndex) && (snsIndex <= lastSensor))
 671              		.loc 1 612 0
 672 0064 194B     		ldr	r3, .L36+4
 673 0066 1B78     		ldrb	r3, [r3]
 674 0068 DBB2     		uxtb	r3, r3
 675 006a 1A1E     		sub	r2, r3, #0
 676 006c 3B69     		ldr	r3, [r7, #16]
 677 006e 9A42     		cmp	r2, r3
 678 0070 0BD8     		bhi	.L32
 679              		.loc 1 612 0 is_stmt 0 discriminator 1
 680 0072 3A69     		ldr	r2, [r7, #16]
 681 0074 FB68     		ldr	r3, [r7, #12]
 682 0076 9A42     		cmp	r2, r3
 683 0078 07D8     		bhi	.L32
 613:Generated_Source\PSoC4/CapSense_1.c ****         {
 614:Generated_Source\PSoC4/CapSense_1.c ****             /* Set sensor bit to scan */
 615:Generated_Source\PSoC4/CapSense_1.c ****             CapSense_1_SetBitValue(CapSense_1_sensorEnableMask, snsIndex, 1u);
 684              		.loc 1 615 0 is_stmt 1
 685 007a 164A     		ldr	r2, .L36+12
 686 007c 3B69     		ldr	r3, [r7, #16]
 687 007e 101C     		mov	r0, r2
 688 0080 191C     		mov	r1, r3
 689 0082 0122     		mov	r2, #1
 690 0084 FFF7FEFF 		bl	CapSense_1_SetBitValue
 691 0088 06E0     		b	.L33
 692              	.L32:
ARM GAS  C:\Users\IGOR~1.HOL\AppData\Local\Temp\ccdi3Ihk.s 			page 24


 616:Generated_Source\PSoC4/CapSense_1.c ****         }
 617:Generated_Source\PSoC4/CapSense_1.c ****         else
 618:Generated_Source\PSoC4/CapSense_1.c ****         {
 619:Generated_Source\PSoC4/CapSense_1.c ****             /* Reset sensor bit to do not scan */
 620:Generated_Source\PSoC4/CapSense_1.c ****             CapSense_1_SetBitValue(CapSense_1_sensorEnableMask, snsIndex, 0u);
 693              		.loc 1 620 0
 694 008a 124A     		ldr	r2, .L36+12
 695 008c 3B69     		ldr	r3, [r7, #16]
 696 008e 101C     		mov	r0, r2
 697 0090 191C     		mov	r1, r3
 698 0092 0022     		mov	r2, #0
 699 0094 FFF7FEFF 		bl	CapSense_1_SetBitValue
 700              	.L33:
 609:Generated_Source\PSoC4/CapSense_1.c ****     {
 701              		.loc 1 609 0 discriminator 2
 702 0098 3B69     		ldr	r3, [r7, #16]
 703 009a 0133     		add	r3, r3, #1
 704 009c 3B61     		str	r3, [r7, #16]
 705              	.L31:
 609:Generated_Source\PSoC4/CapSense_1.c ****     {
 706              		.loc 1 609 0 is_stmt 0 discriminator 1
 707 009e 3B69     		ldr	r3, [r7, #16]
 708 00a0 002B     		cmp	r3, #0
 709 00a2 DFD0     		beq	.L34
 621:Generated_Source\PSoC4/CapSense_1.c ****         }
 622:Generated_Source\PSoC4/CapSense_1.c ****     }
 623:Generated_Source\PSoC4/CapSense_1.c **** 
 624:Generated_Source\PSoC4/CapSense_1.c ****     /* Check end of scan condition */
 625:Generated_Source\PSoC4/CapSense_1.c ****     if(CapSense_1_sensorIndex < CapSense_1_TOTAL_SENSOR_COUNT)
 710              		.loc 1 625 0 is_stmt 1
 711 00a4 094B     		ldr	r3, .L36+4
 712 00a6 1B78     		ldrb	r3, [r3]
 713 00a8 DBB2     		uxtb	r3, r3
 714 00aa 002B     		cmp	r3, #0
 715 00ac 08D1     		bne	.L27
 626:Generated_Source\PSoC4/CapSense_1.c ****     {
 627:Generated_Source\PSoC4/CapSense_1.c ****         /* Set widget busy bit in status/control variable*/
 628:Generated_Source\PSoC4/CapSense_1.c ****         CapSense_1_csdStatusVar = (CapSense_1_SW_STS_BUSY | CapSense_1_SW_CTRL_WIDGET_SCAN);
 716              		.loc 1 628 0
 717 00ae 0B4B     		ldr	r3, .L36+20
 718 00b0 4122     		mov	r2, #65
 719 00b2 1A70     		strb	r2, [r3]
 629:Generated_Source\PSoC4/CapSense_1.c ****         /* Scan first sensor of widget*/
 630:Generated_Source\PSoC4/CapSense_1.c ****         CapSense_1_PreScan((uint32)CapSense_1_sensorIndex);
 720              		.loc 1 630 0
 721 00b4 054B     		ldr	r3, .L36+4
 722 00b6 1B78     		ldrb	r3, [r3]
 723 00b8 DBB2     		uxtb	r3, r3
 724 00ba 181C     		mov	r0, r3
 725 00bc FFF7FEFF 		bl	CapSense_1_PreScan
 726              	.L27:
 631:Generated_Source\PSoC4/CapSense_1.c ****     }
 632:Generated_Source\PSoC4/CapSense_1.c **** }
 727              		.loc 1 632 0
 728 00c0 BD46     		mov	sp, r7
 729 00c2 06B0     		add	sp, sp, #24
 730              		@ sp needed
ARM GAS  C:\Users\IGOR~1.HOL\AppData\Local\Temp\ccdi3Ihk.s 			page 25


 731 00c4 80BD     		pop	{r7, pc}
 732              	.L37:
 733 00c6 C046     		.align	2
 734              	.L36:
 735 00c8 00000000 		.word	CapSense_1_rawDataIndex
 736 00cc 00000000 		.word	CapSense_1_sensorIndex
 737 00d0 00000000 		.word	CapSense_1_numberOfSensors
 738 00d4 00000000 		.word	CapSense_1_sensorEnableMask
 739 00d8 00000000 		.word	CapSense_1_sensorEnableMaskBackup
 740 00dc 00000000 		.word	CapSense_1_csdStatusVar
 741              		.cfi_endproc
 742              	.LFE42:
 743              		.size	CapSense_1_ScanWidget, .-CapSense_1_ScanWidget
 744              		.section	.text.CapSense_1_ScanEnabledWidgets,"ax",%progbits
 745              		.align	2
 746              		.global	CapSense_1_ScanEnabledWidgets
 747              		.code	16
 748              		.thumb_func
 749              		.type	CapSense_1_ScanEnabledWidgets, %function
 750              	CapSense_1_ScanEnabledWidgets:
 751              	.LFB43:
 633:Generated_Source\PSoC4/CapSense_1.c **** #endif /* (0u != CapSense_1_CSHL_API_GENERATE) */
 634:Generated_Source\PSoC4/CapSense_1.c **** 
 635:Generated_Source\PSoC4/CapSense_1.c **** 
 636:Generated_Source\PSoC4/CapSense_1.c **** /*******************************************************************************
 637:Generated_Source\PSoC4/CapSense_1.c **** * Function Name: CapSense_1_ScanEnableWidgets
 638:Generated_Source\PSoC4/CapSense_1.c **** ********************************************************************************
 639:Generated_Source\PSoC4/CapSense_1.c **** *
 640:Generated_Source\PSoC4/CapSense_1.c **** * Summary:
 641:Generated_Source\PSoC4/CapSense_1.c **** *  This is the preferred method to scan all of the enabled widgets.
 642:Generated_Source\PSoC4/CapSense_1.c **** *  The API starts scanning a sensor within the enabled widgets.
 643:Generated_Source\PSoC4/CapSense_1.c **** *  The ISR continues scanning the sensors until all the enabled widgets are scanned.
 644:Generated_Source\PSoC4/CapSense_1.c **** *  Use of the ISR ensures this function is non-blocking.
 645:Generated_Source\PSoC4/CapSense_1.c **** *  All the widgets are enabled by default except proximity widgets.
 646:Generated_Source\PSoC4/CapSense_1.c **** *  The proximity widgets must be manually enabled as their long scan time
 647:Generated_Source\PSoC4/CapSense_1.c **** *  is incompatible with a fast response required of other widget types.
 648:Generated_Source\PSoC4/CapSense_1.c **** *
 649:Generated_Source\PSoC4/CapSense_1.c **** * Parameters:
 650:Generated_Source\PSoC4/CapSense_1.c **** *  None
 651:Generated_Source\PSoC4/CapSense_1.c **** *
 652:Generated_Source\PSoC4/CapSense_1.c **** * Return:
 653:Generated_Source\PSoC4/CapSense_1.c **** *  None
 654:Generated_Source\PSoC4/CapSense_1.c **** *
 655:Generated_Source\PSoC4/CapSense_1.c **** * Global Variables:
 656:Generated_Source\PSoC4/CapSense_1.c **** *  CapSense_1_csdStatusVar - used to provide the status and mode of the scanning process.
 657:Generated_Source\PSoC4/CapSense_1.c **** *  Sets the busy status(scan in progress) and clears the single scan mode.
 658:Generated_Source\PSoC4/CapSense_1.c **** *  CapSense_1_sensorIndex - used to store a sensor scanning sensor number.
 659:Generated_Source\PSoC4/CapSense_1.c **** *  Sets to 0xFF and provided to function CapSense_1_FindNextSensor or
 660:Generated_Source\PSoC4/CapSense_1.c **** *
 661:Generated_Source\PSoC4/CapSense_1.c **** * Side Effects:
 662:Generated_Source\PSoC4/CapSense_1.c **** *  None
 663:Generated_Source\PSoC4/CapSense_1.c **** *
 664:Generated_Source\PSoC4/CapSense_1.c **** *******************************************************************************/
 665:Generated_Source\PSoC4/CapSense_1.c **** void CapSense_1_ScanEnabledWidgets(void)
 666:Generated_Source\PSoC4/CapSense_1.c **** {
 752              		.loc 1 666 0
 753              		.cfi_startproc
ARM GAS  C:\Users\IGOR~1.HOL\AppData\Local\Temp\ccdi3Ihk.s 			page 26


 754 0000 80B5     		push	{r7, lr}
 755              		.cfi_def_cfa_offset 8
 756              		.cfi_offset 7, -8
 757              		.cfi_offset 14, -4
 758 0002 00AF     		add	r7, sp, #0
 759              		.cfi_def_cfa_register 7
 667:Generated_Source\PSoC4/CapSense_1.c ****     /* Clears status/control variable and set sensorIndex */
 668:Generated_Source\PSoC4/CapSense_1.c ****     CapSense_1_csdStatusVar = 0u;
 760              		.loc 1 668 0
 761 0004 124B     		ldr	r3, .L40
 762 0006 0022     		mov	r2, #0
 763 0008 1A70     		strb	r2, [r3]
 669:Generated_Source\PSoC4/CapSense_1.c ****     CapSense_1_sensorIndex = 0xFFu;
 764              		.loc 1 669 0
 765 000a 124B     		ldr	r3, .L40+4
 766 000c FF22     		mov	r2, #255
 767 000e 1A70     		strb	r2, [r3]
 670:Generated_Source\PSoC4/CapSense_1.c **** 
 671:Generated_Source\PSoC4/CapSense_1.c ****     /* Find next sensor */
 672:Generated_Source\PSoC4/CapSense_1.c ****     CapSense_1_sensorIndex = (uint8)CapSense_1_FindNextSensor(CapSense_1_sensorIndex);
 768              		.loc 1 672 0
 769 0010 104B     		ldr	r3, .L40+4
 770 0012 1B78     		ldrb	r3, [r3]
 771 0014 DBB2     		uxtb	r3, r3
 772 0016 181C     		mov	r0, r3
 773 0018 FFF7FEFF 		bl	CapSense_1_FindNextSensor
 774 001c 031C     		mov	r3, r0
 775 001e 1A1C     		mov	r2, r3
 776 0020 0C4B     		ldr	r3, .L40+4
 777 0022 1A70     		strb	r2, [r3]
 673:Generated_Source\PSoC4/CapSense_1.c **** 
 674:Generated_Source\PSoC4/CapSense_1.c ****     /* Check end of scan condition */
 675:Generated_Source\PSoC4/CapSense_1.c ****     if(CapSense_1_sensorIndex < CapSense_1_TOTAL_SENSOR_COUNT)
 778              		.loc 1 675 0
 779 0024 0B4B     		ldr	r3, .L40+4
 780 0026 1B78     		ldrb	r3, [r3]
 781 0028 DBB2     		uxtb	r3, r3
 782 002a 002B     		cmp	r3, #0
 783 002c 0DD1     		bne	.L38
 676:Generated_Source\PSoC4/CapSense_1.c ****     {
 677:Generated_Source\PSoC4/CapSense_1.c ****         CapSense_1_csdStatusVar |= CapSense_1_SW_STS_BUSY;
 784              		.loc 1 677 0
 785 002e 084B     		ldr	r3, .L40
 786 0030 1B78     		ldrb	r3, [r3]
 787 0032 DBB2     		uxtb	r3, r3
 788 0034 0122     		mov	r2, #1
 789 0036 1343     		orr	r3, r2
 790 0038 DAB2     		uxtb	r2, r3
 791 003a 054B     		ldr	r3, .L40
 792 003c 1A70     		strb	r2, [r3]
 678:Generated_Source\PSoC4/CapSense_1.c ****         CapSense_1_PreScan((uint32)CapSense_1_sensorIndex);
 793              		.loc 1 678 0
 794 003e 054B     		ldr	r3, .L40+4
 795 0040 1B78     		ldrb	r3, [r3]
 796 0042 DBB2     		uxtb	r3, r3
 797 0044 181C     		mov	r0, r3
 798 0046 FFF7FEFF 		bl	CapSense_1_PreScan
ARM GAS  C:\Users\IGOR~1.HOL\AppData\Local\Temp\ccdi3Ihk.s 			page 27


 799              	.L38:
 679:Generated_Source\PSoC4/CapSense_1.c ****     }
 680:Generated_Source\PSoC4/CapSense_1.c **** }
 800              		.loc 1 680 0
 801 004a BD46     		mov	sp, r7
 802              		@ sp needed
 803 004c 80BD     		pop	{r7, pc}
 804              	.L41:
 805 004e C046     		.align	2
 806              	.L40:
 807 0050 00000000 		.word	CapSense_1_csdStatusVar
 808 0054 00000000 		.word	CapSense_1_sensorIndex
 809              		.cfi_endproc
 810              	.LFE43:
 811              		.size	CapSense_1_ScanEnabledWidgets, .-CapSense_1_ScanEnabledWidgets
 812              		.section	.text.CapSense_1_IsBusy,"ax",%progbits
 813              		.align	2
 814              		.global	CapSense_1_IsBusy
 815              		.code	16
 816              		.thumb_func
 817              		.type	CapSense_1_IsBusy, %function
 818              	CapSense_1_IsBusy:
 819              	.LFB44:
 681:Generated_Source\PSoC4/CapSense_1.c **** 
 682:Generated_Source\PSoC4/CapSense_1.c **** 
 683:Generated_Source\PSoC4/CapSense_1.c **** /*******************************************************************************
 684:Generated_Source\PSoC4/CapSense_1.c **** * Function Name: CapSense_1_IsBusy
 685:Generated_Source\PSoC4/CapSense_1.c **** ********************************************************************************
 686:Generated_Source\PSoC4/CapSense_1.c **** *
 687:Generated_Source\PSoC4/CapSense_1.c **** * Summary:
 688:Generated_Source\PSoC4/CapSense_1.c **** *  Returns the state of the CapSense component. 1 means that scanning in
 689:Generated_Source\PSoC4/CapSense_1.c **** *  progress and 0 means that scanning is complete.
 690:Generated_Source\PSoC4/CapSense_1.c **** *
 691:Generated_Source\PSoC4/CapSense_1.c **** * Parameters:
 692:Generated_Source\PSoC4/CapSense_1.c **** *  None
 693:Generated_Source\PSoC4/CapSense_1.c **** *
 694:Generated_Source\PSoC4/CapSense_1.c **** * Return:
 695:Generated_Source\PSoC4/CapSense_1.c **** *  Returns the state of scanning. 1 - scanning in progress, 0 - scanning
 696:Generated_Source\PSoC4/CapSense_1.c **** *  completed.
 697:Generated_Source\PSoC4/CapSense_1.c **** *
 698:Generated_Source\PSoC4/CapSense_1.c **** * Global Variables:
 699:Generated_Source\PSoC4/CapSense_1.c **** *  CapSense_1_csdStatusVar - used to provide the status and mode of the scanning process.
 700:Generated_Source\PSoC4/CapSense_1.c **** *  Checks the busy status.
 701:Generated_Source\PSoC4/CapSense_1.c **** *
 702:Generated_Source\PSoC4/CapSense_1.c **** * Side Effects:
 703:Generated_Source\PSoC4/CapSense_1.c **** *  None
 704:Generated_Source\PSoC4/CapSense_1.c **** *
 705:Generated_Source\PSoC4/CapSense_1.c **** *******************************************************************************/
 706:Generated_Source\PSoC4/CapSense_1.c **** uint32 CapSense_1_IsBusy(void)
 707:Generated_Source\PSoC4/CapSense_1.c **** {
 820              		.loc 1 707 0
 821              		.cfi_startproc
 822 0000 80B5     		push	{r7, lr}
 823              		.cfi_def_cfa_offset 8
 824              		.cfi_offset 7, -8
 825              		.cfi_offset 14, -4
 826 0002 00AF     		add	r7, sp, #0
ARM GAS  C:\Users\IGOR~1.HOL\AppData\Local\Temp\ccdi3Ihk.s 			page 28


 827              		.cfi_def_cfa_register 7
 708:Generated_Source\PSoC4/CapSense_1.c ****     return ((uint32)((0u != (CapSense_1_csdStatusVar & CapSense_1_SW_STS_BUSY)) ? 1u : 0u));
 828              		.loc 1 708 0
 829 0004 044B     		ldr	r3, .L44
 830 0006 1B78     		ldrb	r3, [r3]
 831 0008 DBB2     		uxtb	r3, r3
 832 000a 1A1C     		mov	r2, r3
 833 000c 0123     		mov	r3, #1
 834 000e 1340     		and	r3, r2
 709:Generated_Source\PSoC4/CapSense_1.c **** }
 835              		.loc 1 709 0
 836 0010 181C     		mov	r0, r3
 837 0012 BD46     		mov	sp, r7
 838              		@ sp needed
 839 0014 80BD     		pop	{r7, pc}
 840              	.L45:
 841 0016 C046     		.align	2
 842              	.L44:
 843 0018 00000000 		.word	CapSense_1_csdStatusVar
 844              		.cfi_endproc
 845              	.LFE44:
 846              		.size	CapSense_1_IsBusy, .-CapSense_1_IsBusy
 847              		.section	.text.CapSense_1_ReadSensorRaw,"ax",%progbits
 848              		.align	2
 849              		.global	CapSense_1_ReadSensorRaw
 850              		.code	16
 851              		.thumb_func
 852              		.type	CapSense_1_ReadSensorRaw, %function
 853              	CapSense_1_ReadSensorRaw:
 854              	.LFB45:
 710:Generated_Source\PSoC4/CapSense_1.c **** 
 711:Generated_Source\PSoC4/CapSense_1.c **** 
 712:Generated_Source\PSoC4/CapSense_1.c **** /*******************************************************************************
 713:Generated_Source\PSoC4/CapSense_1.c **** * Function Name: CapSense_1_ReadSensorRaw
 714:Generated_Source\PSoC4/CapSense_1.c **** ********************************************************************************
 715:Generated_Source\PSoC4/CapSense_1.c **** *
 716:Generated_Source\PSoC4/CapSense_1.c **** * Summary:
 717:Generated_Source\PSoC4/CapSense_1.c **** *  Returns sensor raw data from the global CapSense_sensorRaw[ ] array.
 718:Generated_Source\PSoC4/CapSense_1.c **** *  Each scan sensor has a unique number within the sensor array.
 719:Generated_Source\PSoC4/CapSense_1.c **** *  This number is assigned by the CapSense customizer in sequence.
 720:Generated_Source\PSoC4/CapSense_1.c **** *  Raw data can be used to perform calculations outside of the CapSense
 721:Generated_Source\PSoC4/CapSense_1.c **** *  provided framework.
 722:Generated_Source\PSoC4/CapSense_1.c **** *
 723:Generated_Source\PSoC4/CapSense_1.c **** * Parameters:
 724:Generated_Source\PSoC4/CapSense_1.c **** *  sensor:  Sensor number.
 725:Generated_Source\PSoC4/CapSense_1.c **** *
 726:Generated_Source\PSoC4/CapSense_1.c **** * Return:
 727:Generated_Source\PSoC4/CapSense_1.c **** *  Returns the current raw data value for a defined sensor number.
 728:Generated_Source\PSoC4/CapSense_1.c **** *
 729:Generated_Source\PSoC4/CapSense_1.c **** * Global Variables:
 730:Generated_Source\PSoC4/CapSense_1.c **** *  CapSense_1_sensorRaw[] - used to store sensors raw data.
 731:Generated_Source\PSoC4/CapSense_1.c **** *
 732:Generated_Source\PSoC4/CapSense_1.c **** * Side Effects:
 733:Generated_Source\PSoC4/CapSense_1.c **** *  None
 734:Generated_Source\PSoC4/CapSense_1.c **** *
 735:Generated_Source\PSoC4/CapSense_1.c **** *******************************************************************************/
 736:Generated_Source\PSoC4/CapSense_1.c **** uint16 CapSense_1_ReadSensorRaw(uint32 sensor)
ARM GAS  C:\Users\IGOR~1.HOL\AppData\Local\Temp\ccdi3Ihk.s 			page 29


 737:Generated_Source\PSoC4/CapSense_1.c **** {
 855              		.loc 1 737 0
 856              		.cfi_startproc
 857 0000 80B5     		push	{r7, lr}
 858              		.cfi_def_cfa_offset 8
 859              		.cfi_offset 7, -8
 860              		.cfi_offset 14, -4
 861 0002 82B0     		sub	sp, sp, #8
 862              		.cfi_def_cfa_offset 16
 863 0004 00AF     		add	r7, sp, #0
 864              		.cfi_def_cfa_register 7
 865 0006 7860     		str	r0, [r7, #4]
 738:Generated_Source\PSoC4/CapSense_1.c ****     return CapSense_1_sensorRaw[sensor];
 866              		.loc 1 738 0
 867 0008 034B     		ldr	r3, .L48
 868 000a 7A68     		ldr	r2, [r7, #4]
 869 000c 5200     		lsl	r2, r2, #1
 870 000e D35A     		ldrh	r3, [r2, r3]
 739:Generated_Source\PSoC4/CapSense_1.c **** }
 871              		.loc 1 739 0
 872 0010 181C     		mov	r0, r3
 873 0012 BD46     		mov	sp, r7
 874 0014 02B0     		add	sp, sp, #8
 875              		@ sp needed
 876 0016 80BD     		pop	{r7, pc}
 877              	.L49:
 878              		.align	2
 879              	.L48:
 880 0018 00000000 		.word	CapSense_1_sensorRaw
 881              		.cfi_endproc
 882              	.LFE45:
 883              		.size	CapSense_1_ReadSensorRaw, .-CapSense_1_ReadSensorRaw
 884              		.section	.text.CapSense_1_WriteSensorRaw,"ax",%progbits
 885              		.align	2
 886              		.global	CapSense_1_WriteSensorRaw
 887              		.code	16
 888              		.thumb_func
 889              		.type	CapSense_1_WriteSensorRaw, %function
 890              	CapSense_1_WriteSensorRaw:
 891              	.LFB46:
 740:Generated_Source\PSoC4/CapSense_1.c **** 
 741:Generated_Source\PSoC4/CapSense_1.c **** 
 742:Generated_Source\PSoC4/CapSense_1.c **** /*******************************************************************************
 743:Generated_Source\PSoC4/CapSense_1.c **** * Function Name: CapSense_1_WriteSensorRaw
 744:Generated_Source\PSoC4/CapSense_1.c **** ********************************************************************************
 745:Generated_Source\PSoC4/CapSense_1.c **** *
 746:Generated_Source\PSoC4/CapSense_1.c **** * Summary:
 747:Generated_Source\PSoC4/CapSense_1.c **** *  This API writes the raw count value passed as an argument to the sensor Raw count array.
 748:Generated_Source\PSoC4/CapSense_1.c **** *
 749:Generated_Source\PSoC4/CapSense_1.c **** * Parameters:
 750:Generated_Source\PSoC4/CapSense_1.c **** *  sensor:  Sensor number.
 751:Generated_Source\PSoC4/CapSense_1.c **** *  value: Raw count value.
 752:Generated_Source\PSoC4/CapSense_1.c **** *
 753:Generated_Source\PSoC4/CapSense_1.c **** * Global Variables:
 754:Generated_Source\PSoC4/CapSense_1.c **** *  CapSense_1_sensorRaw[] - used to store sensors raw data.
 755:Generated_Source\PSoC4/CapSense_1.c **** *
 756:Generated_Source\PSoC4/CapSense_1.c **** * Return:
ARM GAS  C:\Users\IGOR~1.HOL\AppData\Local\Temp\ccdi3Ihk.s 			page 30


 757:Generated_Source\PSoC4/CapSense_1.c **** *  None
 758:Generated_Source\PSoC4/CapSense_1.c **** *
 759:Generated_Source\PSoC4/CapSense_1.c **** * Side Effects:
 760:Generated_Source\PSoC4/CapSense_1.c **** *  None
 761:Generated_Source\PSoC4/CapSense_1.c **** *
 762:Generated_Source\PSoC4/CapSense_1.c **** *******************************************************************************/
 763:Generated_Source\PSoC4/CapSense_1.c **** void CapSense_1_WriteSensorRaw(uint32 sensor, uint16 value)
 764:Generated_Source\PSoC4/CapSense_1.c **** {
 892              		.loc 1 764 0
 893              		.cfi_startproc
 894 0000 80B5     		push	{r7, lr}
 895              		.cfi_def_cfa_offset 8
 896              		.cfi_offset 7, -8
 897              		.cfi_offset 14, -4
 898 0002 82B0     		sub	sp, sp, #8
 899              		.cfi_def_cfa_offset 16
 900 0004 00AF     		add	r7, sp, #0
 901              		.cfi_def_cfa_register 7
 902 0006 7860     		str	r0, [r7, #4]
 903 0008 0A1C     		mov	r2, r1
 904 000a BB1C     		add	r3, r7, #2
 905 000c 1A80     		strh	r2, [r3]
 765:Generated_Source\PSoC4/CapSense_1.c ****     CapSense_1_sensorRaw[sensor] = value;
 906              		.loc 1 765 0
 907 000e 044B     		ldr	r3, .L51
 908 0010 7A68     		ldr	r2, [r7, #4]
 909 0012 5200     		lsl	r2, r2, #1
 910 0014 B91C     		add	r1, r7, #2
 911 0016 0988     		ldrh	r1, [r1]
 912 0018 D152     		strh	r1, [r2, r3]
 766:Generated_Source\PSoC4/CapSense_1.c **** }
 913              		.loc 1 766 0
 914 001a BD46     		mov	sp, r7
 915 001c 02B0     		add	sp, sp, #8
 916              		@ sp needed
 917 001e 80BD     		pop	{r7, pc}
 918              	.L52:
 919              		.align	2
 920              	.L51:
 921 0020 00000000 		.word	CapSense_1_sensorRaw
 922              		.cfi_endproc
 923              	.LFE46:
 924              		.size	CapSense_1_WriteSensorRaw, .-CapSense_1_WriteSensorRaw
 925              		.section	.text.CapSense_1_SetScanResolution,"ax",%progbits
 926              		.align	2
 927              		.global	CapSense_1_SetScanResolution
 928              		.code	16
 929              		.thumb_func
 930              		.type	CapSense_1_SetScanResolution, %function
 931              	CapSense_1_SetScanResolution:
 932              	.LFB47:
 767:Generated_Source\PSoC4/CapSense_1.c **** 
 768:Generated_Source\PSoC4/CapSense_1.c **** 
 769:Generated_Source\PSoC4/CapSense_1.c **** #if (CapSense_1_TUNING_METHOD != CapSense_1__TUNING_NONE)
 770:Generated_Source\PSoC4/CapSense_1.c ****     /*******************************************************************************
 771:Generated_Source\PSoC4/CapSense_1.c ****     * Function Name: CapSense_1_SetScanResolution
 772:Generated_Source\PSoC4/CapSense_1.c ****     ********************************************************************************
ARM GAS  C:\Users\IGOR~1.HOL\AppData\Local\Temp\ccdi3Ihk.s 			page 31


 773:Generated_Source\PSoC4/CapSense_1.c ****     *
 774:Generated_Source\PSoC4/CapSense_1.c ****     * Summary:
 775:Generated_Source\PSoC4/CapSense_1.c ****     *  Sets a value of the sensor scan resolution for a widget.
 776:Generated_Source\PSoC4/CapSense_1.c ****     *  The MIN resolution can be set 8-bit. The MAX Resolution can be set 16 bit.
 777:Generated_Source\PSoC4/CapSense_1.c ****     *  This function is not available for the tuning mode "None".
 778:Generated_Source\PSoC4/CapSense_1.c ****     *
 779:Generated_Source\PSoC4/CapSense_1.c ****     * Parameters:
 780:Generated_Source\PSoC4/CapSense_1.c ****     *  widget:     Widget index.
 781:Generated_Source\PSoC4/CapSense_1.c ****     *  resolution: Represents the resolution value. The following defines which are available in th
 782:Generated_Source\PSoC4/CapSense_1.c ****     *              CapSense_1.h file should be used:
 783:Generated_Source\PSoC4/CapSense_1.c ****     *              CapSense_1_RESOLUTION_6_BITS
 784:Generated_Source\PSoC4/CapSense_1.c ****     *              CapSense_1_RESOLUTION_7_BITS
 785:Generated_Source\PSoC4/CapSense_1.c ****     *              CapSense_1_RESOLUTION_8_BITS
 786:Generated_Source\PSoC4/CapSense_1.c ****     *              CapSense_1_RESOLUTION_9_BITS
 787:Generated_Source\PSoC4/CapSense_1.c ****     *              CapSense_1_RESOLUTION_10_BITS
 788:Generated_Source\PSoC4/CapSense_1.c ****     *              CapSense_1_RESOLUTION_11_BITS
 789:Generated_Source\PSoC4/CapSense_1.c ****     *              CapSense_1_RESOLUTION_12_BITS
 790:Generated_Source\PSoC4/CapSense_1.c ****     *              CapSense_1_RESOLUTION_13_BITS
 791:Generated_Source\PSoC4/CapSense_1.c ****     *              CapSense_1_RESOLUTION_14_BITS
 792:Generated_Source\PSoC4/CapSense_1.c ****     *              CapSense_1_RESOLUTION_15_BITS
 793:Generated_Source\PSoC4/CapSense_1.c ****     *              CapSense_1_RESOLUTION_16_BITS
 794:Generated_Source\PSoC4/CapSense_1.c ****     *
 795:Generated_Source\PSoC4/CapSense_1.c ****     * Return:
 796:Generated_Source\PSoC4/CapSense_1.c ****     *  None
 797:Generated_Source\PSoC4/CapSense_1.c ****     *
 798:Generated_Source\PSoC4/CapSense_1.c ****     * Global Variables:
 799:Generated_Source\PSoC4/CapSense_1.c ****     *  CapSense_1_widgetResolution[] - used to store scan resolution of each widget.
 800:Generated_Source\PSoC4/CapSense_1.c ****     *
 801:Generated_Source\PSoC4/CapSense_1.c ****     * Side Effects:
 802:Generated_Source\PSoC4/CapSense_1.c ****     *  None
 803:Generated_Source\PSoC4/CapSense_1.c ****     *
 804:Generated_Source\PSoC4/CapSense_1.c ****     *******************************************************************************/
 805:Generated_Source\PSoC4/CapSense_1.c ****     void CapSense_1_SetScanResolution(uint32 widget, uint32 resolution)
 806:Generated_Source\PSoC4/CapSense_1.c ****     {
 933              		.loc 1 806 0
 934              		.cfi_startproc
 935 0000 80B5     		push	{r7, lr}
 936              		.cfi_def_cfa_offset 8
 937              		.cfi_offset 7, -8
 938              		.cfi_offset 14, -4
 939 0002 82B0     		sub	sp, sp, #8
 940              		.cfi_def_cfa_offset 16
 941 0004 00AF     		add	r7, sp, #0
 942              		.cfi_def_cfa_register 7
 943 0006 7860     		str	r0, [r7, #4]
 944 0008 3960     		str	r1, [r7]
 807:Generated_Source\PSoC4/CapSense_1.c ****         CapSense_1_widgetResolution[widget] = resolution;
 945              		.loc 1 807 0
 946 000a 044B     		ldr	r3, .L54
 947 000c 7A68     		ldr	r2, [r7, #4]
 948 000e 9200     		lsl	r2, r2, #2
 949 0010 3968     		ldr	r1, [r7]
 950 0012 D150     		str	r1, [r2, r3]
 808:Generated_Source\PSoC4/CapSense_1.c ****     }
 951              		.loc 1 808 0
 952 0014 BD46     		mov	sp, r7
 953 0016 02B0     		add	sp, sp, #8
ARM GAS  C:\Users\IGOR~1.HOL\AppData\Local\Temp\ccdi3Ihk.s 			page 32


 954              		@ sp needed
 955 0018 80BD     		pop	{r7, pc}
 956              	.L55:
 957 001a C046     		.align	2
 958              	.L54:
 959 001c 00000000 		.word	CapSense_1_widgetResolution
 960              		.cfi_endproc
 961              	.LFE47:
 962              		.size	CapSense_1_SetScanResolution, .-CapSense_1_SetScanResolution
 963              		.section	.text.CapSense_1_GetScanResolution,"ax",%progbits
 964              		.align	2
 965              		.global	CapSense_1_GetScanResolution
 966              		.code	16
 967              		.thumb_func
 968              		.type	CapSense_1_GetScanResolution, %function
 969              	CapSense_1_GetScanResolution:
 970              	.LFB48:
 809:Generated_Source\PSoC4/CapSense_1.c **** #endif /* (CapSense_1_TUNING_METHOD != CapSense_1__TUNING_NONE) */
 810:Generated_Source\PSoC4/CapSense_1.c **** 
 811:Generated_Source\PSoC4/CapSense_1.c **** 
 812:Generated_Source\PSoC4/CapSense_1.c **** /*******************************************************************************
 813:Generated_Source\PSoC4/CapSense_1.c **** * Function Name: CapSense_1_GetScanResolution
 814:Generated_Source\PSoC4/CapSense_1.c **** ********************************************************************************
 815:Generated_Source\PSoC4/CapSense_1.c **** *
 816:Generated_Source\PSoC4/CapSense_1.c **** * Summary:
 817:Generated_Source\PSoC4/CapSense_1.c **** *  Returns the resolution value for the appropriate sensor.
 818:Generated_Source\PSoC4/CapSense_1.c **** *  This function is not available for tuning mode "None".
 819:Generated_Source\PSoC4/CapSense_1.c **** *
 820:Generated_Source\PSoC4/CapSense_1.c **** * Parameters:
 821:Generated_Source\PSoC4/CapSense_1.c **** *  widget:     Widget index.
 822:Generated_Source\PSoC4/CapSense_1.c **** *
 823:Generated_Source\PSoC4/CapSense_1.c **** * Return:
 824:Generated_Source\PSoC4/CapSense_1.c **** *  resolution: Returns the resolution value for the appropriate sensor.
 825:Generated_Source\PSoC4/CapSense_1.c **** *              The resolution values are defined in the CapSense_1.h file
 826:Generated_Source\PSoC4/CapSense_1.c **** *              The defines are encountered below:
 827:Generated_Source\PSoC4/CapSense_1.c **** *              CapSense_1_RESOLUTION_6_BITS
 828:Generated_Source\PSoC4/CapSense_1.c **** *              CapSense_1_RESOLUTION_7_BITS
 829:Generated_Source\PSoC4/CapSense_1.c **** *              CapSense_1_RESOLUTION_8_BITS
 830:Generated_Source\PSoC4/CapSense_1.c **** *              CapSense_1_RESOLUTION_9_BITS
 831:Generated_Source\PSoC4/CapSense_1.c **** *              CapSense_1_RESOLUTION_10_BITS
 832:Generated_Source\PSoC4/CapSense_1.c **** *              CapSense_1_RESOLUTION_11_BITS
 833:Generated_Source\PSoC4/CapSense_1.c **** *              CapSense_1_RESOLUTION_12_BITS
 834:Generated_Source\PSoC4/CapSense_1.c **** *              CapSense_1_RESOLUTION_13_BITS
 835:Generated_Source\PSoC4/CapSense_1.c **** *              CapSense_1_RESOLUTION_14_BITS
 836:Generated_Source\PSoC4/CapSense_1.c **** *              CapSense_1_RESOLUTION_15_BITS
 837:Generated_Source\PSoC4/CapSense_1.c **** *              CapSense_1_RESOLUTION_16_BITS
 838:Generated_Source\PSoC4/CapSense_1.c **** *
 839:Generated_Source\PSoC4/CapSense_1.c **** * Global Variables:
 840:Generated_Source\PSoC4/CapSense_1.c **** *  CapSense_1_widgetResolution[] - used to store scan resolution of every widget.
 841:Generated_Source\PSoC4/CapSense_1.c **** *
 842:Generated_Source\PSoC4/CapSense_1.c **** * Side Effects:
 843:Generated_Source\PSoC4/CapSense_1.c **** *  None
 844:Generated_Source\PSoC4/CapSense_1.c **** *
 845:Generated_Source\PSoC4/CapSense_1.c **** *******************************************************************************/
 846:Generated_Source\PSoC4/CapSense_1.c **** uint32 CapSense_1_GetScanResolution(uint32 widget)
 847:Generated_Source\PSoC4/CapSense_1.c **** {
 971              		.loc 1 847 0
ARM GAS  C:\Users\IGOR~1.HOL\AppData\Local\Temp\ccdi3Ihk.s 			page 33


 972              		.cfi_startproc
 973 0000 80B5     		push	{r7, lr}
 974              		.cfi_def_cfa_offset 8
 975              		.cfi_offset 7, -8
 976              		.cfi_offset 14, -4
 977 0002 82B0     		sub	sp, sp, #8
 978              		.cfi_def_cfa_offset 16
 979 0004 00AF     		add	r7, sp, #0
 980              		.cfi_def_cfa_register 7
 981 0006 7860     		str	r0, [r7, #4]
 848:Generated_Source\PSoC4/CapSense_1.c ****     return(CapSense_1_widgetResolution[widget]);
 982              		.loc 1 848 0
 983 0008 034B     		ldr	r3, .L58
 984 000a 7A68     		ldr	r2, [r7, #4]
 985 000c 9200     		lsl	r2, r2, #2
 986 000e D358     		ldr	r3, [r2, r3]
 849:Generated_Source\PSoC4/CapSense_1.c **** }
 987              		.loc 1 849 0
 988 0010 181C     		mov	r0, r3
 989 0012 BD46     		mov	sp, r7
 990 0014 02B0     		add	sp, sp, #8
 991              		@ sp needed
 992 0016 80BD     		pop	{r7, pc}
 993              	.L59:
 994              		.align	2
 995              	.L58:
 996 0018 00000000 		.word	CapSense_1_widgetResolution
 997              		.cfi_endproc
 998              	.LFE48:
 999              		.size	CapSense_1_GetScanResolution, .-CapSense_1_GetScanResolution
 1000              		.section	.text.CapSense_1_ClearSensors,"ax",%progbits
 1001              		.align	2
 1002              		.global	CapSense_1_ClearSensors
 1003              		.code	16
 1004              		.thumb_func
 1005              		.type	CapSense_1_ClearSensors, %function
 1006              	CapSense_1_ClearSensors:
 1007              	.LFB49:
 850:Generated_Source\PSoC4/CapSense_1.c **** 
 851:Generated_Source\PSoC4/CapSense_1.c **** 
 852:Generated_Source\PSoC4/CapSense_1.c **** /*******************************************************************************
 853:Generated_Source\PSoC4/CapSense_1.c **** * Function Name: CapSense_1_ClearSensors
 854:Generated_Source\PSoC4/CapSense_1.c **** ********************************************************************************
 855:Generated_Source\PSoC4/CapSense_1.c **** *
 856:Generated_Source\PSoC4/CapSense_1.c **** * Summary:
 857:Generated_Source\PSoC4/CapSense_1.c **** *  Resets all the sensors to the non-sampling state by sequentially disconnecting
 858:Generated_Source\PSoC4/CapSense_1.c **** *  all the sensors from Analog MUX Bus and putting them to an inactive state.
 859:Generated_Source\PSoC4/CapSense_1.c **** *
 860:Generated_Source\PSoC4/CapSense_1.c **** * Parameters:
 861:Generated_Source\PSoC4/CapSense_1.c **** *  None
 862:Generated_Source\PSoC4/CapSense_1.c **** *
 863:Generated_Source\PSoC4/CapSense_1.c **** * Return:
 864:Generated_Source\PSoC4/CapSense_1.c **** *  None
 865:Generated_Source\PSoC4/CapSense_1.c **** *
 866:Generated_Source\PSoC4/CapSense_1.c **** * Global Variables:
 867:Generated_Source\PSoC4/CapSense_1.c **** *  None
 868:Generated_Source\PSoC4/CapSense_1.c **** *
ARM GAS  C:\Users\IGOR~1.HOL\AppData\Local\Temp\ccdi3Ihk.s 			page 34


 869:Generated_Source\PSoC4/CapSense_1.c **** * Side Effects:
 870:Generated_Source\PSoC4/CapSense_1.c **** *  None
 871:Generated_Source\PSoC4/CapSense_1.c **** *
 872:Generated_Source\PSoC4/CapSense_1.c **** *******************************************************************************/
 873:Generated_Source\PSoC4/CapSense_1.c **** void CapSense_1_ClearSensors(void)
 874:Generated_Source\PSoC4/CapSense_1.c **** {
 1008              		.loc 1 874 0
 1009              		.cfi_startproc
 1010 0000 80B5     		push	{r7, lr}
 1011              		.cfi_def_cfa_offset 8
 1012              		.cfi_offset 7, -8
 1013              		.cfi_offset 14, -4
 1014 0002 82B0     		sub	sp, sp, #8
 1015              		.cfi_def_cfa_offset 16
 1016 0004 00AF     		add	r7, sp, #0
 1017              		.cfi_def_cfa_register 7
 875:Generated_Source\PSoC4/CapSense_1.c ****     uint32 snsIndex;
 876:Generated_Source\PSoC4/CapSense_1.c **** 
 877:Generated_Source\PSoC4/CapSense_1.c ****     for (snsIndex = 0u; snsIndex < CapSense_1_TOTAL_SENSOR_COUNT; snsIndex++)
 1018              		.loc 1 877 0
 1019 0006 0023     		mov	r3, #0
 1020 0008 7B60     		str	r3, [r7, #4]
 1021 000a 06E0     		b	.L61
 1022              	.L62:
 878:Generated_Source\PSoC4/CapSense_1.c ****     {
 879:Generated_Source\PSoC4/CapSense_1.c ****         CapSense_1_DisableScanSlot(snsIndex);
 1023              		.loc 1 879 0 discriminator 3
 1024 000c 7B68     		ldr	r3, [r7, #4]
 1025 000e 181C     		mov	r0, r3
 1026 0010 FFF7FEFF 		bl	CapSense_1_DisableSensor
 877:Generated_Source\PSoC4/CapSense_1.c ****     {
 1027              		.loc 1 877 0 discriminator 3
 1028 0014 7B68     		ldr	r3, [r7, #4]
 1029 0016 0133     		add	r3, r3, #1
 1030 0018 7B60     		str	r3, [r7, #4]
 1031              	.L61:
 877:Generated_Source\PSoC4/CapSense_1.c ****     {
 1032              		.loc 1 877 0 is_stmt 0 discriminator 1
 1033 001a 7B68     		ldr	r3, [r7, #4]
 1034 001c 002B     		cmp	r3, #0
 1035 001e F5D0     		beq	.L62
 880:Generated_Source\PSoC4/CapSense_1.c ****     }
 881:Generated_Source\PSoC4/CapSense_1.c **** }
 1036              		.loc 1 881 0 is_stmt 1
 1037 0020 BD46     		mov	sp, r7
 1038 0022 02B0     		add	sp, sp, #8
 1039              		@ sp needed
 1040 0024 80BD     		pop	{r7, pc}
 1041              		.cfi_endproc
 1042              	.LFE49:
 1043              		.size	CapSense_1_ClearSensors, .-CapSense_1_ClearSensors
 1044 0026 C046     		.section	.text.CapSense_1_EnableSensor,"ax",%progbits
 1045              		.align	2
 1046              		.global	CapSense_1_EnableSensor
 1047              		.code	16
 1048              		.thumb_func
 1049              		.type	CapSense_1_EnableSensor, %function
ARM GAS  C:\Users\IGOR~1.HOL\AppData\Local\Temp\ccdi3Ihk.s 			page 35


 1050              	CapSense_1_EnableSensor:
 1051              	.LFB50:
 882:Generated_Source\PSoC4/CapSense_1.c **** 
 883:Generated_Source\PSoC4/CapSense_1.c **** 
 884:Generated_Source\PSoC4/CapSense_1.c **** #if (CapSense_1_IS_COMPLEX_SCANSLOTS)
 885:Generated_Source\PSoC4/CapSense_1.c ****     /*******************************************************************************
 886:Generated_Source\PSoC4/CapSense_1.c ****     * Function Name: CapSense_1_EnableScanSlot
 887:Generated_Source\PSoC4/CapSense_1.c ****     ********************************************************************************
 888:Generated_Source\PSoC4/CapSense_1.c ****     *
 889:Generated_Source\PSoC4/CapSense_1.c ****     * Summary:
 890:Generated_Source\PSoC4/CapSense_1.c ****     *  Configures the selected slot to measure during the next measurement
 891:Generated_Source\PSoC4/CapSense_1.c ****     *  cycle. The corresponding pin/pins are set to Analog High-Z mode and
 892:Generated_Source\PSoC4/CapSense_1.c ****     *  connected to the Analog Mux Bus. This also enables the comparator function.
 893:Generated_Source\PSoC4/CapSense_1.c ****     *
 894:Generated_Source\PSoC4/CapSense_1.c ****     * Parameters:
 895:Generated_Source\PSoC4/CapSense_1.c ****     *  slot:  Slot number.
 896:Generated_Source\PSoC4/CapSense_1.c ****     *
 897:Generated_Source\PSoC4/CapSense_1.c ****     * Return:
 898:Generated_Source\PSoC4/CapSense_1.c ****     *  None
 899:Generated_Source\PSoC4/CapSense_1.c ****     *
 900:Generated_Source\PSoC4/CapSense_1.c ****     * Global Constants:
 901:Generated_Source\PSoC4/CapSense_1.c ****     *  CapSense_1_portTable[]  - used to store the port number that pin
 902:Generated_Source\PSoC4/CapSense_1.c ****     *  belongs to for each sensor.
 903:Generated_Source\PSoC4/CapSense_1.c ****     *  CapSense_1_maskTable[]  - used to store the pin within the port for
 904:Generated_Source\PSoC4/CapSense_1.c ****     *  each sensor.
 905:Generated_Source\PSoC4/CapSense_1.c ****     *  CapSense_1_indexTable[] - used to store indexes of complex sensors.
 906:Generated_Source\PSoC4/CapSense_1.c ****     *  The offset and position in this array are stored in a port and mask table for
 907:Generated_Source\PSoC4/CapSense_1.c ****     *  complex sensors.
 908:Generated_Source\PSoC4/CapSense_1.c ****     *  Bit 7 (msb) is used to define the sensor type: single or complex.
 909:Generated_Source\PSoC4/CapSense_1.c ****     *
 910:Generated_Source\PSoC4/CapSense_1.c ****     * Side Effects:
 911:Generated_Source\PSoC4/CapSense_1.c ****     *  None
 912:Generated_Source\PSoC4/CapSense_1.c ****     *
 913:Generated_Source\PSoC4/CapSense_1.c ****     *******************************************************************************/
 914:Generated_Source\PSoC4/CapSense_1.c ****     void CapSense_1_EnableScanSlot(uint32 slot)
 915:Generated_Source\PSoC4/CapSense_1.c ****     {
 916:Generated_Source\PSoC4/CapSense_1.c ****         uint8 j;
 917:Generated_Source\PSoC4/CapSense_1.c ****         uint8 snsNumber;
 918:Generated_Source\PSoC4/CapSense_1.c ****         const uint8 *index;
 919:Generated_Source\PSoC4/CapSense_1.c ****         /* Read sensor type: single or complex */
 920:Generated_Source\PSoC4/CapSense_1.c ****         uint8 snsType = CapSense_1_portTable[slot];
 921:Generated_Source\PSoC4/CapSense_1.c **** 
 922:Generated_Source\PSoC4/CapSense_1.c ****         /* Check if sensor is complex */
 923:Generated_Source\PSoC4/CapSense_1.c ****         if ((snsType & CapSense_1_COMPLEX_SS_FLAG) == 0u)
 924:Generated_Source\PSoC4/CapSense_1.c ****         {
 925:Generated_Source\PSoC4/CapSense_1.c ****             /* Enable sensor (single) */
 926:Generated_Source\PSoC4/CapSense_1.c ****             CapSense_1_EnableSensor(slot);
 927:Generated_Source\PSoC4/CapSense_1.c ****         }
 928:Generated_Source\PSoC4/CapSense_1.c ****         else
 929:Generated_Source\PSoC4/CapSense_1.c ****         {
 930:Generated_Source\PSoC4/CapSense_1.c ****             /* Enable complex sensor */
 931:Generated_Source\PSoC4/CapSense_1.c ****             snsType &= ~CapSense_1_COMPLEX_SS_FLAG;
 932:Generated_Source\PSoC4/CapSense_1.c ****             index = &CapSense_1_indexTable[snsType];
 933:Generated_Source\PSoC4/CapSense_1.c ****             snsNumber = CapSense_1_maskTable[slot];
 934:Generated_Source\PSoC4/CapSense_1.c **** 
 935:Generated_Source\PSoC4/CapSense_1.c ****             for (j = 0u; j < snsNumber; j++)
 936:Generated_Source\PSoC4/CapSense_1.c ****             {
ARM GAS  C:\Users\IGOR~1.HOL\AppData\Local\Temp\ccdi3Ihk.s 			page 36


 937:Generated_Source\PSoC4/CapSense_1.c ****                 CapSense_1_EnableSensor(index[j]);
 938:Generated_Source\PSoC4/CapSense_1.c ****             }
 939:Generated_Source\PSoC4/CapSense_1.c ****         }
 940:Generated_Source\PSoC4/CapSense_1.c ****     }
 941:Generated_Source\PSoC4/CapSense_1.c **** 
 942:Generated_Source\PSoC4/CapSense_1.c **** 
 943:Generated_Source\PSoC4/CapSense_1.c ****     /*******************************************************************************
 944:Generated_Source\PSoC4/CapSense_1.c ****     * Function Name: CapSense_1_DisableScanSlot
 945:Generated_Source\PSoC4/CapSense_1.c ****     ********************************************************************************
 946:Generated_Source\PSoC4/CapSense_1.c ****     *
 947:Generated_Source\PSoC4/CapSense_1.c ****     * Summary:
 948:Generated_Source\PSoC4/CapSense_1.c ****     *  Disables the selected slot. The corresponding pin/pins is/are disconnected
 949:Generated_Source\PSoC4/CapSense_1.c ****     *  from the Analog Mux Bus and connected to GND, High_Z or Shield electrode.
 950:Generated_Source\PSoC4/CapSense_1.c ****     *
 951:Generated_Source\PSoC4/CapSense_1.c ****     * Parameters:
 952:Generated_Source\PSoC4/CapSense_1.c ****     *  slot:  Slot number.
 953:Generated_Source\PSoC4/CapSense_1.c ****     *
 954:Generated_Source\PSoC4/CapSense_1.c ****     * Return:
 955:Generated_Source\PSoC4/CapSense_1.c ****     *  None
 956:Generated_Source\PSoC4/CapSense_1.c ****     *
 957:Generated_Source\PSoC4/CapSense_1.c ****     * Global Variables:
 958:Generated_Source\PSoC4/CapSense_1.c ****     *  CapSense_1_portTable[]  - used to store the port number that pin
 959:Generated_Source\PSoC4/CapSense_1.c ****     *  belongs to for each sensor.
 960:Generated_Source\PSoC4/CapSense_1.c ****     *  CapSense_1_maskTable[]  - used to store the pin within the port for
 961:Generated_Source\PSoC4/CapSense_1.c ****     *  each sensor.
 962:Generated_Source\PSoC4/CapSense_1.c ****     *  CapSense_1_indexTable[] - used to store indexes of complex sensors.
 963:Generated_Source\PSoC4/CapSense_1.c ****     *  The offset and position in this array are stored in a port and mask table for
 964:Generated_Source\PSoC4/CapSense_1.c ****     *  complex sensors.
 965:Generated_Source\PSoC4/CapSense_1.c ****     *  7bit(msb) is used to define the sensor type: single or complex.
 966:Generated_Source\PSoC4/CapSense_1.c ****     *
 967:Generated_Source\PSoC4/CapSense_1.c ****     * Side Effects:
 968:Generated_Source\PSoC4/CapSense_1.c ****     *  None
 969:Generated_Source\PSoC4/CapSense_1.c ****     *
 970:Generated_Source\PSoC4/CapSense_1.c ****     *******************************************************************************/
 971:Generated_Source\PSoC4/CapSense_1.c ****     void CapSense_1_DisableScanSlot(uint32 slot)
 972:Generated_Source\PSoC4/CapSense_1.c ****     {
 973:Generated_Source\PSoC4/CapSense_1.c ****         uint8 j;
 974:Generated_Source\PSoC4/CapSense_1.c ****         uint8 snsNumber;
 975:Generated_Source\PSoC4/CapSense_1.c ****         const uint8 *index;
 976:Generated_Source\PSoC4/CapSense_1.c **** 
 977:Generated_Source\PSoC4/CapSense_1.c ****         /* Read sensor type: single or complex */
 978:Generated_Source\PSoC4/CapSense_1.c ****         uint8 snsType = CapSense_1_portTable[slot];
 979:Generated_Source\PSoC4/CapSense_1.c **** 
 980:Generated_Source\PSoC4/CapSense_1.c ****         /* Check if sensor is complex */
 981:Generated_Source\PSoC4/CapSense_1.c ****         if ((snsType & CapSense_1_COMPLEX_SS_FLAG) == 0u)
 982:Generated_Source\PSoC4/CapSense_1.c ****         {
 983:Generated_Source\PSoC4/CapSense_1.c ****             /* Disable sensor (single) */
 984:Generated_Source\PSoC4/CapSense_1.c ****             CapSense_1_DisableSensor(slot);
 985:Generated_Source\PSoC4/CapSense_1.c ****         }
 986:Generated_Source\PSoC4/CapSense_1.c ****         else
 987:Generated_Source\PSoC4/CapSense_1.c ****         {
 988:Generated_Source\PSoC4/CapSense_1.c ****             /* Disable complex sensor */
 989:Generated_Source\PSoC4/CapSense_1.c ****             snsType &= ~CapSense_1_COMPLEX_SS_FLAG;
 990:Generated_Source\PSoC4/CapSense_1.c ****             index = &CapSense_1_indexTable[snsType];
 991:Generated_Source\PSoC4/CapSense_1.c ****             snsNumber = CapSense_1_maskTable[slot];
 992:Generated_Source\PSoC4/CapSense_1.c **** 
 993:Generated_Source\PSoC4/CapSense_1.c ****             for (j=0; j < snsNumber; j++)
ARM GAS  C:\Users\IGOR~1.HOL\AppData\Local\Temp\ccdi3Ihk.s 			page 37


 994:Generated_Source\PSoC4/CapSense_1.c ****             {
 995:Generated_Source\PSoC4/CapSense_1.c ****                 CapSense_1_DisableSensor(index[j]);
 996:Generated_Source\PSoC4/CapSense_1.c ****             }
 997:Generated_Source\PSoC4/CapSense_1.c ****         }
 998:Generated_Source\PSoC4/CapSense_1.c ****     }
 999:Generated_Source\PSoC4/CapSense_1.c **** #endif  /* CapSense_1_IS_COMPLEX_SCANSLOTS */
1000:Generated_Source\PSoC4/CapSense_1.c **** 
1001:Generated_Source\PSoC4/CapSense_1.c **** 
1002:Generated_Source\PSoC4/CapSense_1.c **** /*******************************************************************************
1003:Generated_Source\PSoC4/CapSense_1.c **** * Function Name: CapSense_1_EnableSensor
1004:Generated_Source\PSoC4/CapSense_1.c **** ********************************************************************************
1005:Generated_Source\PSoC4/CapSense_1.c **** *
1006:Generated_Source\PSoC4/CapSense_1.c **** * Summary:
1007:Generated_Source\PSoC4/CapSense_1.c **** *  Configures the selected sensor to measure during the next measurement cycle.
1008:Generated_Source\PSoC4/CapSense_1.c **** *  The corresponding pins are set to Analog High-Z mode and connected to the
1009:Generated_Source\PSoC4/CapSense_1.c **** *  Analog Mux Bus. This also enables the comparator function.
1010:Generated_Source\PSoC4/CapSense_1.c **** *
1011:Generated_Source\PSoC4/CapSense_1.c **** * Parameters:
1012:Generated_Source\PSoC4/CapSense_1.c **** *  sensor:  Sensor number.
1013:Generated_Source\PSoC4/CapSense_1.c **** *
1014:Generated_Source\PSoC4/CapSense_1.c **** * Return:
1015:Generated_Source\PSoC4/CapSense_1.c **** *  None
1016:Generated_Source\PSoC4/CapSense_1.c **** *
1017:Generated_Source\PSoC4/CapSense_1.c **** * Global Variables:
1018:Generated_Source\PSoC4/CapSense_1.c **** *  CapSense_1_portTable[] - used to store the port number that pin
1019:Generated_Source\PSoC4/CapSense_1.c **** *  belongs to for each sensor.
1020:Generated_Source\PSoC4/CapSense_1.c **** *  CapSense_1_pinShiftTbl[] - used to store position of pin that
1021:Generated_Source\PSoC4/CapSense_1.c **** *  configured as sensor in port.
1022:Generated_Source\PSoC4/CapSense_1.c **** *  CapSense_1_prtSelTbl[] - Contains pointers to the HSIOM
1023:Generated_Source\PSoC4/CapSense_1.c **** *  registers for each port.
1024:Generated_Source\PSoC4/CapSense_1.c **** *  CapSense_1_PrtCfgTb[] - Contains pointers to the port config
1025:Generated_Source\PSoC4/CapSense_1.c **** *  registers for each port.
1026:Generated_Source\PSoC4/CapSense_1.c **** *
1027:Generated_Source\PSoC4/CapSense_1.c **** * Side Effects:
1028:Generated_Source\PSoC4/CapSense_1.c **** *  None
1029:Generated_Source\PSoC4/CapSense_1.c **** *
1030:Generated_Source\PSoC4/CapSense_1.c **** *******************************************************************************/
1031:Generated_Source\PSoC4/CapSense_1.c **** void CapSense_1_EnableSensor(uint32 sensor)
1032:Generated_Source\PSoC4/CapSense_1.c **** {
 1052              		.loc 1 1032 0
 1053              		.cfi_startproc
 1054 0000 90B5     		push	{r4, r7, lr}
 1055              		.cfi_def_cfa_offset 12
 1056              		.cfi_offset 4, -12
 1057              		.cfi_offset 7, -8
 1058              		.cfi_offset 14, -4
 1059 0002 87B0     		sub	sp, sp, #28
 1060              		.cfi_def_cfa_offset 40
 1061 0004 00AF     		add	r7, sp, #0
 1062              		.cfi_def_cfa_register 7
 1063 0006 7860     		str	r0, [r7, #4]
1033:Generated_Source\PSoC4/CapSense_1.c ****     uint8  pinModeShift;
1034:Generated_Source\PSoC4/CapSense_1.c ****     uint8  pinHSIOMShift;
1035:Generated_Source\PSoC4/CapSense_1.c ****     uint8 interruptState;
1036:Generated_Source\PSoC4/CapSense_1.c ****     uint32 newRegisterValue;
1037:Generated_Source\PSoC4/CapSense_1.c ****     uint32 port;
1038:Generated_Source\PSoC4/CapSense_1.c **** 
ARM GAS  C:\Users\IGOR~1.HOL\AppData\Local\Temp\ccdi3Ihk.s 			page 38


1039:Generated_Source\PSoC4/CapSense_1.c ****     port = (uint32) CapSense_1_portTable[sensor];
 1064              		.loc 1 1039 0
 1065 0008 0023     		mov	r3, #0
 1066 000a 7B61     		str	r3, [r7, #20]
1040:Generated_Source\PSoC4/CapSense_1.c ****     pinModeShift = CapSense_1_pinShiftTbl[sensor]  * CapSense_1_PC_PIN_CFG_SIZE;
 1067              		.loc 1 1040 0
 1068 000c 0023     		mov	r3, #0
 1069 000e 1322     		mov	r2, #19
 1070 0010 BA18     		add	r2, r7, r2
 1071 0012 191C     		add	r1, r3, #0
 1072 0014 0B1C     		add	r3, r1, #0
 1073 0016 DB18     		add	r3, r3, r3
 1074 0018 5B18     		add	r3, r3, r1
 1075 001a 1370     		strb	r3, [r2]
1041:Generated_Source\PSoC4/CapSense_1.c ****     pinHSIOMShift = CapSense_1_pinShiftTbl[sensor] * CapSense_1_HSIOM_PIN_CFG_SIZE;
 1076              		.loc 1 1041 0
 1077 001c 0022     		mov	r2, #0
 1078 001e 1223     		mov	r3, #18
 1079 0020 FB18     		add	r3, r7, r3
 1080 0022 9200     		lsl	r2, r2, #2
 1081 0024 1A70     		strb	r2, [r3]
1042:Generated_Source\PSoC4/CapSense_1.c **** 
1043:Generated_Source\PSoC4/CapSense_1.c ****     interruptState = CyEnterCriticalSection();
 1082              		.loc 1 1043 0
 1083 0026 1123     		mov	r3, #17
 1084 0028 FC18     		add	r4, r7, r3
 1085 002a FFF7FEFF 		bl	CyEnterCriticalSection
 1086 002e 031C     		mov	r3, r0
 1087 0030 2370     		strb	r3, [r4]
1044:Generated_Source\PSoC4/CapSense_1.c **** 
1045:Generated_Source\PSoC4/CapSense_1.c ****     newRegisterValue = *CapSense_1_prtSelTbl[port];
 1088              		.loc 1 1045 0
 1089 0032 1D4B     		ldr	r3, .L64
 1090 0034 7A69     		ldr	r2, [r7, #20]
 1091 0036 9200     		lsl	r2, r2, #2
 1092 0038 D358     		ldr	r3, [r2, r3]
 1093 003a 1B68     		ldr	r3, [r3]
 1094 003c FB60     		str	r3, [r7, #12]
1046:Generated_Source\PSoC4/CapSense_1.c ****     newRegisterValue &= ~(CapSense_1_CSD_HSIOM_MASK << pinHSIOMShift);
 1095              		.loc 1 1046 0
 1096 003e 1223     		mov	r3, #18
 1097 0040 FB18     		add	r3, r7, r3
 1098 0042 1B78     		ldrb	r3, [r3]
 1099 0044 0F22     		mov	r2, #15
 1100 0046 9A40     		lsl	r2, r2, r3
 1101 0048 131C     		mov	r3, r2
 1102 004a DA43     		mvn	r2, r3
 1103 004c FB68     		ldr	r3, [r7, #12]
 1104 004e 1340     		and	r3, r2
 1105 0050 FB60     		str	r3, [r7, #12]
1047:Generated_Source\PSoC4/CapSense_1.c ****     newRegisterValue |= (uint32)((uint32)CapSense_1_CSD_SENSE_PORT_MODE << pinHSIOMShift);
 1106              		.loc 1 1047 0
 1107 0052 1223     		mov	r3, #18
 1108 0054 FB18     		add	r3, r7, r3
 1109 0056 1B78     		ldrb	r3, [r3]
 1110 0058 0422     		mov	r2, #4
 1111 005a 9A40     		lsl	r2, r2, r3
ARM GAS  C:\Users\IGOR~1.HOL\AppData\Local\Temp\ccdi3Ihk.s 			page 39


 1112 005c 131C     		mov	r3, r2
 1113 005e FA68     		ldr	r2, [r7, #12]
 1114 0060 1343     		orr	r3, r2
 1115 0062 FB60     		str	r3, [r7, #12]
1048:Generated_Source\PSoC4/CapSense_1.c **** 
1049:Generated_Source\PSoC4/CapSense_1.c ****     *CapSense_1_prtCfgTbl[port] &= (uint32)~((uint32)CapSense_1_CSD_PIN_MODE_MASK << pinModeShift);
 1116              		.loc 1 1049 0
 1117 0064 114B     		ldr	r3, .L64+4
 1118 0066 7A69     		ldr	r2, [r7, #20]
 1119 0068 9200     		lsl	r2, r2, #2
 1120 006a D358     		ldr	r3, [r2, r3]
 1121 006c 0F4A     		ldr	r2, .L64+4
 1122 006e 7969     		ldr	r1, [r7, #20]
 1123 0070 8900     		lsl	r1, r1, #2
 1124 0072 8A58     		ldr	r2, [r1, r2]
 1125 0074 1268     		ldr	r2, [r2]
 1126 0076 1321     		mov	r1, #19
 1127 0078 7918     		add	r1, r7, r1
 1128 007a 0978     		ldrb	r1, [r1]
 1129 007c 0720     		mov	r0, #7
 1130 007e 8840     		lsl	r0, r0, r1
 1131 0080 011C     		mov	r1, r0
 1132 0082 C943     		mvn	r1, r1
 1133 0084 0A40     		and	r2, r1
 1134 0086 1A60     		str	r2, [r3]
1050:Generated_Source\PSoC4/CapSense_1.c ****     *CapSense_1_prtSelTbl[port] = newRegisterValue;
 1135              		.loc 1 1050 0
 1136 0088 074B     		ldr	r3, .L64
 1137 008a 7A69     		ldr	r2, [r7, #20]
 1138 008c 9200     		lsl	r2, r2, #2
 1139 008e D358     		ldr	r3, [r2, r3]
 1140 0090 FA68     		ldr	r2, [r7, #12]
 1141 0092 1A60     		str	r2, [r3]
1051:Generated_Source\PSoC4/CapSense_1.c **** 
1052:Generated_Source\PSoC4/CapSense_1.c ****     CyExitCriticalSection(interruptState);
 1142              		.loc 1 1052 0
 1143 0094 1123     		mov	r3, #17
 1144 0096 FB18     		add	r3, r7, r3
 1145 0098 1B78     		ldrb	r3, [r3]
 1146 009a 181C     		mov	r0, r3
 1147 009c FFF7FEFF 		bl	CyExitCriticalSection
1053:Generated_Source\PSoC4/CapSense_1.c **** }
 1148              		.loc 1 1053 0
 1149 00a0 BD46     		mov	sp, r7
 1150 00a2 07B0     		add	sp, sp, #28
 1151              		@ sp needed
 1152 00a4 90BD     		pop	{r4, r7, pc}
 1153              	.L65:
 1154 00a6 C046     		.align	2
 1155              	.L64:
 1156 00a8 00000000 		.word	CapSense_1_prtSelTbl
 1157 00ac 00000000 		.word	CapSense_1_prtCfgTbl
 1158              		.cfi_endproc
 1159              	.LFE50:
 1160              		.size	CapSense_1_EnableSensor, .-CapSense_1_EnableSensor
 1161              		.section	.text.CapSense_1_DisableSensor,"ax",%progbits
 1162              		.align	2
ARM GAS  C:\Users\IGOR~1.HOL\AppData\Local\Temp\ccdi3Ihk.s 			page 40


 1163              		.global	CapSense_1_DisableSensor
 1164              		.code	16
 1165              		.thumb_func
 1166              		.type	CapSense_1_DisableSensor, %function
 1167              	CapSense_1_DisableSensor:
 1168              	.LFB51:
1054:Generated_Source\PSoC4/CapSense_1.c **** 
1055:Generated_Source\PSoC4/CapSense_1.c **** 
1056:Generated_Source\PSoC4/CapSense_1.c **** /*******************************************************************************
1057:Generated_Source\PSoC4/CapSense_1.c **** * Function Name: CapSense_1_DisableSensor
1058:Generated_Source\PSoC4/CapSense_1.c **** ********************************************************************************
1059:Generated_Source\PSoC4/CapSense_1.c **** *
1060:Generated_Source\PSoC4/CapSense_1.c **** * Summary:
1061:Generated_Source\PSoC4/CapSense_1.c **** *  Disables the selected sensor. The corresponding pin is disconnected from the
1062:Generated_Source\PSoC4/CapSense_1.c **** *  Analog Mux Bus and connected to GND, High_Z or Shield electrode.
1063:Generated_Source\PSoC4/CapSense_1.c **** *
1064:Generated_Source\PSoC4/CapSense_1.c **** * Parameters:
1065:Generated_Source\PSoC4/CapSense_1.c **** *  sensor:  Sensor number
1066:Generated_Source\PSoC4/CapSense_1.c **** *
1067:Generated_Source\PSoC4/CapSense_1.c **** * Return:
1068:Generated_Source\PSoC4/CapSense_1.c **** *  None
1069:Generated_Source\PSoC4/CapSense_1.c **** *
1070:Generated_Source\PSoC4/CapSense_1.c **** * Global Variables:
1071:Generated_Source\PSoC4/CapSense_1.c **** *  CapSense_1_portTable[] - used to store the port number that pin
1072:Generated_Source\PSoC4/CapSense_1.c **** *  belongs to for each sensor.
1073:Generated_Source\PSoC4/CapSense_1.c **** *  CapSense_1_pinShiftTbl[] - used to store position of pin that
1074:Generated_Source\PSoC4/CapSense_1.c **** *  configured as a sensor in the port.
1075:Generated_Source\PSoC4/CapSense_1.c **** *  CapSense_1_prtSelTbl[] - Contains pointers to the HSIOM
1076:Generated_Source\PSoC4/CapSense_1.c **** *  registers for each port.
1077:Generated_Source\PSoC4/CapSense_1.c **** *  CapSense_1_PrtCfgTb[] - Contains pointers to the port config
1078:Generated_Source\PSoC4/CapSense_1.c **** *  registers for each port.
1079:Generated_Source\PSoC4/CapSense_1.c **** *
1080:Generated_Source\PSoC4/CapSense_1.c **** * Side Effects:
1081:Generated_Source\PSoC4/CapSense_1.c **** *  None
1082:Generated_Source\PSoC4/CapSense_1.c **** *
1083:Generated_Source\PSoC4/CapSense_1.c **** *******************************************************************************/
1084:Generated_Source\PSoC4/CapSense_1.c **** void CapSense_1_DisableSensor(uint32 sensor)
1085:Generated_Source\PSoC4/CapSense_1.c **** {
 1169              		.loc 1 1085 0
 1170              		.cfi_startproc
 1171 0000 90B5     		push	{r4, r7, lr}
 1172              		.cfi_def_cfa_offset 12
 1173              		.cfi_offset 4, -12
 1174              		.cfi_offset 7, -8
 1175              		.cfi_offset 14, -4
 1176 0002 89B0     		sub	sp, sp, #36
 1177              		.cfi_def_cfa_offset 48
 1178 0004 00AF     		add	r7, sp, #0
 1179              		.cfi_def_cfa_register 7
 1180 0006 7860     		str	r0, [r7, #4]
1086:Generated_Source\PSoC4/CapSense_1.c ****     uint8 interruptState;
1087:Generated_Source\PSoC4/CapSense_1.c ****     uint32 newRegisterValue;
1088:Generated_Source\PSoC4/CapSense_1.c **** 
1089:Generated_Source\PSoC4/CapSense_1.c ****     uint32 port = (uint32) CapSense_1_portTable[sensor];
 1181              		.loc 1 1089 0
 1182 0008 0023     		mov	r3, #0
 1183 000a 7B61     		str	r3, [r7, #20]
ARM GAS  C:\Users\IGOR~1.HOL\AppData\Local\Temp\ccdi3Ihk.s 			page 41


1090:Generated_Source\PSoC4/CapSense_1.c ****     uint8  pinHSIOMShift = CapSense_1_pinShiftTbl[sensor] * CapSense_1_HSIOM_PIN_CFG_SIZE;
 1184              		.loc 1 1090 0
 1185 000c 0022     		mov	r2, #0
 1186 000e 1323     		mov	r3, #19
 1187 0010 FB18     		add	r3, r7, r3
 1188 0012 9200     		lsl	r2, r2, #2
 1189 0014 1A70     		strb	r2, [r3]
1091:Generated_Source\PSoC4/CapSense_1.c ****     uint8  pinModeShift = CapSense_1_pinShiftTbl[sensor]  * CapSense_1_PC_PIN_CFG_SIZE;
 1190              		.loc 1 1091 0
 1191 0016 0023     		mov	r3, #0
 1192 0018 1222     		mov	r2, #18
 1193 001a BA18     		add	r2, r7, r2
 1194 001c 191C     		add	r1, r3, #0
 1195 001e 0B1C     		add	r3, r1, #0
 1196 0020 DB18     		add	r3, r3, r3
 1197 0022 5B18     		add	r3, r3, r1
 1198 0024 1370     		strb	r3, [r2]
1092:Generated_Source\PSoC4/CapSense_1.c **** 
1093:Generated_Source\PSoC4/CapSense_1.c ****     uint32 inactiveConnect = CapSense_1_SNS_HIZANALOG_CONNECT;
 1199              		.loc 1 1093 0
 1200 0026 0023     		mov	r3, #0
 1201 0028 FB61     		str	r3, [r7, #28]
1094:Generated_Source\PSoC4/CapSense_1.c ****     uint32 sensorState = CapSense_1_unscannedSnsDriveMode[sensor];
 1202              		.loc 1 1094 0
 1203 002a 2F4A     		ldr	r2, .L69
 1204 002c 7B68     		ldr	r3, [r7, #4]
 1205 002e D318     		add	r3, r2, r3
 1206 0030 1B78     		ldrb	r3, [r3]
 1207 0032 BB61     		str	r3, [r7, #24]
1095:Generated_Source\PSoC4/CapSense_1.c **** 
1096:Generated_Source\PSoC4/CapSense_1.c ****     *CapSense_1_prtSelTbl[port] &= ~(CapSense_1_CSD_HSIOM_MASK << pinHSIOMShift);
 1208              		.loc 1 1096 0
 1209 0034 2D4B     		ldr	r3, .L69+4
 1210 0036 7A69     		ldr	r2, [r7, #20]
 1211 0038 9200     		lsl	r2, r2, #2
 1212 003a D358     		ldr	r3, [r2, r3]
 1213 003c 2B4A     		ldr	r2, .L69+4
 1214 003e 7969     		ldr	r1, [r7, #20]
 1215 0040 8900     		lsl	r1, r1, #2
 1216 0042 8A58     		ldr	r2, [r1, r2]
 1217 0044 1268     		ldr	r2, [r2]
 1218 0046 1321     		mov	r1, #19
 1219 0048 7918     		add	r1, r7, r1
 1220 004a 0978     		ldrb	r1, [r1]
 1221 004c 0F20     		mov	r0, #15
 1222 004e 8840     		lsl	r0, r0, r1
 1223 0050 011C     		mov	r1, r0
 1224 0052 C943     		mvn	r1, r1
 1225 0054 0A40     		and	r2, r1
 1226 0056 1A60     		str	r2, [r3]
1097:Generated_Source\PSoC4/CapSense_1.c **** 
1098:Generated_Source\PSoC4/CapSense_1.c ****     #if(CapSense_1_IS_SHIELD_ENABLE != 0)
1099:Generated_Source\PSoC4/CapSense_1.c ****     if(sensorState != (uint32)CapSense_1__SHIELD)
1100:Generated_Source\PSoC4/CapSense_1.c ****     {
1101:Generated_Source\PSoC4/CapSense_1.c ****     #else
1102:Generated_Source\PSoC4/CapSense_1.c ****         /* Connected to Ground if shield is disabled */
1103:Generated_Source\PSoC4/CapSense_1.c ****         if(sensorState == (uint32)CapSense_1__SHIELD)
ARM GAS  C:\Users\IGOR~1.HOL\AppData\Local\Temp\ccdi3Ihk.s 			page 42


 1227              		.loc 1 1103 0
 1228 0058 BB69     		ldr	r3, [r7, #24]
 1229 005a 022B     		cmp	r3, #2
 1230 005c 01D1     		bne	.L67
1104:Generated_Source\PSoC4/CapSense_1.c ****         {
1105:Generated_Source\PSoC4/CapSense_1.c ****             sensorState = (uint32)CapSense_1__GROUND;
 1231              		.loc 1 1105 0
 1232 005e 0023     		mov	r3, #0
 1233 0060 BB61     		str	r3, [r7, #24]
 1234              	.L67:
1106:Generated_Source\PSoC4/CapSense_1.c ****         }
1107:Generated_Source\PSoC4/CapSense_1.c ****     #endif /* (CapSense_1_IS_SHIELD_ENABLE) */
1108:Generated_Source\PSoC4/CapSense_1.c ****         if(sensorState != (uint32)CapSense_1__HIZ_ANALOG)
 1235              		.loc 1 1108 0
 1236 0062 BB69     		ldr	r3, [r7, #24]
 1237 0064 012B     		cmp	r3, #1
 1238 0066 01D0     		beq	.L68
1109:Generated_Source\PSoC4/CapSense_1.c ****         {
1110:Generated_Source\PSoC4/CapSense_1.c ****             /* Connected to Ground */
1111:Generated_Source\PSoC4/CapSense_1.c ****             inactiveConnect = (uint32)CapSense_1_SNS_GROUND_CONNECT;
 1239              		.loc 1 1111 0
 1240 0068 0623     		mov	r3, #6
 1241 006a FB61     		str	r3, [r7, #28]
 1242              	.L68:
1112:Generated_Source\PSoC4/CapSense_1.c ****         }
1113:Generated_Source\PSoC4/CapSense_1.c **** 
1114:Generated_Source\PSoC4/CapSense_1.c ****         interruptState = CyEnterCriticalSection();
 1243              		.loc 1 1114 0
 1244 006c 1123     		mov	r3, #17
 1245 006e FC18     		add	r4, r7, r3
 1246 0070 FFF7FEFF 		bl	CyEnterCriticalSection
 1247 0074 031C     		mov	r3, r0
 1248 0076 2370     		strb	r3, [r4]
1115:Generated_Source\PSoC4/CapSense_1.c **** 
1116:Generated_Source\PSoC4/CapSense_1.c ****         /* Set drive mode */
1117:Generated_Source\PSoC4/CapSense_1.c ****         newRegisterValue = *CapSense_1_prtCfgTbl[port];
 1249              		.loc 1 1117 0
 1250 0078 1D4B     		ldr	r3, .L69+8
 1251 007a 7A69     		ldr	r2, [r7, #20]
 1252 007c 9200     		lsl	r2, r2, #2
 1253 007e D358     		ldr	r3, [r2, r3]
 1254 0080 1B68     		ldr	r3, [r3]
 1255 0082 FB60     		str	r3, [r7, #12]
1118:Generated_Source\PSoC4/CapSense_1.c ****         newRegisterValue &= ~(CapSense_1_CSD_PIN_MODE_MASK << pinModeShift);
 1256              		.loc 1 1118 0
 1257 0084 1223     		mov	r3, #18
 1258 0086 FB18     		add	r3, r7, r3
 1259 0088 1B78     		ldrb	r3, [r3]
 1260 008a 0722     		mov	r2, #7
 1261 008c 9A40     		lsl	r2, r2, r3
 1262 008e 131C     		mov	r3, r2
 1263 0090 DA43     		mvn	r2, r3
 1264 0092 FB68     		ldr	r3, [r7, #12]
 1265 0094 1340     		and	r3, r2
 1266 0096 FB60     		str	r3, [r7, #12]
1119:Generated_Source\PSoC4/CapSense_1.c ****         newRegisterValue |=  (uint32)(inactiveConnect << pinModeShift);
 1267              		.loc 1 1119 0
ARM GAS  C:\Users\IGOR~1.HOL\AppData\Local\Temp\ccdi3Ihk.s 			page 43


 1268 0098 1223     		mov	r3, #18
 1269 009a FB18     		add	r3, r7, r3
 1270 009c 1B78     		ldrb	r3, [r3]
 1271 009e FA69     		ldr	r2, [r7, #28]
 1272 00a0 9A40     		lsl	r2, r2, r3
 1273 00a2 131C     		mov	r3, r2
 1274 00a4 FA68     		ldr	r2, [r7, #12]
 1275 00a6 1343     		orr	r3, r2
 1276 00a8 FB60     		str	r3, [r7, #12]
1120:Generated_Source\PSoC4/CapSense_1.c ****         *CapSense_1_prtCfgTbl[port] =  newRegisterValue;
 1277              		.loc 1 1120 0
 1278 00aa 114B     		ldr	r3, .L69+8
 1279 00ac 7A69     		ldr	r2, [r7, #20]
 1280 00ae 9200     		lsl	r2, r2, #2
 1281 00b0 D358     		ldr	r3, [r2, r3]
 1282 00b2 FA68     		ldr	r2, [r7, #12]
 1283 00b4 1A60     		str	r2, [r3]
1121:Generated_Source\PSoC4/CapSense_1.c **** 
1122:Generated_Source\PSoC4/CapSense_1.c ****         CyExitCriticalSection(interruptState);
 1284              		.loc 1 1122 0
 1285 00b6 1123     		mov	r3, #17
 1286 00b8 FB18     		add	r3, r7, r3
 1287 00ba 1B78     		ldrb	r3, [r3]
 1288 00bc 181C     		mov	r0, r3
 1289 00be FFF7FEFF 		bl	CyExitCriticalSection
1123:Generated_Source\PSoC4/CapSense_1.c **** 
1124:Generated_Source\PSoC4/CapSense_1.c ****         *CapSense_1_prtDRTbl[port]  &=  (uint32)~(uint32)((uint32)1u << CapSense_1_pinShiftTbl[sens
 1290              		.loc 1 1124 0
 1291 00c2 0C4B     		ldr	r3, .L69+12
 1292 00c4 7A69     		ldr	r2, [r7, #20]
 1293 00c6 9200     		lsl	r2, r2, #2
 1294 00c8 D358     		ldr	r3, [r2, r3]
 1295 00ca 0A4A     		ldr	r2, .L69+12
 1296 00cc 7969     		ldr	r1, [r7, #20]
 1297 00ce 8900     		lsl	r1, r1, #2
 1298 00d0 8A58     		ldr	r2, [r1, r2]
 1299 00d2 1268     		ldr	r2, [r2]
 1300 00d4 0021     		mov	r1, #0
 1301 00d6 081C     		mov	r0, r1
 1302 00d8 0121     		mov	r1, #1
 1303 00da 8140     		lsl	r1, r1, r0
 1304 00dc C943     		mvn	r1, r1
 1305 00de 0A40     		and	r2, r1
 1306 00e0 1A60     		str	r2, [r3]
1125:Generated_Source\PSoC4/CapSense_1.c ****     #if(CapSense_1_IS_SHIELD_ENABLE != 0)
1126:Generated_Source\PSoC4/CapSense_1.c ****     }
1127:Generated_Source\PSoC4/CapSense_1.c ****     else
1128:Generated_Source\PSoC4/CapSense_1.c ****     {
1129:Generated_Source\PSoC4/CapSense_1.c ****         /* Connect to Shield */
1130:Generated_Source\PSoC4/CapSense_1.c ****         *CapSense_1_prtSelTbl[port] |= (CapSense_1_CSD_SHIELD_PORT_MODE << pinHSIOMShift);
1131:Generated_Source\PSoC4/CapSense_1.c ****     }
1132:Generated_Source\PSoC4/CapSense_1.c ****     #endif /* (CapSense_1_IS_SHIELD_ENABLE) */
1133:Generated_Source\PSoC4/CapSense_1.c **** }
 1307              		.loc 1 1133 0
 1308 00e2 BD46     		mov	sp, r7
 1309 00e4 09B0     		add	sp, sp, #36
 1310              		@ sp needed
ARM GAS  C:\Users\IGOR~1.HOL\AppData\Local\Temp\ccdi3Ihk.s 			page 44


 1311 00e6 90BD     		pop	{r4, r7, pc}
 1312              	.L70:
 1313              		.align	2
 1314              	.L69:
 1315 00e8 00000000 		.word	CapSense_1_unscannedSnsDriveMode
 1316 00ec 00000000 		.word	CapSense_1_prtSelTbl
 1317 00f0 00000000 		.word	CapSense_1_prtCfgTbl
 1318 00f4 00000000 		.word	CapSense_1_prtDRTbl
 1319              		.cfi_endproc
 1320              	.LFE51:
 1321              		.size	CapSense_1_DisableSensor, .-CapSense_1_DisableSensor
 1322              		.section	.text.CapSense_1_SetDriveModeAllPins,"ax",%progbits
 1323              		.align	2
 1324              		.global	CapSense_1_SetDriveModeAllPins
 1325              		.code	16
 1326              		.thumb_func
 1327              		.type	CapSense_1_SetDriveModeAllPins, %function
 1328              	CapSense_1_SetDriveModeAllPins:
 1329              	.LFB52:
1134:Generated_Source\PSoC4/CapSense_1.c **** 
1135:Generated_Source\PSoC4/CapSense_1.c **** 
1136:Generated_Source\PSoC4/CapSense_1.c **** /*******************************************************************************
1137:Generated_Source\PSoC4/CapSense_1.c **** * Function Name: CapSense_1_SetDriveModeAllPins
1138:Generated_Source\PSoC4/CapSense_1.c **** ********************************************************************************
1139:Generated_Source\PSoC4/CapSense_1.c **** *
1140:Generated_Source\PSoC4/CapSense_1.c **** * Summary:
1141:Generated_Source\PSoC4/CapSense_1.c **** * This API sets the drive mode of port pins used by the CapSense
1142:Generated_Source\PSoC4/CapSense_1.c **** * component (sensors, guard, shield, shield tank and Cmod) to drive the
1143:Generated_Source\PSoC4/CapSense_1.c **** * mode specified by the argument.
1144:Generated_Source\PSoC4/CapSense_1.c **** *
1145:Generated_Source\PSoC4/CapSense_1.c **** * Parameters:
1146:Generated_Source\PSoC4/CapSense_1.c **** *  driveMode:  Drive mode definition.
1147:Generated_Source\PSoC4/CapSense_1.c **** *
1148:Generated_Source\PSoC4/CapSense_1.c **** * Return:
1149:Generated_Source\PSoC4/CapSense_1.c **** *  None
1150:Generated_Source\PSoC4/CapSense_1.c **** *
1151:Generated_Source\PSoC4/CapSense_1.c **** * Global Variables:
1152:Generated_Source\PSoC4/CapSense_1.c **** *  CapSense_1_portTable[] - used to store the port number that pin
1153:Generated_Source\PSoC4/CapSense_1.c **** *  belongs to for each sensor.
1154:Generated_Source\PSoC4/CapSense_1.c **** *  CapSense_1_pinShiftTbl[] - used to store position of pin that
1155:Generated_Source\PSoC4/CapSense_1.c **** *  configured as a sensor in the port.
1156:Generated_Source\PSoC4/CapSense_1.c **** *
1157:Generated_Source\PSoC4/CapSense_1.c **** * Side Effects:
1158:Generated_Source\PSoC4/CapSense_1.c **** *  This API shall be called only after CapSense component is stopped.
1159:Generated_Source\PSoC4/CapSense_1.c **** *
1160:Generated_Source\PSoC4/CapSense_1.c **** *******************************************************************************/
1161:Generated_Source\PSoC4/CapSense_1.c **** void CapSense_1_SetDriveModeAllPins(uint32 driveMode)
1162:Generated_Source\PSoC4/CapSense_1.c **** {
 1330              		.loc 1 1162 0
 1331              		.cfi_startproc
 1332 0000 80B5     		push	{r7, lr}
 1333              		.cfi_def_cfa_offset 8
 1334              		.cfi_offset 7, -8
 1335              		.cfi_offset 14, -4
 1336 0002 86B0     		sub	sp, sp, #24
 1337              		.cfi_def_cfa_offset 32
 1338 0004 00AF     		add	r7, sp, #0
ARM GAS  C:\Users\IGOR~1.HOL\AppData\Local\Temp\ccdi3Ihk.s 			page 45


 1339              		.cfi_def_cfa_register 7
 1340 0006 7860     		str	r0, [r7, #4]
1163:Generated_Source\PSoC4/CapSense_1.c ****     uint8 curSensor;
1164:Generated_Source\PSoC4/CapSense_1.c ****     #if (CapSense_1_IS_COMPLEX_SCANSLOTS)
1165:Generated_Source\PSoC4/CapSense_1.c ****         uint8 snsNumber;
1166:Generated_Source\PSoC4/CapSense_1.c ****         uint8 snsType;
1167:Generated_Source\PSoC4/CapSense_1.c ****     #endif  /* CapSense_1_IS_COMPLEX_SCANSLOTS */
1168:Generated_Source\PSoC4/CapSense_1.c ****     uint32 prtNumberTmp;
1169:Generated_Source\PSoC4/CapSense_1.c ****     uint32 pinNumberTmp;
1170:Generated_Source\PSoC4/CapSense_1.c **** 
1171:Generated_Source\PSoC4/CapSense_1.c ****     for(curSensor = 0u; curSensor < CapSense_1_TOTAL_SENSOR_COUNT; curSensor++)
 1341              		.loc 1 1171 0
 1342 0008 1723     		mov	r3, #23
 1343 000a FB18     		add	r3, r7, r3
 1344 000c 0022     		mov	r2, #0
 1345 000e 1A70     		strb	r2, [r3]
 1346 0010 12E0     		b	.L72
 1347              	.L73:
1172:Generated_Source\PSoC4/CapSense_1.c ****     {
1173:Generated_Source\PSoC4/CapSense_1.c ****         #if (CapSense_1_IS_COMPLEX_SCANSLOTS)
1174:Generated_Source\PSoC4/CapSense_1.c ****             /* Read sensor type: single or complex */
1175:Generated_Source\PSoC4/CapSense_1.c ****             snsType = CapSense_1_portTable[curSensor];
1176:Generated_Source\PSoC4/CapSense_1.c **** 
1177:Generated_Source\PSoC4/CapSense_1.c ****             /* Check if sensor is complex */
1178:Generated_Source\PSoC4/CapSense_1.c ****             if ((snsType & CapSense_1_COMPLEX_SS_FLAG) == 0u)
1179:Generated_Source\PSoC4/CapSense_1.c ****             {
1180:Generated_Source\PSoC4/CapSense_1.c ****                 /* The sensor is not complex */
1181:Generated_Source\PSoC4/CapSense_1.c ****                 snsNumber = curSensor;
1182:Generated_Source\PSoC4/CapSense_1.c ****             }
1183:Generated_Source\PSoC4/CapSense_1.c ****             else
1184:Generated_Source\PSoC4/CapSense_1.c ****             {
1185:Generated_Source\PSoC4/CapSense_1.c ****                 /* Get dedicated sensor ID of the complex sensor */
1186:Generated_Source\PSoC4/CapSense_1.c ****                 snsType &= ~CapSense_1_COMPLEX_SS_FLAG;
1187:Generated_Source\PSoC4/CapSense_1.c ****                 snsNumber = CapSense_1_indexTable[snsType];
1188:Generated_Source\PSoC4/CapSense_1.c ****             }
1189:Generated_Source\PSoC4/CapSense_1.c **** 
1190:Generated_Source\PSoC4/CapSense_1.c ****             prtNumberTmp = CapSense_1_portTable[snsNumber];
1191:Generated_Source\PSoC4/CapSense_1.c ****             pinNumberTmp = CapSense_1_pinShiftTbl[snsNumber];
1192:Generated_Source\PSoC4/CapSense_1.c ****         #else
1193:Generated_Source\PSoC4/CapSense_1.c ****             prtNumberTmp = CapSense_1_portTable[curSensor];
 1348              		.loc 1 1193 0 discriminator 3
 1349 0012 0023     		mov	r3, #0
 1350 0014 3B61     		str	r3, [r7, #16]
1194:Generated_Source\PSoC4/CapSense_1.c ****             pinNumberTmp = CapSense_1_pinShiftTbl[curSensor];
 1351              		.loc 1 1194 0 discriminator 3
 1352 0016 0023     		mov	r3, #0
 1353 0018 FB60     		str	r3, [r7, #12]
1195:Generated_Source\PSoC4/CapSense_1.c ****         #endif  /* CapSense_1_IS_COMPLEX_SCANSLOTS */
1196:Generated_Source\PSoC4/CapSense_1.c **** 
1197:Generated_Source\PSoC4/CapSense_1.c ****         CapSense_1_SetPinDriveMode(driveMode, pinNumberTmp, prtNumberTmp);
 1354              		.loc 1 1197 0 discriminator 3
 1355 001a 7968     		ldr	r1, [r7, #4]
 1356 001c FA68     		ldr	r2, [r7, #12]
 1357 001e 3B69     		ldr	r3, [r7, #16]
 1358 0020 081C     		mov	r0, r1
 1359 0022 111C     		mov	r1, r2
 1360 0024 1A1C     		mov	r2, r3
ARM GAS  C:\Users\IGOR~1.HOL\AppData\Local\Temp\ccdi3Ihk.s 			page 46


 1361 0026 FFF7FEFF 		bl	CapSense_1_SetPinDriveMode
1171:Generated_Source\PSoC4/CapSense_1.c ****     {
 1362              		.loc 1 1171 0 discriminator 3
 1363 002a 1723     		mov	r3, #23
 1364 002c FB18     		add	r3, r7, r3
 1365 002e 1A78     		ldrb	r2, [r3]
 1366 0030 1723     		mov	r3, #23
 1367 0032 FB18     		add	r3, r7, r3
 1368 0034 0132     		add	r2, r2, #1
 1369 0036 1A70     		strb	r2, [r3]
 1370              	.L72:
1171:Generated_Source\PSoC4/CapSense_1.c ****     {
 1371              		.loc 1 1171 0 is_stmt 0 discriminator 1
 1372 0038 1723     		mov	r3, #23
 1373 003a FB18     		add	r3, r7, r3
 1374 003c 1B78     		ldrb	r3, [r3]
 1375 003e 002B     		cmp	r3, #0
 1376 0040 E7D0     		beq	.L73
1198:Generated_Source\PSoC4/CapSense_1.c ****     }
1199:Generated_Source\PSoC4/CapSense_1.c **** 
1200:Generated_Source\PSoC4/CapSense_1.c ****     CapSense_1_SetPinDriveMode(driveMode, (uint32)CapSense_1_CMOD_PIN_NUMBER, (uint32)CapSense_1_CM
 1377              		.loc 1 1200 0 is_stmt 1
 1378 0042 7B68     		ldr	r3, [r7, #4]
 1379 0044 181C     		mov	r0, r3
 1380 0046 0021     		mov	r1, #0
 1381 0048 0522     		mov	r2, #5
 1382 004a FFF7FEFF 		bl	CapSense_1_SetPinDriveMode
1201:Generated_Source\PSoC4/CapSense_1.c **** 
1202:Generated_Source\PSoC4/CapSense_1.c ****     #if(0u != CapSense_1_CSH_TANK_ENABLE)
1203:Generated_Source\PSoC4/CapSense_1.c ****         CapSense_1_SetPinDriveMode(driveMode, (uint32)CapSense_1_CTANK_PIN_NUMBER, (uint32)CapSense
1204:Generated_Source\PSoC4/CapSense_1.c ****     #endif /* (0u != CapSense_1_CSH_TANK_ENABLE) */
1205:Generated_Source\PSoC4/CapSense_1.c **** 
1206:Generated_Source\PSoC4/CapSense_1.c ****     #if(0u != CapSense_1_IS_SHIELD_ENABLE)
1207:Generated_Source\PSoC4/CapSense_1.c ****         CapSense_1_SetPinDriveMode(driveMode, (uint32)CapSense_1_SHIELD_PIN_NUMBER, (uint32)CapSens
1208:Generated_Source\PSoC4/CapSense_1.c ****     #endif /* (0u != CapSense_1_IS_SHIELD_ENABLE) */
1209:Generated_Source\PSoC4/CapSense_1.c **** }
 1383              		.loc 1 1209 0
 1384 004e BD46     		mov	sp, r7
 1385 0050 06B0     		add	sp, sp, #24
 1386              		@ sp needed
 1387 0052 80BD     		pop	{r7, pc}
 1388              		.cfi_endproc
 1389              	.LFE52:
 1390              		.size	CapSense_1_SetDriveModeAllPins, .-CapSense_1_SetDriveModeAllPins
 1391              		.section	.text.CapSense_1_RestoreDriveModeAllPins,"ax",%progbits
 1392              		.align	2
 1393              		.global	CapSense_1_RestoreDriveModeAllPins
 1394              		.code	16
 1395              		.thumb_func
 1396              		.type	CapSense_1_RestoreDriveModeAllPins, %function
 1397              	CapSense_1_RestoreDriveModeAllPins:
 1398              	.LFB53:
1210:Generated_Source\PSoC4/CapSense_1.c **** 
1211:Generated_Source\PSoC4/CapSense_1.c **** 
1212:Generated_Source\PSoC4/CapSense_1.c **** /*******************************************************************************
1213:Generated_Source\PSoC4/CapSense_1.c **** * Function Name: CapSense_1_RestoreDriveModeAllPins
1214:Generated_Source\PSoC4/CapSense_1.c **** ********************************************************************************
ARM GAS  C:\Users\IGOR~1.HOL\AppData\Local\Temp\ccdi3Ihk.s 			page 47


1215:Generated_Source\PSoC4/CapSense_1.c **** *
1216:Generated_Source\PSoC4/CapSense_1.c **** * Summary:
1217:Generated_Source\PSoC4/CapSense_1.c **** *  This API restores the drive for all the CapSense port pins to the original
1218:Generated_Source\PSoC4/CapSense_1.c **** *  state.
1219:Generated_Source\PSoC4/CapSense_1.c **** *
1220:Generated_Source\PSoC4/CapSense_1.c **** * Parameters:
1221:Generated_Source\PSoC4/CapSense_1.c **** *  None
1222:Generated_Source\PSoC4/CapSense_1.c **** *
1223:Generated_Source\PSoC4/CapSense_1.c **** * Return:
1224:Generated_Source\PSoC4/CapSense_1.c **** *  None
1225:Generated_Source\PSoC4/CapSense_1.c **** *
1226:Generated_Source\PSoC4/CapSense_1.c **** * Global Variables:
1227:Generated_Source\PSoC4/CapSense_1.c **** *  CapSense_1_prtSelTbl[] - Contains pointers to the HSIOM
1228:Generated_Source\PSoC4/CapSense_1.c **** *  registers for each port.
1229:Generated_Source\PSoC4/CapSense_1.c **** *
1230:Generated_Source\PSoC4/CapSense_1.c **** * Side Effects:
1231:Generated_Source\PSoC4/CapSense_1.c **** *  This API is called only after the CapSense component is stopped.
1232:Generated_Source\PSoC4/CapSense_1.c **** *
1233:Generated_Source\PSoC4/CapSense_1.c **** *******************************************************************************/
1234:Generated_Source\PSoC4/CapSense_1.c **** void CapSense_1_RestoreDriveModeAllPins(void)
1235:Generated_Source\PSoC4/CapSense_1.c **** {
 1399              		.loc 1 1235 0
 1400              		.cfi_startproc
 1401 0000 80B5     		push	{r7, lr}
 1402              		.cfi_def_cfa_offset 8
 1403              		.cfi_offset 7, -8
 1404              		.cfi_offset 14, -4
 1405 0002 82B0     		sub	sp, sp, #8
 1406              		.cfi_def_cfa_offset 16
 1407 0004 00AF     		add	r7, sp, #0
 1408              		.cfi_def_cfa_register 7
1236:Generated_Source\PSoC4/CapSense_1.c ****     uint32 newRegisterValue;
1237:Generated_Source\PSoC4/CapSense_1.c **** 
1238:Generated_Source\PSoC4/CapSense_1.c ****     CapSense_1_SetDriveModeAllPins(CY_SYS_PINS_DM_ALG_HIZ);
 1409              		.loc 1 1238 0
 1410 0006 0020     		mov	r0, #0
 1411 0008 FFF7FEFF 		bl	CapSense_1_SetDriveModeAllPins
1239:Generated_Source\PSoC4/CapSense_1.c **** 
1240:Generated_Source\PSoC4/CapSense_1.c ****     newRegisterValue = CapSense_1_CMOD_CONNECTION_REG;
 1412              		.loc 1 1240 0
 1413 000c 084B     		ldr	r3, .L75
 1414 000e 1B68     		ldr	r3, [r3]
 1415 0010 7B60     		str	r3, [r7, #4]
1241:Generated_Source\PSoC4/CapSense_1.c ****     newRegisterValue &= ~(CapSense_1_CSD_CMOD_CONNECTION_MASK);
 1416              		.loc 1 1241 0
 1417 0012 7B68     		ldr	r3, [r7, #4]
 1418 0014 0F22     		mov	r2, #15
 1419 0016 9343     		bic	r3, r2
 1420 0018 7B60     		str	r3, [r7, #4]
1242:Generated_Source\PSoC4/CapSense_1.c ****     newRegisterValue |= CapSense_1_CSD_CMOD_TO_AMUXBUS_A;
 1421              		.loc 1 1242 0
 1422 001a 7B68     		ldr	r3, [r7, #4]
 1423 001c 0622     		mov	r2, #6
 1424 001e 1343     		orr	r3, r2
 1425 0020 7B60     		str	r3, [r7, #4]
1243:Generated_Source\PSoC4/CapSense_1.c ****     CapSense_1_CMOD_CONNECTION_REG = newRegisterValue;
 1426              		.loc 1 1243 0
ARM GAS  C:\Users\IGOR~1.HOL\AppData\Local\Temp\ccdi3Ihk.s 			page 48


 1427 0022 034B     		ldr	r3, .L75
 1428 0024 7A68     		ldr	r2, [r7, #4]
 1429 0026 1A60     		str	r2, [r3]
1244:Generated_Source\PSoC4/CapSense_1.c **** 
1245:Generated_Source\PSoC4/CapSense_1.c ****     #if(0u != CapSense_1_CSH_TANK_ENABLE)
1246:Generated_Source\PSoC4/CapSense_1.c ****         newRegisterValue = CapSense_1_CTANK_CONNECTION_REG;
1247:Generated_Source\PSoC4/CapSense_1.c ****         newRegisterValue &= ~(CapSense_1_CSD_CTANK_CONNECTION_MASK);
1248:Generated_Source\PSoC4/CapSense_1.c ****         newRegisterValue |= CapSense_1_CSD_CTANK_TO_AMUXBUS_B;
1249:Generated_Source\PSoC4/CapSense_1.c ****         CapSense_1_CTANK_CONNECTION_REG = newRegisterValue;
1250:Generated_Source\PSoC4/CapSense_1.c ****     #endif/* (0u != CapSense_1_CSH_TANK_ENABLE) */
1251:Generated_Source\PSoC4/CapSense_1.c **** 
1252:Generated_Source\PSoC4/CapSense_1.c ****     #if(0u != CapSense_1_IS_SHIELD_ENABLE)
1253:Generated_Source\PSoC4/CapSense_1.c ****         newRegisterValue = *CapSense_1_prtSelTbl[CapSense_1_SHIELD_PORT_NUMBER];
1254:Generated_Source\PSoC4/CapSense_1.c ****         newRegisterValue &= ~(CapSense_1_CSD_HSIOM_MASK << ((uint32)CapSense_1_SHIELD_PIN_NUMBER * 
1255:Generated_Source\PSoC4/CapSense_1.c ****         newRegisterValue |= (CapSense_1_CSD_SHIELD_PORT_MODE << ((uint32)CapSense_1_SHIELD_PIN_NUMB
1256:Generated_Source\PSoC4/CapSense_1.c ****         *CapSense_1_prtSelTbl[CapSense_1_SHIELD_PORT_NUMBER] = newRegisterValue;
1257:Generated_Source\PSoC4/CapSense_1.c ****     #endif /* (0u != CapSense_1_IS_SHIELD_ENABLE) */
1258:Generated_Source\PSoC4/CapSense_1.c **** }
 1430              		.loc 1 1258 0
 1431 0028 BD46     		mov	sp, r7
 1432 002a 02B0     		add	sp, sp, #8
 1433              		@ sp needed
 1434 002c 80BD     		pop	{r7, pc}
 1435              	.L76:
 1436 002e C046     		.align	2
 1437              	.L75:
 1438 0030 00050240 		.word	1073874176
 1439              		.cfi_endproc
 1440              	.LFE53:
 1441              		.size	CapSense_1_RestoreDriveModeAllPins, .-CapSense_1_RestoreDriveModeAllPins
 1442              		.section	.text.CapSense_1_SetPinDriveMode,"ax",%progbits
 1443              		.align	2
 1444              		.global	CapSense_1_SetPinDriveMode
 1445              		.code	16
 1446              		.thumb_func
 1447              		.type	CapSense_1_SetPinDriveMode, %function
 1448              	CapSense_1_SetPinDriveMode:
 1449              	.LFB54:
1259:Generated_Source\PSoC4/CapSense_1.c **** 
1260:Generated_Source\PSoC4/CapSense_1.c **** 
1261:Generated_Source\PSoC4/CapSense_1.c **** /*******************************************************************************
1262:Generated_Source\PSoC4/CapSense_1.c **** * Function Name: CapSense_1_SetPinDriveMode
1263:Generated_Source\PSoC4/CapSense_1.c **** ********************************************************************************
1264:Generated_Source\PSoC4/CapSense_1.c **** *
1265:Generated_Source\PSoC4/CapSense_1.c **** * Summary:
1266:Generated_Source\PSoC4/CapSense_1.c **** * This API sets the drive mode for the appropriate port/pin.
1267:Generated_Source\PSoC4/CapSense_1.c **** *
1268:Generated_Source\PSoC4/CapSense_1.c **** * Parameters:
1269:Generated_Source\PSoC4/CapSense_1.c **** *  driveMode:  Drive mode definition.
1270:Generated_Source\PSoC4/CapSense_1.c **** *  portNumber: contains port number (0, 1, 2).
1271:Generated_Source\PSoC4/CapSense_1.c **** *  pinNumber: contains pin number (0, 1, 2, ... , 7).
1272:Generated_Source\PSoC4/CapSense_1.c **** *
1273:Generated_Source\PSoC4/CapSense_1.c **** * Return:
1274:Generated_Source\PSoC4/CapSense_1.c **** *  None
1275:Generated_Source\PSoC4/CapSense_1.c **** *
1276:Generated_Source\PSoC4/CapSense_1.c **** * Global Variables:
1277:Generated_Source\PSoC4/CapSense_1.c **** *  CapSense_1_prtSelTbl[] - Contains pointers to the HSIOM
ARM GAS  C:\Users\IGOR~1.HOL\AppData\Local\Temp\ccdi3Ihk.s 			page 49


1278:Generated_Source\PSoC4/CapSense_1.c **** *  registers for each port.
1279:Generated_Source\PSoC4/CapSense_1.c **** *  CapSense_1_prtCfgTb[] - Contains pointers to the port config
1280:Generated_Source\PSoC4/CapSense_1.c **** *  registers for each port.
1281:Generated_Source\PSoC4/CapSense_1.c **** *
1282:Generated_Source\PSoC4/CapSense_1.c **** * Side Effects:
1283:Generated_Source\PSoC4/CapSense_1.c **** *  This API is called only after CapSense component is stopped.
1284:Generated_Source\PSoC4/CapSense_1.c **** *
1285:Generated_Source\PSoC4/CapSense_1.c **** *******************************************************************************/
1286:Generated_Source\PSoC4/CapSense_1.c **** void CapSense_1_SetPinDriveMode(uint32 driveMode, uint32 pinNumber, uint32 portNumber)
1287:Generated_Source\PSoC4/CapSense_1.c **** {
 1450              		.loc 1 1287 0
 1451              		.cfi_startproc
 1452 0000 80B5     		push	{r7, lr}
 1453              		.cfi_def_cfa_offset 8
 1454              		.cfi_offset 7, -8
 1455              		.cfi_offset 14, -4
 1456 0002 86B0     		sub	sp, sp, #24
 1457              		.cfi_def_cfa_offset 32
 1458 0004 00AF     		add	r7, sp, #0
 1459              		.cfi_def_cfa_register 7
 1460 0006 F860     		str	r0, [r7, #12]
 1461 0008 B960     		str	r1, [r7, #8]
 1462 000a 7A60     		str	r2, [r7, #4]
1288:Generated_Source\PSoC4/CapSense_1.c ****     uint32  pinModeShift;
1289:Generated_Source\PSoC4/CapSense_1.c ****     uint32 newRegisterValue;
1290:Generated_Source\PSoC4/CapSense_1.c **** 
1291:Generated_Source\PSoC4/CapSense_1.c ****     pinModeShift  = pinNumber * CapSense_1_PC_PIN_CFG_SIZE;
 1463              		.loc 1 1291 0
 1464 000c BA68     		ldr	r2, [r7, #8]
 1465 000e 131C     		mov	r3, r2
 1466 0010 5B00     		lsl	r3, r3, #1
 1467 0012 9B18     		add	r3, r3, r2
 1468 0014 7B61     		str	r3, [r7, #20]
1292:Generated_Source\PSoC4/CapSense_1.c **** 
1293:Generated_Source\PSoC4/CapSense_1.c ****     newRegisterValue = *CapSense_1_prtCfgTbl[portNumber];
 1469              		.loc 1 1293 0
 1470 0016 0F4B     		ldr	r3, .L78
 1471 0018 7A68     		ldr	r2, [r7, #4]
 1472 001a 9200     		lsl	r2, r2, #2
 1473 001c D358     		ldr	r3, [r2, r3]
 1474 001e 1B68     		ldr	r3, [r3]
 1475 0020 3B61     		str	r3, [r7, #16]
1294:Generated_Source\PSoC4/CapSense_1.c ****     newRegisterValue &= ~(CapSense_1_CSD_PIN_MODE_MASK << pinModeShift);
 1476              		.loc 1 1294 0
 1477 0022 7B69     		ldr	r3, [r7, #20]
 1478 0024 0722     		mov	r2, #7
 1479 0026 9A40     		lsl	r2, r2, r3
 1480 0028 131C     		mov	r3, r2
 1481 002a DA43     		mvn	r2, r3
 1482 002c 3B69     		ldr	r3, [r7, #16]
 1483 002e 1340     		and	r3, r2
 1484 0030 3B61     		str	r3, [r7, #16]
1295:Generated_Source\PSoC4/CapSense_1.c ****     newRegisterValue |=  (uint32)((uint32)driveMode << pinModeShift);
 1485              		.loc 1 1295 0
 1486 0032 7B69     		ldr	r3, [r7, #20]
 1487 0034 FA68     		ldr	r2, [r7, #12]
 1488 0036 9A40     		lsl	r2, r2, r3
ARM GAS  C:\Users\IGOR~1.HOL\AppData\Local\Temp\ccdi3Ihk.s 			page 50


 1489 0038 131C     		mov	r3, r2
 1490 003a 3A69     		ldr	r2, [r7, #16]
 1491 003c 1343     		orr	r3, r2
 1492 003e 3B61     		str	r3, [r7, #16]
1296:Generated_Source\PSoC4/CapSense_1.c ****     *CapSense_1_prtCfgTbl[portNumber] =  newRegisterValue;
 1493              		.loc 1 1296 0
 1494 0040 044B     		ldr	r3, .L78
 1495 0042 7A68     		ldr	r2, [r7, #4]
 1496 0044 9200     		lsl	r2, r2, #2
 1497 0046 D358     		ldr	r3, [r2, r3]
 1498 0048 3A69     		ldr	r2, [r7, #16]
 1499 004a 1A60     		str	r2, [r3]
1297:Generated_Source\PSoC4/CapSense_1.c **** }
 1500              		.loc 1 1297 0
 1501 004c BD46     		mov	sp, r7
 1502 004e 06B0     		add	sp, sp, #24
 1503              		@ sp needed
 1504 0050 80BD     		pop	{r7, pc}
 1505              	.L79:
 1506 0052 C046     		.align	2
 1507              	.L78:
 1508 0054 00000000 		.word	CapSense_1_prtCfgTbl
 1509              		.cfi_endproc
 1510              	.LFE54:
 1511              		.size	CapSense_1_SetPinDriveMode, .-CapSense_1_SetPinDriveMode
 1512              		.section	.text.CapSense_1_PreScan,"ax",%progbits
 1513              		.align	2
 1514              		.global	CapSense_1_PreScan
 1515              		.code	16
 1516              		.thumb_func
 1517              		.type	CapSense_1_PreScan, %function
 1518              	CapSense_1_PreScan:
 1519              	.LFB55:
1298:Generated_Source\PSoC4/CapSense_1.c **** 
1299:Generated_Source\PSoC4/CapSense_1.c **** 
1300:Generated_Source\PSoC4/CapSense_1.c **** /*******************************************************************************
1301:Generated_Source\PSoC4/CapSense_1.c **** * Function Name: CapSense_1_PreScan
1302:Generated_Source\PSoC4/CapSense_1.c **** ********************************************************************************
1303:Generated_Source\PSoC4/CapSense_1.c **** *
1304:Generated_Source\PSoC4/CapSense_1.c **** * Summary:
1305:Generated_Source\PSoC4/CapSense_1.c **** *  Sets required settings, enables a sensor, removes Vref from AMUX and starts the
1306:Generated_Source\PSoC4/CapSense_1.c **** *  scanning process of the sensor.
1307:Generated_Source\PSoC4/CapSense_1.c **** *
1308:Generated_Source\PSoC4/CapSense_1.c **** * Parameters:
1309:Generated_Source\PSoC4/CapSense_1.c **** *  sensor:  Sensor number.
1310:Generated_Source\PSoC4/CapSense_1.c **** *
1311:Generated_Source\PSoC4/CapSense_1.c **** * Return:
1312:Generated_Source\PSoC4/CapSense_1.c **** *  None
1313:Generated_Source\PSoC4/CapSense_1.c **** *
1314:Generated_Source\PSoC4/CapSense_1.c **** * Global Variables:
1315:Generated_Source\PSoC4/CapSense_1.c **** * CapSense_1_widgetNumber[] - This array contains numbers of widgets for each sensor.
1316:Generated_Source\PSoC4/CapSense_1.c **** * CapSense_1_widgetResolution[] - Contains the widget resolution.
1317:Generated_Source\PSoC4/CapSense_1.c **** *
1318:Generated_Source\PSoC4/CapSense_1.c **** * Side Effects:
1319:Generated_Source\PSoC4/CapSense_1.c **** *  None
1320:Generated_Source\PSoC4/CapSense_1.c **** *
1321:Generated_Source\PSoC4/CapSense_1.c **** *******************************************************************************/
ARM GAS  C:\Users\IGOR~1.HOL\AppData\Local\Temp\ccdi3Ihk.s 			page 51


1322:Generated_Source\PSoC4/CapSense_1.c **** void CapSense_1_PreScan(uint32 sensor)
1323:Generated_Source\PSoC4/CapSense_1.c **** {
 1520              		.loc 1 1323 0
 1521              		.cfi_startproc
 1522 0000 90B5     		push	{r4, r7, lr}
 1523              		.cfi_def_cfa_offset 12
 1524              		.cfi_offset 4, -12
 1525              		.cfi_offset 7, -8
 1526              		.cfi_offset 14, -4
 1527 0002 89B0     		sub	sp, sp, #36
 1528              		.cfi_def_cfa_offset 48
 1529 0004 00AF     		add	r7, sp, #0
 1530              		.cfi_def_cfa_register 7
 1531 0006 7860     		str	r0, [r7, #4]
1324:Generated_Source\PSoC4/CapSense_1.c ****     uint8 widget;
1325:Generated_Source\PSoC4/CapSense_1.c ****     uint8 interruptState;
1326:Generated_Source\PSoC4/CapSense_1.c ****     uint32 newRegValue;
1327:Generated_Source\PSoC4/CapSense_1.c ****     uint32 counterResolution;
1328:Generated_Source\PSoC4/CapSense_1.c **** 
1329:Generated_Source\PSoC4/CapSense_1.c ****     #if(CapSense_1_PRS_OPTIONS == CapSense_1__PRS_AUTO)
1330:Generated_Source\PSoC4/CapSense_1.c ****         uint8 senseClkDivMath;
1331:Generated_Source\PSoC4/CapSense_1.c ****         uint8 sampleClkDivMath;
1332:Generated_Source\PSoC4/CapSense_1.c ****     #endif /* (CapSense_1_PRS_OPTIONS == CapSense_1__PRS_AUTO) */
1333:Generated_Source\PSoC4/CapSense_1.c **** 
1334:Generated_Source\PSoC4/CapSense_1.c ****     #if ((CapSense_1_TUNING_METHOD == CapSense_1__TUNING_AUTO) &&\
1335:Generated_Source\PSoC4/CapSense_1.c ****          (0 != CapSense_1_IS_OVERSAMPLING_EN))
1336:Generated_Source\PSoC4/CapSense_1.c ****         uint32 oversamplingFactor;
1337:Generated_Source\PSoC4/CapSense_1.c ****     #endif /* ((CapSense_1_TUNING_METHOD == CapSense_1__TUNING_AUTO) &&\
1338:Generated_Source\PSoC4/CapSense_1.c ****                (0 != CapSense_1_IS_OVERSAMPLING_EN)) */
1339:Generated_Source\PSoC4/CapSense_1.c **** 
1340:Generated_Source\PSoC4/CapSense_1.c ****     /* Define widget sensor belongs to */
1341:Generated_Source\PSoC4/CapSense_1.c ****     widget = CapSense_1_widgetNumber[sensor];
 1532              		.loc 1 1341 0
 1533 0008 1B23     		mov	r3, #27
 1534 000a FB18     		add	r3, r7, r3
 1535 000c 0022     		mov	r2, #0
 1536 000e 1A70     		strb	r2, [r3]
1342:Generated_Source\PSoC4/CapSense_1.c **** 
1343:Generated_Source\PSoC4/CapSense_1.c ****     /* Recalculate Counter Resolution to MSB 16 bits */
1344:Generated_Source\PSoC4/CapSense_1.c ****     counterResolution = CapSense_1_widgetResolution[widget];
 1537              		.loc 1 1344 0
 1538 0010 1B23     		mov	r3, #27
 1539 0012 FB18     		add	r3, r7, r3
 1540 0014 1A78     		ldrb	r2, [r3]
 1541 0016 4A4B     		ldr	r3, .L83
 1542 0018 9200     		lsl	r2, r2, #2
 1543 001a D358     		ldr	r3, [r2, r3]
 1544 001c FB61     		str	r3, [r7, #28]
1345:Generated_Source\PSoC4/CapSense_1.c **** 
1346:Generated_Source\PSoC4/CapSense_1.c ****     #if ((CapSense_1_TUNING_METHOD == CapSense_1__TUNING_AUTO) &&\
1347:Generated_Source\PSoC4/CapSense_1.c ****          (0 != CapSense_1_IS_OVERSAMPLING_EN))
1348:Generated_Source\PSoC4/CapSense_1.c ****         oversamplingFactor = CapSense_1_GetBitValue(CapSense_1_scanSpeedTbl, sensor);
 1545              		.loc 1 1348 0
 1546 001e 494A     		ldr	r2, .L83+4
 1547 0020 7B68     		ldr	r3, [r7, #4]
 1548 0022 101C     		mov	r0, r2
 1549 0024 191C     		mov	r1, r3
ARM GAS  C:\Users\IGOR~1.HOL\AppData\Local\Temp\ccdi3Ihk.s 			page 52


 1550 0026 FFF7FEFF 		bl	CapSense_1_GetBitValue
 1551 002a 031C     		mov	r3, r0
 1552 002c 7B61     		str	r3, [r7, #20]
1349:Generated_Source\PSoC4/CapSense_1.c **** 
1350:Generated_Source\PSoC4/CapSense_1.c ****         if(counterResolution < CapSense_1_RESOLUTION_16_BITS)
 1553              		.loc 1 1350 0
 1554 002e FB69     		ldr	r3, [r7, #28]
 1555 0030 454A     		ldr	r2, .L83+8
 1556 0032 9342     		cmp	r3, r2
 1557 0034 09D8     		bhi	.L81
1351:Generated_Source\PSoC4/CapSense_1.c ****         {
1352:Generated_Source\PSoC4/CapSense_1.c ****             counterResolution <<= oversamplingFactor;
 1558              		.loc 1 1352 0
 1559 0036 7B69     		ldr	r3, [r7, #20]
 1560 0038 FA69     		ldr	r2, [r7, #28]
 1561 003a 9A40     		lsl	r2, r2, r3
 1562 003c 131C     		mov	r3, r2
 1563 003e FB61     		str	r3, [r7, #28]
1353:Generated_Source\PSoC4/CapSense_1.c ****             counterResolution |= (uint32)(CapSense_1_RESOLUTION_8_BITS);
 1564              		.loc 1 1353 0
 1565 0040 FB69     		ldr	r3, [r7, #28]
 1566 0042 FF22     		mov	r2, #255
 1567 0044 1204     		lsl	r2, r2, #16
 1568 0046 1343     		orr	r3, r2
 1569 0048 FB61     		str	r3, [r7, #28]
 1570              	.L81:
1354:Generated_Source\PSoC4/CapSense_1.c ****         }
1355:Generated_Source\PSoC4/CapSense_1.c ****     #endif /* ((CapSense_1_TUNING_METHOD == CapSense_1__TUNING_AUTO) &&\
1356:Generated_Source\PSoC4/CapSense_1.c ****                (0 != CapSense_1_IS_OVERSAMPLING_EN)) */
1357:Generated_Source\PSoC4/CapSense_1.c **** 
1358:Generated_Source\PSoC4/CapSense_1.c ****     #if (0u != CapSense_1_IS_M0S8PERI_BLOCK)
1359:Generated_Source\PSoC4/CapSense_1.c ****         CapSense_1_SenseClk_Stop();
 1571              		.loc 1 1359 0
 1572 004a FFF7FEFF 		bl	CapSense_1_SenseClk_Stop
1360:Generated_Source\PSoC4/CapSense_1.c ****         CapSense_1_SampleClk_Stop();
 1573              		.loc 1 1360 0
 1574 004e FFF7FEFF 		bl	CapSense_1_SampleClk_Stop
1361:Generated_Source\PSoC4/CapSense_1.c ****     #endif /* (0u != CapSense_1_IS_M0S8PERI_BLOCK) */
1362:Generated_Source\PSoC4/CapSense_1.c **** 
1363:Generated_Source\PSoC4/CapSense_1.c ****     #if (0u != CapSense_1_MULTIPLE_FREQUENCY_SET)
1364:Generated_Source\PSoC4/CapSense_1.c ****         CapSense_1_SampleClk_SetDividerValue((uint16)CapSense_1_sampleClkDividerVal[sensor]);
 1575              		.loc 1 1364 0
 1576 0052 3E4A     		ldr	r2, .L83+12
 1577 0054 7B68     		ldr	r3, [r7, #4]
 1578 0056 D318     		add	r3, r2, r3
 1579 0058 1B78     		ldrb	r3, [r3]
 1580 005a 9BB2     		uxth	r3, r3
 1581 005c 013B     		sub	r3, r3, #1
 1582 005e 9BB2     		uxth	r3, r3
 1583 0060 181C     		mov	r0, r3
 1584 0062 0021     		mov	r1, #0
 1585 0064 FFF7FEFF 		bl	CapSense_1_SampleClk_SetFractionalDividerRegister
1365:Generated_Source\PSoC4/CapSense_1.c ****         CapSense_1_SenseClk_SetDividerValue((uint16)CapSense_1_senseClkDividerVal[sensor]);
 1586              		.loc 1 1365 0
 1587 0068 394A     		ldr	r2, .L83+16
 1588 006a 7B68     		ldr	r3, [r7, #4]
 1589 006c D318     		add	r3, r2, r3
ARM GAS  C:\Users\IGOR~1.HOL\AppData\Local\Temp\ccdi3Ihk.s 			page 53


 1590 006e 1B78     		ldrb	r3, [r3]
 1591 0070 9BB2     		uxth	r3, r3
 1592 0072 013B     		sub	r3, r3, #1
 1593 0074 9BB2     		uxth	r3, r3
 1594 0076 181C     		mov	r0, r3
 1595 0078 0021     		mov	r1, #0
 1596 007a FFF7FEFF 		bl	CapSense_1_SenseClk_SetFractionalDividerRegister
1366:Generated_Source\PSoC4/CapSense_1.c ****     #else
1367:Generated_Source\PSoC4/CapSense_1.c ****         CapSense_1_SampleClk_SetDividerValue((uint16)CapSense_1_sampleClkDividerVal);
1368:Generated_Source\PSoC4/CapSense_1.c ****         CapSense_1_SenseClk_SetDividerValue((uint16)CapSense_1_senseClkDividerVal);
1369:Generated_Source\PSoC4/CapSense_1.c ****     #endif /* (0u != CapSense_1_MULTIPLE_FREQUENCY_SET) */
1370:Generated_Source\PSoC4/CapSense_1.c **** 
1371:Generated_Source\PSoC4/CapSense_1.c ****     #if (0u != CapSense_1_IS_M0S8PERI_BLOCK)
1372:Generated_Source\PSoC4/CapSense_1.c ****         CapSense_1_SampleClk_Start();
 1597              		.loc 1 1372 0
 1598 007e FF20     		mov	r0, #255
 1599 0080 FFF7FEFF 		bl	CapSense_1_SampleClk_StartEx
1373:Generated_Source\PSoC4/CapSense_1.c ****         CapSense_1_SenseClk_StartEx(CapSense_1_SampleClk__DIV_ID);
 1600              		.loc 1 1373 0
 1601 0084 4020     		mov	r0, #64
 1602 0086 FFF7FEFF 		bl	CapSense_1_SenseClk_StartEx
1374:Generated_Source\PSoC4/CapSense_1.c **** 
1375:Generated_Source\PSoC4/CapSense_1.c ****         #if(CapSense_1_PRS_OPTIONS == CapSense_1__PRS_NONE)
1376:Generated_Source\PSoC4/CapSense_1.c ****             CyIntDisable(CapSense_1_ISR_NUMBER);
 1603              		.loc 1 1376 0
 1604 008a 1220     		mov	r0, #18
 1605 008c FFF7FEFF 		bl	CyIntDisable
1377:Generated_Source\PSoC4/CapSense_1.c ****             CapSense_1_CSD_CNT_REG = CapSense_1_ONE_CYCLE;
 1606              		.loc 1 1377 0
 1607 0090 304B     		ldr	r3, .L83+20
 1608 0092 8022     		mov	r2, #128
 1609 0094 5202     		lsl	r2, r2, #9
 1610 0096 1A60     		str	r2, [r3]
1378:Generated_Source\PSoC4/CapSense_1.c ****             while(0u != (CapSense_1_CSD_CNT_REG & CapSense_1_RESOLUTION_16_BITS))
 1611              		.loc 1 1378 0
 1612 0098 C046     		mov	r8, r8
 1613              	.L82:
 1614              		.loc 1 1378 0 is_stmt 0 discriminator 1
 1615 009a 2E4B     		ldr	r3, .L83+20
 1616 009c 1B68     		ldr	r3, [r3]
 1617 009e 1B0C     		lsr	r3, r3, #16
 1618 00a0 1B04     		lsl	r3, r3, #16
 1619 00a2 FAD1     		bne	.L82
1379:Generated_Source\PSoC4/CapSense_1.c ****             {
1380:Generated_Source\PSoC4/CapSense_1.c ****             /* Wait until scanning is complete */
1381:Generated_Source\PSoC4/CapSense_1.c ****             }
1382:Generated_Source\PSoC4/CapSense_1.c ****             CapSense_1_CSD_INTR_REG = 1u;
 1620              		.loc 1 1382 0 is_stmt 1
 1621 00a4 2C4B     		ldr	r3, .L83+24
 1622 00a6 0122     		mov	r2, #1
 1623 00a8 1A60     		str	r2, [r3]
1383:Generated_Source\PSoC4/CapSense_1.c ****             CyIntClearPending(CapSense_1_ISR_NUMBER);
 1624              		.loc 1 1383 0
 1625 00aa 1220     		mov	r0, #18
 1626 00ac FFF7FEFF 		bl	CyIntClearPending
1384:Generated_Source\PSoC4/CapSense_1.c ****             CyIntEnable(CapSense_1_ISR_NUMBER);
 1627              		.loc 1 1384 0
ARM GAS  C:\Users\IGOR~1.HOL\AppData\Local\Temp\ccdi3Ihk.s 			page 54


 1628 00b0 1220     		mov	r0, #18
 1629 00b2 FFF7FEFF 		bl	CyIntEnable
1385:Generated_Source\PSoC4/CapSense_1.c ****         #endif /* CapSense_1_PRS_OPTIONS == CapSense_1__PRS_NONE */
1386:Generated_Source\PSoC4/CapSense_1.c ****     #endif /* (0u != CapSense_1_IS_M0S8PERI_BLOCK) */
1387:Generated_Source\PSoC4/CapSense_1.c **** 
1388:Generated_Source\PSoC4/CapSense_1.c **** #if(CapSense_1_PRS_OPTIONS != CapSense_1__PRS_NONE)
1389:Generated_Source\PSoC4/CapSense_1.c **** 
1390:Generated_Source\PSoC4/CapSense_1.c ****     #if(CapSense_1_TUNING_METHOD == CapSense_1__TUNING_AUTO)
1391:Generated_Source\PSoC4/CapSense_1.c ****         if(CapSense_1_prescalersTuningDone != 0u)
1392:Generated_Source\PSoC4/CapSense_1.c ****         {
1393:Generated_Source\PSoC4/CapSense_1.c ****     #endif /* (CapSense_1_TUNING_METHOD == CapSense_1__TUNING_AUTO) */
1394:Generated_Source\PSoC4/CapSense_1.c **** 
1395:Generated_Source\PSoC4/CapSense_1.c ****             CyIntDisable(CapSense_1_ISR_NUMBER);
1396:Generated_Source\PSoC4/CapSense_1.c **** 
1397:Generated_Source\PSoC4/CapSense_1.c ****             newRegValue = CapSense_1_CSD_CFG_REG;
1398:Generated_Source\PSoC4/CapSense_1.c ****             newRegValue |= CapSense_1_CSD_CFG_PRS_SELECT;
1399:Generated_Source\PSoC4/CapSense_1.c **** 
1400:Generated_Source\PSoC4/CapSense_1.c ****             #if(CapSense_1_PRS_OPTIONS == CapSense_1__PRS_AUTO)
1401:Generated_Source\PSoC4/CapSense_1.c **** 
1402:Generated_Source\PSoC4/CapSense_1.c ****                 newRegValue &= ~(CapSense_1_PRS_MODE_MASK);
1403:Generated_Source\PSoC4/CapSense_1.c **** 
1404:Generated_Source\PSoC4/CapSense_1.c ****                 #if (0u != CapSense_1_MULTIPLE_FREQUENCY_SET)
1405:Generated_Source\PSoC4/CapSense_1.c ****                     senseClkDivMath = CapSense_1_senseClkDividerVal[sensor];
1406:Generated_Source\PSoC4/CapSense_1.c ****                     sampleClkDivMath = CapSense_1_sampleClkDividerVal[sensor];
1407:Generated_Source\PSoC4/CapSense_1.c ****                 #else
1408:Generated_Source\PSoC4/CapSense_1.c ****                     senseClkDivMath = CapSense_1_senseClkDividerVal;
1409:Generated_Source\PSoC4/CapSense_1.c ****                     sampleClkDivMath = CapSense_1_sampleClkDividerVal;
1410:Generated_Source\PSoC4/CapSense_1.c ****                 #endif /* ( CapSense_1_MULTIPLE_FREQUENCY_SET) */
1411:Generated_Source\PSoC4/CapSense_1.c **** 
1412:Generated_Source\PSoC4/CapSense_1.c ****                 #if(0u == CapSense_1_IS_M0S8PERI_BLOCK)
1413:Generated_Source\PSoC4/CapSense_1.c ****                     senseClkDivMath *= sampleClkDivMath;
1414:Generated_Source\PSoC4/CapSense_1.c ****                 #endif /* (0u == CapSense_1_IS_M0S8PERI_BLOCK) */
1415:Generated_Source\PSoC4/CapSense_1.c **** 
1416:Generated_Source\PSoC4/CapSense_1.c ****                 if((senseClkDivMath * CapSense_1_RESOLUTION_12_BITS) <
1417:Generated_Source\PSoC4/CapSense_1.c ****                    (sampleClkDivMath * CapSense_1_widgetResolution[widget]))
1418:Generated_Source\PSoC4/CapSense_1.c ****                 {
1419:Generated_Source\PSoC4/CapSense_1.c ****                     newRegValue |= CapSense_1_CSD_PRS_12_BIT;
1420:Generated_Source\PSoC4/CapSense_1.c ****                 }
1421:Generated_Source\PSoC4/CapSense_1.c ****             #endif /* (CapSense_1_PRS_OPTIONS == CapSense_1__PRS_AUTO) */
1422:Generated_Source\PSoC4/CapSense_1.c **** 
1423:Generated_Source\PSoC4/CapSense_1.c ****             CapSense_1_CSD_CFG_REG = newRegValue;
1424:Generated_Source\PSoC4/CapSense_1.c **** 
1425:Generated_Source\PSoC4/CapSense_1.c ****             CyIntEnable(CapSense_1_ISR_NUMBER);
1426:Generated_Source\PSoC4/CapSense_1.c **** 
1427:Generated_Source\PSoC4/CapSense_1.c ****     #if(CapSense_1_TUNING_METHOD == CapSense_1__TUNING_AUTO)
1428:Generated_Source\PSoC4/CapSense_1.c ****         }
1429:Generated_Source\PSoC4/CapSense_1.c ****     #endif /* (CapSense_1_PRS_OPTIONS != CapSense_1__PRS_NONE) */
1430:Generated_Source\PSoC4/CapSense_1.c **** 
1431:Generated_Source\PSoC4/CapSense_1.c **** #endif /* (CapSense_1_PRS_OPTIONS == CapSense_1__PRS_NONE) */
1432:Generated_Source\PSoC4/CapSense_1.c **** 
1433:Generated_Source\PSoC4/CapSense_1.c ****     /* Set Idac Value */
1434:Generated_Source\PSoC4/CapSense_1.c ****     CyIntDisable(CapSense_1_ISR_NUMBER);
 1630              		.loc 1 1434 0
 1631 00b6 1220     		mov	r0, #18
 1632 00b8 FFF7FEFF 		bl	CyIntDisable
1435:Generated_Source\PSoC4/CapSense_1.c ****     newRegValue = CapSense_1_CSD_IDAC_REG;
 1633              		.loc 1 1435 0
ARM GAS  C:\Users\IGOR~1.HOL\AppData\Local\Temp\ccdi3Ihk.s 			page 55


 1634 00bc 274B     		ldr	r3, .L83+28
 1635 00be 1B68     		ldr	r3, [r3]
 1636 00c0 3B61     		str	r3, [r7, #16]
1436:Generated_Source\PSoC4/CapSense_1.c **** 
1437:Generated_Source\PSoC4/CapSense_1.c **** #if (CapSense_1_IDAC_CNT == 1u)
1438:Generated_Source\PSoC4/CapSense_1.c ****     newRegValue &= ~(CapSense_1_CSD_IDAC1_DATA_MASK);
1439:Generated_Source\PSoC4/CapSense_1.c ****     newRegValue |= CapSense_1_modulationIDAC[sensor];
1440:Generated_Source\PSoC4/CapSense_1.c **** #else
1441:Generated_Source\PSoC4/CapSense_1.c ****     newRegValue &= ~(CapSense_1_CSD_IDAC1_DATA_MASK | CapSense_1_CSD_IDAC2_DATA_MASK);
 1637              		.loc 1 1441 0
 1638 00c2 3B69     		ldr	r3, [r7, #16]
 1639 00c4 264A     		ldr	r2, .L83+32
 1640 00c6 1340     		and	r3, r2
 1641 00c8 3B61     		str	r3, [r7, #16]
1442:Generated_Source\PSoC4/CapSense_1.c ****     newRegValue |= (CapSense_1_modulationIDAC[sensor] |
 1642              		.loc 1 1442 0
 1643 00ca 264A     		ldr	r2, .L83+36
 1644 00cc 7B68     		ldr	r3, [r7, #4]
 1645 00ce D318     		add	r3, r2, r3
 1646 00d0 1B78     		ldrb	r3, [r3]
 1647 00d2 191C     		mov	r1, r3
1443:Generated_Source\PSoC4/CapSense_1.c ****                             (uint32)((uint32)CapSense_1_compensationIDAC[sensor] <<
 1648              		.loc 1 1443 0
 1649 00d4 244A     		ldr	r2, .L83+40
 1650 00d6 7B68     		ldr	r3, [r7, #4]
 1651 00d8 D318     		add	r3, r2, r3
 1652 00da 1B78     		ldrb	r3, [r3]
 1653 00dc 1B04     		lsl	r3, r3, #16
1442:Generated_Source\PSoC4/CapSense_1.c ****     newRegValue |= (CapSense_1_modulationIDAC[sensor] |
 1654              		.loc 1 1442 0
 1655 00de 0B43     		orr	r3, r1
 1656 00e0 3A69     		ldr	r2, [r7, #16]
 1657 00e2 1343     		orr	r3, r2
 1658 00e4 3B61     		str	r3, [r7, #16]
1444:Generated_Source\PSoC4/CapSense_1.c ****                             CapSense_1_CSD_IDAC2_DATA_OFFSET));
1445:Generated_Source\PSoC4/CapSense_1.c **** #endif /* (CapSense_1_IDAC_CNT == 1u) */
1446:Generated_Source\PSoC4/CapSense_1.c **** 
1447:Generated_Source\PSoC4/CapSense_1.c ****     CapSense_1_CSD_IDAC_REG = newRegValue;
 1659              		.loc 1 1447 0
 1660 00e6 1D4B     		ldr	r3, .L83+28
 1661 00e8 3A69     		ldr	r2, [r7, #16]
 1662 00ea 1A60     		str	r2, [r3]
1448:Generated_Source\PSoC4/CapSense_1.c **** 
1449:Generated_Source\PSoC4/CapSense_1.c **** #if(CapSense_1_CMOD_PREGARGE_OPTION == CapSense_1__CAPPRIOBUF)
1450:Generated_Source\PSoC4/CapSense_1.c ****     newRegValue = CapSense_1_CMOD_CONNECTION_REG;
1451:Generated_Source\PSoC4/CapSense_1.c ****     newRegValue &= ~(CapSense_1_CSD_CMOD_CONNECTION_MASK);
1452:Generated_Source\PSoC4/CapSense_1.c ****     newRegValue |= CapSense_1_CSD_CMOD_TO_AMUXBUS_A;
1453:Generated_Source\PSoC4/CapSense_1.c ****     CapSense_1_CMOD_CONNECTION_REG = newRegValue;
1454:Generated_Source\PSoC4/CapSense_1.c **** 
1455:Generated_Source\PSoC4/CapSense_1.c ****     newRegValue = CapSense_1_CMOD_PORT_PC_REG;
1456:Generated_Source\PSoC4/CapSense_1.c ****     newRegValue &= ~(CapSense_1_CSD_CMOD_PC_MASK);
1457:Generated_Source\PSoC4/CapSense_1.c ****     newRegValue |= CapSense_1_CMOD_PC_HIGH_Z_MODE;
1458:Generated_Source\PSoC4/CapSense_1.c ****     CapSense_1_CMOD_PORT_PC_REG = newRegValue;
1459:Generated_Source\PSoC4/CapSense_1.c **** #endif /* (CapSense_1_CMOD_PREGARGE_OPTION == CapSense_1__CAPPRIOBUF) */
1460:Generated_Source\PSoC4/CapSense_1.c **** 
1461:Generated_Source\PSoC4/CapSense_1.c ****     /* Disconnect Vref Buffer from AMUX */
1462:Generated_Source\PSoC4/CapSense_1.c ****     newRegValue = CapSense_1_CSD_CFG_REG;
ARM GAS  C:\Users\IGOR~1.HOL\AppData\Local\Temp\ccdi3Ihk.s 			page 56


 1663              		.loc 1 1462 0
 1664 00ec 1F4B     		ldr	r3, .L83+44
 1665 00ee 1B68     		ldr	r3, [r3]
 1666 00f0 3B61     		str	r3, [r7, #16]
1463:Generated_Source\PSoC4/CapSense_1.c ****     newRegValue &= ~(CapSense_1_PRECHARGE_CONFIG_MASK);
 1667              		.loc 1 1463 0
 1668 00f2 3B69     		ldr	r3, [r7, #16]
 1669 00f4 1E4A     		ldr	r2, .L83+48
 1670 00f6 1340     		and	r3, r2
 1671 00f8 3B61     		str	r3, [r7, #16]
1464:Generated_Source\PSoC4/CapSense_1.c ****     newRegValue |= CapSense_1_CTANK_PRECHARGE_CONFIG;
 1672              		.loc 1 1464 0
 1673 00fa 3B69     		ldr	r3, [r7, #16]
 1674 00fc 1D4A     		ldr	r2, .L83+52
 1675 00fe 1343     		orr	r3, r2
 1676 0100 3B61     		str	r3, [r7, #16]
1465:Generated_Source\PSoC4/CapSense_1.c **** 
1466:Generated_Source\PSoC4/CapSense_1.c ****     CyIntEnable(CapSense_1_ISR_NUMBER);
 1677              		.loc 1 1466 0
 1678 0102 1220     		mov	r0, #18
 1679 0104 FFF7FEFF 		bl	CyIntEnable
1467:Generated_Source\PSoC4/CapSense_1.c **** 
1468:Generated_Source\PSoC4/CapSense_1.c ****     /* Enable Sensor */
1469:Generated_Source\PSoC4/CapSense_1.c ****     CapSense_1_EnableScanSlot(sensor);
 1680              		.loc 1 1469 0
 1681 0108 7B68     		ldr	r3, [r7, #4]
 1682 010a 181C     		mov	r0, r3
 1683 010c FFF7FEFF 		bl	CapSense_1_EnableSensor
1470:Generated_Source\PSoC4/CapSense_1.c **** 
1471:Generated_Source\PSoC4/CapSense_1.c ****     interruptState = CyEnterCriticalSection();
 1684              		.loc 1 1471 0
 1685 0110 0F23     		mov	r3, #15
 1686 0112 FC18     		add	r4, r7, r3
 1687 0114 FFF7FEFF 		bl	CyEnterCriticalSection
 1688 0118 031C     		mov	r3, r0
 1689 011a 2370     		strb	r3, [r4]
1472:Generated_Source\PSoC4/CapSense_1.c ****     CapSense_1_CSD_CFG_REG = newRegValue;
 1690              		.loc 1 1472 0
 1691 011c 134B     		ldr	r3, .L83+44
 1692 011e 3A69     		ldr	r2, [r7, #16]
 1693 0120 1A60     		str	r2, [r3]
1473:Generated_Source\PSoC4/CapSense_1.c **** 
1474:Generated_Source\PSoC4/CapSense_1.c ****     /* `#START CapSense_1_PreSettlingDelay_Debug` */
1475:Generated_Source\PSoC4/CapSense_1.c **** 
1476:Generated_Source\PSoC4/CapSense_1.c ****     /* `#END` */
1477:Generated_Source\PSoC4/CapSense_1.c **** 
1478:Generated_Source\PSoC4/CapSense_1.c **** #ifdef CapSense_1_PRE_SCAN_PRE_SETTLING_DELAY_DEBUG_CALLBACK
1479:Generated_Source\PSoC4/CapSense_1.c ****     CapSense_1_PreScan_Pre_SettlingDelay_Debug_Callback();
1480:Generated_Source\PSoC4/CapSense_1.c **** #endif /* CapSense_1_PRE_SCAN_PRE_SETTLING_DELAY_DEBUG_CALLBACK */
1481:Generated_Source\PSoC4/CapSense_1.c **** 
1482:Generated_Source\PSoC4/CapSense_1.c ****     CyDelayCycles(CapSense_1_GLITCH_ELIMINATION_CYCLES);
 1694              		.loc 1 1482 0
 1695 0122 0020     		mov	r0, #0
 1696 0124 FFF7FEFF 		bl	CyDelayCycles
1483:Generated_Source\PSoC4/CapSense_1.c **** 
1484:Generated_Source\PSoC4/CapSense_1.c ****     /* `#START CapSense_1_PreScan_Debug` */
1485:Generated_Source\PSoC4/CapSense_1.c **** 
ARM GAS  C:\Users\IGOR~1.HOL\AppData\Local\Temp\ccdi3Ihk.s 			page 57


1486:Generated_Source\PSoC4/CapSense_1.c ****     /* `#END` */
1487:Generated_Source\PSoC4/CapSense_1.c **** 
1488:Generated_Source\PSoC4/CapSense_1.c **** #ifdef CapSense_1_PRE_SCAN_DEBUG_CALLBACK
1489:Generated_Source\PSoC4/CapSense_1.c ****     CapSense_1_PreScan_Debug_Callback();
1490:Generated_Source\PSoC4/CapSense_1.c **** #endif /* CapSense_1_PRE_SCAN_DEBUG_CALLBACK */
1491:Generated_Source\PSoC4/CapSense_1.c **** 
1492:Generated_Source\PSoC4/CapSense_1.c ****     CapSense_1_CSD_CNT_REG = counterResolution;
 1697              		.loc 1 1492 0
 1698 0128 0A4B     		ldr	r3, .L83+20
 1699 012a FA69     		ldr	r2, [r7, #28]
 1700 012c 1A60     		str	r2, [r3]
1493:Generated_Source\PSoC4/CapSense_1.c ****     CyExitCriticalSection(interruptState);
 1701              		.loc 1 1493 0
 1702 012e 0F23     		mov	r3, #15
 1703 0130 FB18     		add	r3, r7, r3
 1704 0132 1B78     		ldrb	r3, [r3]
 1705 0134 181C     		mov	r0, r3
 1706 0136 FFF7FEFF 		bl	CyExitCriticalSection
1494:Generated_Source\PSoC4/CapSense_1.c **** }
 1707              		.loc 1 1494 0
 1708 013a BD46     		mov	sp, r7
 1709 013c 09B0     		add	sp, sp, #36
 1710              		@ sp needed
 1711 013e 90BD     		pop	{r4, r7, pc}
 1712              	.L84:
 1713              		.align	2
 1714              	.L83:
 1715 0140 00000000 		.word	CapSense_1_widgetResolution
 1716 0144 00000000 		.word	CapSense_1_scanSpeedTbl
 1717 0148 FFFFFEFF 		.word	-65537
 1718 014c 00000000 		.word	CapSense_1_sampleClkDividerVal
 1719 0150 00000000 		.word	CapSense_1_senseClkDividerVal
 1720 0154 0C002940 		.word	1076428812
 1721 0158 14002940 		.word	1076428820
 1722 015c 08002940 		.word	1076428808
 1723 0160 00FF80FF 		.word	-8323328
 1724 0164 00000000 		.word	CapSense_1_modulationIDAC
 1725 0168 00000000 		.word	CapSense_1_compensationIDAC
 1726 016c 04002940 		.word	1076428804
 1727 0170 FF1FDFFF 		.word	-2154497
 1728 0174 20002000 		.word	2097184
 1729              		.cfi_endproc
 1730              	.LFE55:
 1731              		.size	CapSense_1_PreScan, .-CapSense_1_PreScan
 1732              		.section	.text.CapSense_1_PostScan,"ax",%progbits
 1733              		.align	2
 1734              		.global	CapSense_1_PostScan
 1735              		.code	16
 1736              		.thumb_func
 1737              		.type	CapSense_1_PostScan, %function
 1738              	CapSense_1_PostScan:
 1739              	.LFB56:
1495:Generated_Source\PSoC4/CapSense_1.c **** 
1496:Generated_Source\PSoC4/CapSense_1.c **** 
1497:Generated_Source\PSoC4/CapSense_1.c **** /*******************************************************************************
1498:Generated_Source\PSoC4/CapSense_1.c **** * Function Name: CapSense_1_PostScan
1499:Generated_Source\PSoC4/CapSense_1.c **** ********************************************************************************
ARM GAS  C:\Users\IGOR~1.HOL\AppData\Local\Temp\ccdi3Ihk.s 			page 58


1500:Generated_Source\PSoC4/CapSense_1.c **** *
1501:Generated_Source\PSoC4/CapSense_1.c **** * Summary:
1502:Generated_Source\PSoC4/CapSense_1.c **** *  Stores the results of measurement in the CapSense_1_sensorRaw[] array,
1503:Generated_Source\PSoC4/CapSense_1.c **** *  sets the scanning sensor in the non-sampling state, turns off Idac(Current Source IDAC),
1504:Generated_Source\PSoC4/CapSense_1.c **** *  disconnects the IDAC(Sink mode), and applies Vref on AMUX.
1505:Generated_Source\PSoC4/CapSense_1.c **** *
1506:Generated_Source\PSoC4/CapSense_1.c **** * Parameters:
1507:Generated_Source\PSoC4/CapSense_1.c **** *  sensor:  Sensor number.
1508:Generated_Source\PSoC4/CapSense_1.c **** *
1509:Generated_Source\PSoC4/CapSense_1.c **** * Return:
1510:Generated_Source\PSoC4/CapSense_1.c **** *  None
1511:Generated_Source\PSoC4/CapSense_1.c **** *
1512:Generated_Source\PSoC4/CapSense_1.c **** * Global Variables:
1513:Generated_Source\PSoC4/CapSense_1.c **** *  CapSense_1_sensorRaw[] - used to store sensors raw data.
1514:Generated_Source\PSoC4/CapSense_1.c **** *
1515:Generated_Source\PSoC4/CapSense_1.c **** * Side Effects:
1516:Generated_Source\PSoC4/CapSense_1.c **** *  None
1517:Generated_Source\PSoC4/CapSense_1.c **** *
1518:Generated_Source\PSoC4/CapSense_1.c **** *******************************************************************************/
1519:Generated_Source\PSoC4/CapSense_1.c **** void CapSense_1_PostScan(uint32 sensor)
1520:Generated_Source\PSoC4/CapSense_1.c **** {
 1740              		.loc 1 1520 0
 1741              		.cfi_startproc
 1742 0000 80B5     		push	{r7, lr}
 1743              		.cfi_def_cfa_offset 8
 1744              		.cfi_offset 7, -8
 1745              		.cfi_offset 14, -4
 1746 0002 86B0     		sub	sp, sp, #24
 1747              		.cfi_def_cfa_offset 32
 1748 0004 00AF     		add	r7, sp, #0
 1749              		.cfi_def_cfa_register 7
 1750 0006 7860     		str	r0, [r7, #4]
1521:Generated_Source\PSoC4/CapSense_1.c ****     uint32 newRegValue;
1522:Generated_Source\PSoC4/CapSense_1.c **** #if ((CapSense_1_TUNING_METHOD == CapSense_1__TUNING_AUTO) &&\
1523:Generated_Source\PSoC4/CapSense_1.c ****      (0 != CapSense_1_IS_OVERSAMPLING_EN))
1524:Generated_Source\PSoC4/CapSense_1.c ****     uint32 oversamplingFactor;
1525:Generated_Source\PSoC4/CapSense_1.c ****     uint32 widget;
1526:Generated_Source\PSoC4/CapSense_1.c **** #endif /* ((CapSense_1_TUNING_METHOD == CapSense_1__TUNING_AUTO) &&\
1527:Generated_Source\PSoC4/CapSense_1.c ****            (0 != CapSense_1_IS_OVERSAMPLING_EN)) */
1528:Generated_Source\PSoC4/CapSense_1.c **** 
1529:Generated_Source\PSoC4/CapSense_1.c ****     /* `#START CapSense_1_PostScan_Debug` */
1530:Generated_Source\PSoC4/CapSense_1.c **** 
1531:Generated_Source\PSoC4/CapSense_1.c ****     /* `#END` */
1532:Generated_Source\PSoC4/CapSense_1.c **** 
1533:Generated_Source\PSoC4/CapSense_1.c **** #ifdef CapSense_1_POST_SCAN_DEBUG_CALLBACK
1534:Generated_Source\PSoC4/CapSense_1.c ****     CapSense_1_PostScan_Debug_Callback();
1535:Generated_Source\PSoC4/CapSense_1.c **** #endif /* CapSense_1_POST_SCAN_DEBUG_Callback */
1536:Generated_Source\PSoC4/CapSense_1.c **** 
1537:Generated_Source\PSoC4/CapSense_1.c ****     /* Read SlotResult from Raw Counter */
1538:Generated_Source\PSoC4/CapSense_1.c ****     CapSense_1_sensorRaw[sensor]  = (uint16)CapSense_1_CSD_CNT_REG;
 1751              		.loc 1 1538 0
 1752 0008 234B     		ldr	r3, .L87
 1753 000a 1B68     		ldr	r3, [r3]
 1754 000c 99B2     		uxth	r1, r3
 1755 000e 234B     		ldr	r3, .L87+4
 1756 0010 7A68     		ldr	r2, [r7, #4]
 1757 0012 5200     		lsl	r2, r2, #1
ARM GAS  C:\Users\IGOR~1.HOL\AppData\Local\Temp\ccdi3Ihk.s 			page 59


 1758 0014 D152     		strh	r1, [r2, r3]
1539:Generated_Source\PSoC4/CapSense_1.c **** 
1540:Generated_Source\PSoC4/CapSense_1.c **** #if ((CapSense_1_TUNING_METHOD == CapSense_1__TUNING_AUTO) &&\
1541:Generated_Source\PSoC4/CapSense_1.c ****      (0 != CapSense_1_IS_OVERSAMPLING_EN))
1542:Generated_Source\PSoC4/CapSense_1.c ****     widget = CapSense_1_widgetNumber[sensor];
 1759              		.loc 1 1542 0
 1760 0016 0023     		mov	r3, #0
 1761 0018 7B61     		str	r3, [r7, #20]
1543:Generated_Source\PSoC4/CapSense_1.c ****     if(CapSense_1_widgetResolution[widget] < CapSense_1_RESOLUTION_16_BITS)
 1762              		.loc 1 1543 0
 1763 001a 214B     		ldr	r3, .L87+8
 1764 001c 7A69     		ldr	r2, [r7, #20]
 1765 001e 9200     		lsl	r2, r2, #2
 1766 0020 D358     		ldr	r3, [r2, r3]
 1767 0022 204A     		ldr	r2, .L87+12
 1768 0024 9342     		cmp	r3, r2
 1769 0026 14D8     		bhi	.L86
1544:Generated_Source\PSoC4/CapSense_1.c ****     {
1545:Generated_Source\PSoC4/CapSense_1.c ****         oversamplingFactor = CapSense_1_GetBitValue(CapSense_1_scanSpeedTbl, sensor);
 1770              		.loc 1 1545 0
 1771 0028 1F4A     		ldr	r2, .L87+16
 1772 002a 7B68     		ldr	r3, [r7, #4]
 1773 002c 101C     		mov	r0, r2
 1774 002e 191C     		mov	r1, r3
 1775 0030 FFF7FEFF 		bl	CapSense_1_GetBitValue
 1776 0034 031C     		mov	r3, r0
 1777 0036 3B61     		str	r3, [r7, #16]
1546:Generated_Source\PSoC4/CapSense_1.c ****         CapSense_1_sensorRaw[sensor] >>= oversamplingFactor;
 1778              		.loc 1 1546 0
 1779 0038 184B     		ldr	r3, .L87+4
 1780 003a 7A68     		ldr	r2, [r7, #4]
 1781 003c 5200     		lsl	r2, r2, #1
 1782 003e D35A     		ldrh	r3, [r2, r3]
 1783 0040 1A1C     		mov	r2, r3
 1784 0042 3B69     		ldr	r3, [r7, #16]
 1785 0044 1A41     		asr	r2, r2, r3
 1786 0046 131C     		mov	r3, r2
 1787 0048 99B2     		uxth	r1, r3
 1788 004a 144B     		ldr	r3, .L87+4
 1789 004c 7A68     		ldr	r2, [r7, #4]
 1790 004e 5200     		lsl	r2, r2, #1
 1791 0050 D152     		strh	r1, [r2, r3]
 1792              	.L86:
1547:Generated_Source\PSoC4/CapSense_1.c ****     }
1548:Generated_Source\PSoC4/CapSense_1.c **** #endif /* ((CapSense_1_TUNING_METHOD == CapSense_1__TUNING_AUTO) &&\
1549:Generated_Source\PSoC4/CapSense_1.c ****            (0 != CapSense_1_IS_OVERSAMPLING_EN)) */
1550:Generated_Source\PSoC4/CapSense_1.c **** 
1551:Generated_Source\PSoC4/CapSense_1.c ****     /* Disable Sensor */
1552:Generated_Source\PSoC4/CapSense_1.c ****     CapSense_1_DisableScanSlot(sensor);
 1793              		.loc 1 1552 0
 1794 0052 7B68     		ldr	r3, [r7, #4]
 1795 0054 181C     		mov	r0, r3
 1796 0056 FFF7FEFF 		bl	CapSense_1_DisableSensor
1553:Generated_Source\PSoC4/CapSense_1.c **** 
1554:Generated_Source\PSoC4/CapSense_1.c ****     CyIntDisable(CapSense_1_ISR_NUMBER);
 1797              		.loc 1 1554 0
 1798 005a 1220     		mov	r0, #18
ARM GAS  C:\Users\IGOR~1.HOL\AppData\Local\Temp\ccdi3Ihk.s 			page 60


 1799 005c FFF7FEFF 		bl	CyIntDisable
1555:Generated_Source\PSoC4/CapSense_1.c **** 
1556:Generated_Source\PSoC4/CapSense_1.c **** #if(CapSense_1_CMOD_PREGARGE_OPTION == CapSense_1__CAPPRIOBUF)
1557:Generated_Source\PSoC4/CapSense_1.c ****     newRegValue = CapSense_1_CMOD_CONNECTION_REG;
1558:Generated_Source\PSoC4/CapSense_1.c ****     newRegValue &= ~(CapSense_1_CSD_CMOD_CONNECTION_MASK);
1559:Generated_Source\PSoC4/CapSense_1.c ****     newRegValue |= CapSense_1_CSD_CMOD_TO_AMUXBUS_B;
1560:Generated_Source\PSoC4/CapSense_1.c ****     CapSense_1_CMOD_CONNECTION_REG = newRegValue;
1561:Generated_Source\PSoC4/CapSense_1.c **** 
1562:Generated_Source\PSoC4/CapSense_1.c ****     newRegValue = CapSense_1_CMOD_PORT_PC_REG;
1563:Generated_Source\PSoC4/CapSense_1.c ****     newRegValue &= ~(CapSense_1_CSD_CMOD_PC_MASK);
1564:Generated_Source\PSoC4/CapSense_1.c ****     newRegValue |= CapSense_1_CMOD_PC_STRONG_MODE;
1565:Generated_Source\PSoC4/CapSense_1.c ****     CapSense_1_CMOD_PORT_PC_REG = newRegValue;
1566:Generated_Source\PSoC4/CapSense_1.c **** 
1567:Generated_Source\PSoC4/CapSense_1.c ****     newRegValue = CapSense_1_CMOD_PORT_DR_REG;
1568:Generated_Source\PSoC4/CapSense_1.c ****     newRegValue &= ~(CapSense_1_CMOD_DR_MASK);
1569:Generated_Source\PSoC4/CapSense_1.c ****     newRegValue |= CapSense_1_CMOD_DR_CONFIG;
1570:Generated_Source\PSoC4/CapSense_1.c ****     CapSense_1_CMOD_PORT_DR_REG = newRegValue;
1571:Generated_Source\PSoC4/CapSense_1.c **** #endif /* (CapSense_1_CMOD_PREGARGE_OPTION == CapSense_1__CAPPRIOBUF) */
1572:Generated_Source\PSoC4/CapSense_1.c **** 
1573:Generated_Source\PSoC4/CapSense_1.c ****     /* Connect Vref Buffer to AMUX bus  */
1574:Generated_Source\PSoC4/CapSense_1.c ****     newRegValue = CapSense_1_CSD_CFG_REG;
 1800              		.loc 1 1574 0
 1801 0060 124B     		ldr	r3, .L87+20
 1802 0062 1B68     		ldr	r3, [r3]
 1803 0064 FB60     		str	r3, [r7, #12]
1575:Generated_Source\PSoC4/CapSense_1.c ****     newRegValue &= ~(CapSense_1_PRECHARGE_CONFIG_MASK);
 1804              		.loc 1 1575 0
 1805 0066 FB68     		ldr	r3, [r7, #12]
 1806 0068 114A     		ldr	r2, .L87+24
 1807 006a 1340     		and	r3, r2
 1808 006c FB60     		str	r3, [r7, #12]
1576:Generated_Source\PSoC4/CapSense_1.c ****     newRegValue |= CapSense_1_CMOD_PRECHARGE_CONFIG;
 1809              		.loc 1 1576 0
 1810 006e FB68     		ldr	r3, [r7, #12]
 1811 0070 A022     		mov	r2, #160
 1812 0072 1202     		lsl	r2, r2, #8
 1813 0074 1343     		orr	r3, r2
 1814 0076 FB60     		str	r3, [r7, #12]
1577:Generated_Source\PSoC4/CapSense_1.c ****     CapSense_1_CSD_CFG_REG = newRegValue;
 1815              		.loc 1 1577 0
 1816 0078 0C4B     		ldr	r3, .L87+20
 1817 007a FA68     		ldr	r2, [r7, #12]
 1818 007c 1A60     		str	r2, [r3]
1578:Generated_Source\PSoC4/CapSense_1.c **** 
1579:Generated_Source\PSoC4/CapSense_1.c ****     /* Set Idac Value = 0 */
1580:Generated_Source\PSoC4/CapSense_1.c **** #if (CapSense_1_IDAC_CNT == 1u)
1581:Generated_Source\PSoC4/CapSense_1.c ****     CapSense_1_CSD_IDAC_REG &= ~(CapSense_1_CSD_IDAC1_DATA_MASK);
1582:Generated_Source\PSoC4/CapSense_1.c **** #else
1583:Generated_Source\PSoC4/CapSense_1.c ****     CapSense_1_CSD_IDAC_REG &= ~(CapSense_1_CSD_IDAC1_DATA_MASK | CapSense_1_CSD_IDAC2_DATA_MASK);
 1819              		.loc 1 1583 0
 1820 007e 0D4B     		ldr	r3, .L87+28
 1821 0080 0C4A     		ldr	r2, .L87+28
 1822 0082 1268     		ldr	r2, [r2]
 1823 0084 0C49     		ldr	r1, .L87+32
 1824 0086 0A40     		and	r2, r1
 1825 0088 1A60     		str	r2, [r3]
1584:Generated_Source\PSoC4/CapSense_1.c **** #endif /* (CapSense_1_IDAC_CNT == 1u) */
ARM GAS  C:\Users\IGOR~1.HOL\AppData\Local\Temp\ccdi3Ihk.s 			page 61


1585:Generated_Source\PSoC4/CapSense_1.c **** 
1586:Generated_Source\PSoC4/CapSense_1.c ****     CyIntEnable(CapSense_1_ISR_NUMBER);
 1826              		.loc 1 1586 0
 1827 008a 1220     		mov	r0, #18
 1828 008c FFF7FEFF 		bl	CyIntEnable
1587:Generated_Source\PSoC4/CapSense_1.c **** }
 1829              		.loc 1 1587 0
 1830 0090 BD46     		mov	sp, r7
 1831 0092 06B0     		add	sp, sp, #24
 1832              		@ sp needed
 1833 0094 80BD     		pop	{r7, pc}
 1834              	.L88:
 1835 0096 C046     		.align	2
 1836              	.L87:
 1837 0098 0C002940 		.word	1076428812
 1838 009c 00000000 		.word	CapSense_1_sensorRaw
 1839 00a0 00000000 		.word	CapSense_1_widgetResolution
 1840 00a4 FFFFFEFF 		.word	-65537
 1841 00a8 00000000 		.word	CapSense_1_scanSpeedTbl
 1842 00ac 04002940 		.word	1076428804
 1843 00b0 FF1FDFFF 		.word	-2154497
 1844 00b4 08002940 		.word	1076428808
 1845 00b8 00FF80FF 		.word	-8323328
 1846              		.cfi_endproc
 1847              	.LFE56:
 1848              		.size	CapSense_1_PostScan, .-CapSense_1_PostScan
 1849              		.section	.text.CapSense_1_EnableShieldElectrode,"ax",%progbits
 1850              		.align	2
 1851              		.global	CapSense_1_EnableShieldElectrode
 1852              		.code	16
 1853              		.thumb_func
 1854              		.type	CapSense_1_EnableShieldElectrode, %function
 1855              	CapSense_1_EnableShieldElectrode:
 1856              	.LFB57:
1588:Generated_Source\PSoC4/CapSense_1.c **** 
1589:Generated_Source\PSoC4/CapSense_1.c **** 
1590:Generated_Source\PSoC4/CapSense_1.c **** /*******************************************************************************
1591:Generated_Source\PSoC4/CapSense_1.c **** * Function Name: CapSense_1_EnableShieldElectrode
1592:Generated_Source\PSoC4/CapSense_1.c **** ********************************************************************************
1593:Generated_Source\PSoC4/CapSense_1.c **** *
1594:Generated_Source\PSoC4/CapSense_1.c **** * Summary:
1595:Generated_Source\PSoC4/CapSense_1.c **** *  This API enables or disables the shield electrode on a specified port pin.
1596:Generated_Source\PSoC4/CapSense_1.c **** *
1597:Generated_Source\PSoC4/CapSense_1.c **** * Parameters:
1598:Generated_Source\PSoC4/CapSense_1.c **** *  portNumber: contains the shield electrode port number (0, 1, 2).
1599:Generated_Source\PSoC4/CapSense_1.c **** *  pinNumber: contains the shield electrode pin number (0, 1, 2, ... , 7).
1600:Generated_Source\PSoC4/CapSense_1.c **** *
1601:Generated_Source\PSoC4/CapSense_1.c **** * Return:
1602:Generated_Source\PSoC4/CapSense_1.c **** *  None
1603:Generated_Source\PSoC4/CapSense_1.c **** *
1604:Generated_Source\PSoC4/CapSense_1.c **** * Global Variables:
1605:Generated_Source\PSoC4/CapSense_1.c **** *  CapSense_1_prtCfgTbl[] - Contains pointers to the port config registers for each port.
1606:Generated_Source\PSoC4/CapSense_1.c **** *  CapSense_1_prtSelTbl[] - Contains pointers to the HSIOM registers for each port.
1607:Generated_Source\PSoC4/CapSense_1.c **** *
1608:Generated_Source\PSoC4/CapSense_1.c **** * Side Effects:
1609:Generated_Source\PSoC4/CapSense_1.c **** *  None
1610:Generated_Source\PSoC4/CapSense_1.c **** *
ARM GAS  C:\Users\IGOR~1.HOL\AppData\Local\Temp\ccdi3Ihk.s 			page 62


1611:Generated_Source\PSoC4/CapSense_1.c **** *******************************************************************************/
1612:Generated_Source\PSoC4/CapSense_1.c **** void CapSense_1_EnableShieldElectrode(uint32 pinNumber, uint32 portNumber)
1613:Generated_Source\PSoC4/CapSense_1.c **** {
 1857              		.loc 1 1613 0
 1858              		.cfi_startproc
 1859 0000 80B5     		push	{r7, lr}
 1860              		.cfi_def_cfa_offset 8
 1861              		.cfi_offset 7, -8
 1862              		.cfi_offset 14, -4
 1863 0002 84B0     		sub	sp, sp, #16
 1864              		.cfi_def_cfa_offset 24
 1865 0004 00AF     		add	r7, sp, #0
 1866              		.cfi_def_cfa_register 7
 1867 0006 7860     		str	r0, [r7, #4]
 1868 0008 3960     		str	r1, [r7]
1614:Generated_Source\PSoC4/CapSense_1.c ****     uint32 newRegValue;
1615:Generated_Source\PSoC4/CapSense_1.c **** 
1616:Generated_Source\PSoC4/CapSense_1.c ****     *CapSense_1_prtCfgTbl[portNumber] &= ~(CapSense_1_CSD_PIN_MODE_MASK << (pinNumber * CapSense_1_
 1869              		.loc 1 1616 0
 1870 000a 194B     		ldr	r3, .L90
 1871 000c 3A68     		ldr	r2, [r7]
 1872 000e 9200     		lsl	r2, r2, #2
 1873 0010 D258     		ldr	r2, [r2, r3]
 1874 0012 174B     		ldr	r3, .L90
 1875 0014 3968     		ldr	r1, [r7]
 1876 0016 8900     		lsl	r1, r1, #2
 1877 0018 CB58     		ldr	r3, [r1, r3]
 1878 001a 1868     		ldr	r0, [r3]
 1879 001c 7968     		ldr	r1, [r7, #4]
 1880 001e 0B1C     		mov	r3, r1
 1881 0020 5B00     		lsl	r3, r3, #1
 1882 0022 5B18     		add	r3, r3, r1
 1883 0024 191C     		mov	r1, r3
 1884 0026 0723     		mov	r3, #7
 1885 0028 8B40     		lsl	r3, r3, r1
 1886 002a DB43     		mvn	r3, r3
 1887 002c 0340     		and	r3, r0
 1888 002e 1360     		str	r3, [r2]
1617:Generated_Source\PSoC4/CapSense_1.c ****     newRegValue = *CapSense_1_prtSelTbl[portNumber];
 1889              		.loc 1 1617 0
 1890 0030 104B     		ldr	r3, .L90+4
 1891 0032 3A68     		ldr	r2, [r7]
 1892 0034 9200     		lsl	r2, r2, #2
 1893 0036 D358     		ldr	r3, [r2, r3]
 1894 0038 1B68     		ldr	r3, [r3]
 1895 003a FB60     		str	r3, [r7, #12]
1618:Generated_Source\PSoC4/CapSense_1.c ****     newRegValue &= ~(CapSense_1_CSD_HSIOM_MASK << (pinNumber * CapSense_1_HSIOM_PIN_CFG_SIZE));
 1896              		.loc 1 1618 0
 1897 003c 7B68     		ldr	r3, [r7, #4]
 1898 003e 9B00     		lsl	r3, r3, #2
 1899 0040 1A1C     		mov	r2, r3
 1900 0042 0F23     		mov	r3, #15
 1901 0044 9340     		lsl	r3, r3, r2
 1902 0046 DA43     		mvn	r2, r3
 1903 0048 FB68     		ldr	r3, [r7, #12]
 1904 004a 1340     		and	r3, r2
 1905 004c FB60     		str	r3, [r7, #12]
ARM GAS  C:\Users\IGOR~1.HOL\AppData\Local\Temp\ccdi3Ihk.s 			page 63


1619:Generated_Source\PSoC4/CapSense_1.c ****     newRegValue |= (CapSense_1_CSD_SHIELD_PORT_MODE << (pinNumber * CapSense_1_HSIOM_PIN_CFG_SIZE))
 1906              		.loc 1 1619 0
 1907 004e 7B68     		ldr	r3, [r7, #4]
 1908 0050 9B00     		lsl	r3, r3, #2
 1909 0052 1A1C     		mov	r2, r3
 1910 0054 0523     		mov	r3, #5
 1911 0056 9340     		lsl	r3, r3, r2
 1912 0058 FA68     		ldr	r2, [r7, #12]
 1913 005a 1343     		orr	r3, r2
 1914 005c FB60     		str	r3, [r7, #12]
1620:Generated_Source\PSoC4/CapSense_1.c ****     *CapSense_1_prtSelTbl[portNumber] = newRegValue;
 1915              		.loc 1 1620 0
 1916 005e 054B     		ldr	r3, .L90+4
 1917 0060 3A68     		ldr	r2, [r7]
 1918 0062 9200     		lsl	r2, r2, #2
 1919 0064 D358     		ldr	r3, [r2, r3]
 1920 0066 FA68     		ldr	r2, [r7, #12]
 1921 0068 1A60     		str	r2, [r3]
1621:Generated_Source\PSoC4/CapSense_1.c **** }
 1922              		.loc 1 1621 0
 1923 006a BD46     		mov	sp, r7
 1924 006c 04B0     		add	sp, sp, #16
 1925              		@ sp needed
 1926 006e 80BD     		pop	{r7, pc}
 1927              	.L91:
 1928              		.align	2
 1929              	.L90:
 1930 0070 00000000 		.word	CapSense_1_prtCfgTbl
 1931 0074 00000000 		.word	CapSense_1_prtSelTbl
 1932              		.cfi_endproc
 1933              	.LFE57:
 1934              		.size	CapSense_1_EnableShieldElectrode, .-CapSense_1_EnableShieldElectrode
 1935              		.section	.text.CapSense_1_SetShieldDelay,"ax",%progbits
 1936              		.align	2
 1937              		.global	CapSense_1_SetShieldDelay
 1938              		.code	16
 1939              		.thumb_func
 1940              		.type	CapSense_1_SetShieldDelay, %function
 1941              	CapSense_1_SetShieldDelay:
 1942              	.LFB58:
1622:Generated_Source\PSoC4/CapSense_1.c **** 
1623:Generated_Source\PSoC4/CapSense_1.c **** 
1624:Generated_Source\PSoC4/CapSense_1.c **** /*******************************************************************************
1625:Generated_Source\PSoC4/CapSense_1.c **** * Function Name: CapSense_1_SetShieldDelay
1626:Generated_Source\PSoC4/CapSense_1.c **** ********************************************************************************
1627:Generated_Source\PSoC4/CapSense_1.c **** *
1628:Generated_Source\PSoC4/CapSense_1.c **** * Summary:
1629:Generated_Source\PSoC4/CapSense_1.c **** *  This API sets a shield delay.
1630:Generated_Source\PSoC4/CapSense_1.c **** *
1631:Generated_Source\PSoC4/CapSense_1.c **** * Parameters:
1632:Generated_Source\PSoC4/CapSense_1.c **** *  delay:  shield delay value:
1633:Generated_Source\PSoC4/CapSense_1.c **** *                               0 - no delay
1634:Generated_Source\PSoC4/CapSense_1.c **** *                               1 - 1 cycle delay
1635:Generated_Source\PSoC4/CapSense_1.c **** *                               2 - 2 cycles delay
1636:Generated_Source\PSoC4/CapSense_1.c **** *
1637:Generated_Source\PSoC4/CapSense_1.c **** * Return:
1638:Generated_Source\PSoC4/CapSense_1.c **** *  None
ARM GAS  C:\Users\IGOR~1.HOL\AppData\Local\Temp\ccdi3Ihk.s 			page 64


1639:Generated_Source\PSoC4/CapSense_1.c **** *
1640:Generated_Source\PSoC4/CapSense_1.c **** * Global Variables:
1641:Generated_Source\PSoC4/CapSense_1.c **** *  None
1642:Generated_Source\PSoC4/CapSense_1.c **** *
1643:Generated_Source\PSoC4/CapSense_1.c **** * Side Effects:
1644:Generated_Source\PSoC4/CapSense_1.c **** *  None
1645:Generated_Source\PSoC4/CapSense_1.c **** *
1646:Generated_Source\PSoC4/CapSense_1.c **** *******************************************************************************/
1647:Generated_Source\PSoC4/CapSense_1.c **** void CapSense_1_SetShieldDelay(uint32 delay)
1648:Generated_Source\PSoC4/CapSense_1.c **** {
 1943              		.loc 1 1648 0
 1944              		.cfi_startproc
 1945 0000 80B5     		push	{r7, lr}
 1946              		.cfi_def_cfa_offset 8
 1947              		.cfi_offset 7, -8
 1948              		.cfi_offset 14, -4
 1949 0002 84B0     		sub	sp, sp, #16
 1950              		.cfi_def_cfa_offset 24
 1951 0004 00AF     		add	r7, sp, #0
 1952              		.cfi_def_cfa_register 7
 1953 0006 7860     		str	r0, [r7, #4]
1649:Generated_Source\PSoC4/CapSense_1.c ****     uint32 newRegValue;
1650:Generated_Source\PSoC4/CapSense_1.c **** 
1651:Generated_Source\PSoC4/CapSense_1.c ****     delay &= 0x03u;
 1954              		.loc 1 1651 0
 1955 0008 7B68     		ldr	r3, [r7, #4]
 1956 000a 0322     		mov	r2, #3
 1957 000c 1340     		and	r3, r2
 1958 000e 7B60     		str	r3, [r7, #4]
1652:Generated_Source\PSoC4/CapSense_1.c **** 
1653:Generated_Source\PSoC4/CapSense_1.c ****     newRegValue = CapSense_1_CSD_CFG_REG;
 1959              		.loc 1 1653 0
 1960 0010 064B     		ldr	r3, .L93
 1961 0012 1B68     		ldr	r3, [r3]
 1962 0014 FB60     		str	r3, [r7, #12]
1654:Generated_Source\PSoC4/CapSense_1.c ****     newRegValue &= (uint32)(~(uint32)CapSense_1_SHIELD_DELAY);
1655:Generated_Source\PSoC4/CapSense_1.c ****     newRegValue |= (delay << CapSense_1_CSD_CFG_SHIELD_DELAY_POS);
 1963              		.loc 1 1655 0
 1964 0016 7B68     		ldr	r3, [r7, #4]
 1965 0018 5B02     		lsl	r3, r3, #9
 1966 001a FA68     		ldr	r2, [r7, #12]
 1967 001c 1343     		orr	r3, r2
 1968 001e FB60     		str	r3, [r7, #12]
1656:Generated_Source\PSoC4/CapSense_1.c ****     CapSense_1_CSD_CFG_REG = newRegValue;
 1969              		.loc 1 1656 0
 1970 0020 024B     		ldr	r3, .L93
 1971 0022 FA68     		ldr	r2, [r7, #12]
 1972 0024 1A60     		str	r2, [r3]
1657:Generated_Source\PSoC4/CapSense_1.c **** }
 1973              		.loc 1 1657 0
 1974 0026 BD46     		mov	sp, r7
 1975 0028 04B0     		add	sp, sp, #16
 1976              		@ sp needed
 1977 002a 80BD     		pop	{r7, pc}
 1978              	.L94:
 1979              		.align	2
 1980              	.L93:
ARM GAS  C:\Users\IGOR~1.HOL\AppData\Local\Temp\ccdi3Ihk.s 			page 65


 1981 002c 04002940 		.word	1076428804
 1982              		.cfi_endproc
 1983              	.LFE58:
 1984              		.size	CapSense_1_SetShieldDelay, .-CapSense_1_SetShieldDelay
 1985              		.section	.text.CapSense_1_ReadCurrentScanningSensor,"ax",%progbits
 1986              		.align	2
 1987              		.global	CapSense_1_ReadCurrentScanningSensor
 1988              		.code	16
 1989              		.thumb_func
 1990              		.type	CapSense_1_ReadCurrentScanningSensor, %function
 1991              	CapSense_1_ReadCurrentScanningSensor:
 1992              	.LFB59:
1658:Generated_Source\PSoC4/CapSense_1.c **** 
1659:Generated_Source\PSoC4/CapSense_1.c **** 
1660:Generated_Source\PSoC4/CapSense_1.c **** /*******************************************************************************
1661:Generated_Source\PSoC4/CapSense_1.c **** * Function Name: CapSense_1_ReadCurrentScanningSensor
1662:Generated_Source\PSoC4/CapSense_1.c **** ********************************************************************************
1663:Generated_Source\PSoC4/CapSense_1.c **** *
1664:Generated_Source\PSoC4/CapSense_1.c **** * Summary:
1665:Generated_Source\PSoC4/CapSense_1.c **** *  This API returns scanning sensor number when sensor scan is in progress.
1666:Generated_Source\PSoC4/CapSense_1.c **** *  When sensor scan is completed the API returns
1667:Generated_Source\PSoC4/CapSense_1.c **** *  $INSTANCE_NAME`_NOT_SENSOR (0xFFFFFFFF) (when no sensor is scanned).
1668:Generated_Source\PSoC4/CapSense_1.c **** *
1669:Generated_Source\PSoC4/CapSense_1.c **** * Parameters:
1670:Generated_Source\PSoC4/CapSense_1.c **** *   None.
1671:Generated_Source\PSoC4/CapSense_1.c **** *
1672:Generated_Source\PSoC4/CapSense_1.c **** * Return:
1673:Generated_Source\PSoC4/CapSense_1.c **** *  Returns Sensor number if sensor is being scanned and
1674:Generated_Source\PSoC4/CapSense_1.c **** *  $INSTANCE_NAME`_NOT_SENSOR (0xFFFFFFFF) if scanning is complete.
1675:Generated_Source\PSoC4/CapSense_1.c **** *
1676:Generated_Source\PSoC4/CapSense_1.c **** * Global Variables:
1677:Generated_Source\PSoC4/CapSense_1.c **** *  CapSense_1_sensorIndex - the sensor number is being scanned.
1678:Generated_Source\PSoC4/CapSense_1.c **** *
1679:Generated_Source\PSoC4/CapSense_1.c **** * Side Effects:
1680:Generated_Source\PSoC4/CapSense_1.c **** *  None
1681:Generated_Source\PSoC4/CapSense_1.c **** *
1682:Generated_Source\PSoC4/CapSense_1.c **** *******************************************************************************/
1683:Generated_Source\PSoC4/CapSense_1.c **** uint32 CapSense_1_ReadCurrentScanningSensor(void)
1684:Generated_Source\PSoC4/CapSense_1.c **** {
 1993              		.loc 1 1684 0
 1994              		.cfi_startproc
 1995 0000 80B5     		push	{r7, lr}
 1996              		.cfi_def_cfa_offset 8
 1997              		.cfi_offset 7, -8
 1998              		.cfi_offset 14, -4
 1999 0002 00AF     		add	r7, sp, #0
 2000              		.cfi_def_cfa_register 7
1685:Generated_Source\PSoC4/CapSense_1.c ****     return ((uint32)(( 0u != (CapSense_1_csdStatusVar & CapSense_1_SW_STS_BUSY)) ?
 2001              		.loc 1 1685 0
 2002 0004 074B     		ldr	r3, .L99
 2003 0006 1B78     		ldrb	r3, [r3]
 2004 0008 DBB2     		uxtb	r3, r3
 2005 000a 1A1C     		mov	r2, r3
 2006 000c 0123     		mov	r3, #1
 2007 000e 1340     		and	r3, r2
 2008 0010 03D0     		beq	.L96
 2009              		.loc 1 1685 0 is_stmt 0 discriminator 1
ARM GAS  C:\Users\IGOR~1.HOL\AppData\Local\Temp\ccdi3Ihk.s 			page 66


 2010 0012 054B     		ldr	r3, .L99+4
 2011 0014 1B78     		ldrb	r3, [r3]
 2012 0016 DBB2     		uxtb	r3, r3
 2013 0018 01E0     		b	.L97
 2014              	.L96:
 2015              		.loc 1 1685 0 discriminator 2
 2016 001a 0123     		mov	r3, #1
 2017 001c 5B42     		neg	r3, r3
 2018              	.L97:
1686:Generated_Source\PSoC4/CapSense_1.c ****                      CapSense_1_sensorIndex : CapSense_1_NOT_SENSOR));
1687:Generated_Source\PSoC4/CapSense_1.c **** }
 2019              		.loc 1 1687 0 is_stmt 1 discriminator 4
 2020 001e 181C     		mov	r0, r3
 2021 0020 BD46     		mov	sp, r7
 2022              		@ sp needed
 2023 0022 80BD     		pop	{r7, pc}
 2024              	.L100:
 2025              		.align	2
 2026              	.L99:
 2027 0024 00000000 		.word	CapSense_1_csdStatusVar
 2028 0028 00000000 		.word	CapSense_1_sensorIndex
 2029              		.cfi_endproc
 2030              	.LFE59:
 2031              		.size	CapSense_1_ReadCurrentScanningSensor, .-CapSense_1_ReadCurrentScanningSensor
 2032              		.section	.text.CapSense_1_GetBitValue,"ax",%progbits
 2033              		.align	2
 2034              		.global	CapSense_1_GetBitValue
 2035              		.code	16
 2036              		.thumb_func
 2037              		.type	CapSense_1_GetBitValue, %function
 2038              	CapSense_1_GetBitValue:
 2039              	.LFB60:
1688:Generated_Source\PSoC4/CapSense_1.c **** 
1689:Generated_Source\PSoC4/CapSense_1.c **** 
1690:Generated_Source\PSoC4/CapSense_1.c **** /*******************************************************************************
1691:Generated_Source\PSoC4/CapSense_1.c **** * Function Name: CapSense_1_GetBitValue
1692:Generated_Source\PSoC4/CapSense_1.c **** ********************************************************************************
1693:Generated_Source\PSoC4/CapSense_1.c **** *
1694:Generated_Source\PSoC4/CapSense_1.c **** * Summary:
1695:Generated_Source\PSoC4/CapSense_1.c **** *  The API returns a bit status of the bit in the table array which contains the masks.
1696:Generated_Source\PSoC4/CapSense_1.c **** *
1697:Generated_Source\PSoC4/CapSense_1.c **** * Parameters:
1698:Generated_Source\PSoC4/CapSense_1.c **** *  table[] - array with bit masks.
1699:Generated_Source\PSoC4/CapSense_1.c **** *  position - position of bit in the table[] array.
1700:Generated_Source\PSoC4/CapSense_1.c **** *
1701:Generated_Source\PSoC4/CapSense_1.c **** * Return:
1702:Generated_Source\PSoC4/CapSense_1.c **** *  0 - bit is not set; 1 - bit is set.
1703:Generated_Source\PSoC4/CapSense_1.c **** *
1704:Generated_Source\PSoC4/CapSense_1.c **** * Global Variables:
1705:Generated_Source\PSoC4/CapSense_1.c **** *  None
1706:Generated_Source\PSoC4/CapSense_1.c **** *
1707:Generated_Source\PSoC4/CapSense_1.c **** * Side Effects:
1708:Generated_Source\PSoC4/CapSense_1.c **** *  None
1709:Generated_Source\PSoC4/CapSense_1.c **** *
1710:Generated_Source\PSoC4/CapSense_1.c **** *******************************************************************************/
1711:Generated_Source\PSoC4/CapSense_1.c **** uint32 CapSense_1_GetBitValue(const uint8 table[], uint32 position)
1712:Generated_Source\PSoC4/CapSense_1.c **** {
ARM GAS  C:\Users\IGOR~1.HOL\AppData\Local\Temp\ccdi3Ihk.s 			page 67


 2040              		.loc 1 1712 0
 2041              		.cfi_startproc
 2042 0000 80B5     		push	{r7, lr}
 2043              		.cfi_def_cfa_offset 8
 2044              		.cfi_offset 7, -8
 2045              		.cfi_offset 14, -4
 2046 0002 84B0     		sub	sp, sp, #16
 2047              		.cfi_def_cfa_offset 24
 2048 0004 00AF     		add	r7, sp, #0
 2049              		.cfi_def_cfa_register 7
 2050 0006 7860     		str	r0, [r7, #4]
 2051 0008 3960     		str	r1, [r7]
1713:Generated_Source\PSoC4/CapSense_1.c ****     uint32 offset;
1714:Generated_Source\PSoC4/CapSense_1.c ****     uint8 enMask;
1715:Generated_Source\PSoC4/CapSense_1.c **** 
1716:Generated_Source\PSoC4/CapSense_1.c ****     /* position is divided by 8 to calculate the element of the
1717:Generated_Source\PSoC4/CapSense_1.c ****        table[] array that contains the enable bit
1718:Generated_Source\PSoC4/CapSense_1.c ****        for an appropriate sensor.
1719:Generated_Source\PSoC4/CapSense_1.c ****     */
1720:Generated_Source\PSoC4/CapSense_1.c ****     offset = (position >> 3u);
 2052              		.loc 1 1720 0
 2053 000a 3B68     		ldr	r3, [r7]
 2054 000c DB08     		lsr	r3, r3, #3
 2055 000e FB60     		str	r3, [r7, #12]
1721:Generated_Source\PSoC4/CapSense_1.c **** 
1722:Generated_Source\PSoC4/CapSense_1.c ****     /* The enMask calculation for the appropriate sensor. Operation (position & 0x07u)
1723:Generated_Source\PSoC4/CapSense_1.c ****        intends to calculate the enable bit offset for the 8-bit element of the
1724:Generated_Source\PSoC4/CapSense_1.c ****        table[] array.
1725:Generated_Source\PSoC4/CapSense_1.c ****     */
1726:Generated_Source\PSoC4/CapSense_1.c ****     enMask = 0x01u << (position & 0x07u);
 2056              		.loc 1 1726 0
 2057 0010 3B68     		ldr	r3, [r7]
 2058 0012 0722     		mov	r2, #7
 2059 0014 1340     		and	r3, r2
 2060 0016 0122     		mov	r2, #1
 2061 0018 9A40     		lsl	r2, r2, r3
 2062 001a 0B23     		mov	r3, #11
 2063 001c FB18     		add	r3, r7, r3
 2064 001e 1A70     		strb	r2, [r3]
1727:Generated_Source\PSoC4/CapSense_1.c **** 
1728:Generated_Source\PSoC4/CapSense_1.c ****     return ((0u !=(table[offset] & enMask)) ? 1Lu : 0Lu);
 2065              		.loc 1 1728 0
 2066 0020 7A68     		ldr	r2, [r7, #4]
 2067 0022 FB68     		ldr	r3, [r7, #12]
 2068 0024 D318     		add	r3, r2, r3
 2069 0026 1B78     		ldrb	r3, [r3]
 2070 0028 0B22     		mov	r2, #11
 2071 002a BA18     		add	r2, r7, r2
 2072 002c 1278     		ldrb	r2, [r2]
 2073 002e 1340     		and	r3, r2
 2074 0030 DBB2     		uxtb	r3, r3
 2075 0032 002B     		cmp	r3, #0
 2076 0034 01D0     		beq	.L102
 2077              		.loc 1 1728 0 is_stmt 0 discriminator 1
 2078 0036 0123     		mov	r3, #1
 2079 0038 00E0     		b	.L103
 2080              	.L102:
ARM GAS  C:\Users\IGOR~1.HOL\AppData\Local\Temp\ccdi3Ihk.s 			page 68


 2081              		.loc 1 1728 0 discriminator 2
 2082 003a 0023     		mov	r3, #0
 2083              	.L103:
1729:Generated_Source\PSoC4/CapSense_1.c **** }
 2084              		.loc 1 1729 0 is_stmt 1 discriminator 4
 2085 003c 181C     		mov	r0, r3
 2086 003e BD46     		mov	sp, r7
 2087 0040 04B0     		add	sp, sp, #16
 2088              		@ sp needed
 2089 0042 80BD     		pop	{r7, pc}
 2090              		.cfi_endproc
 2091              	.LFE60:
 2092              		.size	CapSense_1_GetBitValue, .-CapSense_1_GetBitValue
 2093              		.section	.text.CapSense_1_SetBitValue,"ax",%progbits
 2094              		.align	2
 2095              		.global	CapSense_1_SetBitValue
 2096              		.code	16
 2097              		.thumb_func
 2098              		.type	CapSense_1_SetBitValue, %function
 2099              	CapSense_1_SetBitValue:
 2100              	.LFB61:
1730:Generated_Source\PSoC4/CapSense_1.c **** 
1731:Generated_Source\PSoC4/CapSense_1.c **** 
1732:Generated_Source\PSoC4/CapSense_1.c **** /*******************************************************************************
1733:Generated_Source\PSoC4/CapSense_1.c **** * Function Name: CapSense_1_SetBitValue
1734:Generated_Source\PSoC4/CapSense_1.c **** ********************************************************************************
1735:Generated_Source\PSoC4/CapSense_1.c **** *
1736:Generated_Source\PSoC4/CapSense_1.c **** * Summary:
1737:Generated_Source\PSoC4/CapSense_1.c **** *  The API sets a bit status of the bit in the table array which contains masks.
1738:Generated_Source\PSoC4/CapSense_1.c **** *
1739:Generated_Source\PSoC4/CapSense_1.c **** * Parameters:
1740:Generated_Source\PSoC4/CapSense_1.c **** *  table[] - array with bit masks.
1741:Generated_Source\PSoC4/CapSense_1.c **** *  position - position of bit in the table[] array.
1742:Generated_Source\PSoC4/CapSense_1.c **** *  value: 0 - bit is not set; 1 - bit is set.
1743:Generated_Source\PSoC4/CapSense_1.c **** *
1744:Generated_Source\PSoC4/CapSense_1.c **** * Return:
1745:Generated_Source\PSoC4/CapSense_1.c **** *  None
1746:Generated_Source\PSoC4/CapSense_1.c **** *
1747:Generated_Source\PSoC4/CapSense_1.c **** * Global Variables:
1748:Generated_Source\PSoC4/CapSense_1.c **** *  None
1749:Generated_Source\PSoC4/CapSense_1.c **** *
1750:Generated_Source\PSoC4/CapSense_1.c **** * Side Effects:
1751:Generated_Source\PSoC4/CapSense_1.c **** *  None
1752:Generated_Source\PSoC4/CapSense_1.c **** *
1753:Generated_Source\PSoC4/CapSense_1.c **** *******************************************************************************/
1754:Generated_Source\PSoC4/CapSense_1.c **** void CapSense_1_SetBitValue(uint8 table[], uint32 position, uint32 value)
1755:Generated_Source\PSoC4/CapSense_1.c **** {
 2101              		.loc 1 1755 0
 2102              		.cfi_startproc
 2103 0000 80B5     		push	{r7, lr}
 2104              		.cfi_def_cfa_offset 8
 2105              		.cfi_offset 7, -8
 2106              		.cfi_offset 14, -4
 2107 0002 86B0     		sub	sp, sp, #24
 2108              		.cfi_def_cfa_offset 32
 2109 0004 00AF     		add	r7, sp, #0
 2110              		.cfi_def_cfa_register 7
ARM GAS  C:\Users\IGOR~1.HOL\AppData\Local\Temp\ccdi3Ihk.s 			page 69


 2111 0006 F860     		str	r0, [r7, #12]
 2112 0008 B960     		str	r1, [r7, #8]
 2113 000a 7A60     		str	r2, [r7, #4]
1756:Generated_Source\PSoC4/CapSense_1.c ****     uint32 offset;
1757:Generated_Source\PSoC4/CapSense_1.c ****     uint8 enMask;
1758:Generated_Source\PSoC4/CapSense_1.c **** 
1759:Generated_Source\PSoC4/CapSense_1.c ****     /* position is divided by 8 to calculate the element of the
1760:Generated_Source\PSoC4/CapSense_1.c ****        table[] array that contains the enable bit
1761:Generated_Source\PSoC4/CapSense_1.c ****        for an appropriate sensor.
1762:Generated_Source\PSoC4/CapSense_1.c ****     */
1763:Generated_Source\PSoC4/CapSense_1.c ****     offset = (position >> 3u);
 2114              		.loc 1 1763 0
 2115 000c BB68     		ldr	r3, [r7, #8]
 2116 000e DB08     		lsr	r3, r3, #3
 2117 0010 7B61     		str	r3, [r7, #20]
1764:Generated_Source\PSoC4/CapSense_1.c **** 
1765:Generated_Source\PSoC4/CapSense_1.c ****     /* The enMask calculation for the appropriate sensor. Operation (position & 0x07u)
1766:Generated_Source\PSoC4/CapSense_1.c ****        intends to calculate the enable bit offset for the 8-bit element of the
1767:Generated_Source\PSoC4/CapSense_1.c ****        table[] array.
1768:Generated_Source\PSoC4/CapSense_1.c ****     */
1769:Generated_Source\PSoC4/CapSense_1.c ****     enMask = 0x01u << (position & 0x07u);
 2118              		.loc 1 1769 0
 2119 0012 BB68     		ldr	r3, [r7, #8]
 2120 0014 0722     		mov	r2, #7
 2121 0016 1340     		and	r3, r2
 2122 0018 0122     		mov	r2, #1
 2123 001a 9A40     		lsl	r2, r2, r3
 2124 001c 1323     		mov	r3, #19
 2125 001e FB18     		add	r3, r7, r3
 2126 0020 1A70     		strb	r2, [r3]
1770:Generated_Source\PSoC4/CapSense_1.c **** 
1771:Generated_Source\PSoC4/CapSense_1.c ****     if(0u != value)
 2127              		.loc 1 1771 0
 2128 0022 7B68     		ldr	r3, [r7, #4]
 2129 0024 002B     		cmp	r3, #0
 2130 0026 0DD0     		beq	.L106
1772:Generated_Source\PSoC4/CapSense_1.c ****     {
1773:Generated_Source\PSoC4/CapSense_1.c ****         table[offset] |= enMask;
 2131              		.loc 1 1773 0
 2132 0028 FA68     		ldr	r2, [r7, #12]
 2133 002a 7B69     		ldr	r3, [r7, #20]
 2134 002c D318     		add	r3, r2, r3
 2135 002e F968     		ldr	r1, [r7, #12]
 2136 0030 7A69     		ldr	r2, [r7, #20]
 2137 0032 8A18     		add	r2, r1, r2
 2138 0034 1178     		ldrb	r1, [r2]
 2139 0036 1322     		mov	r2, #19
 2140 0038 BA18     		add	r2, r7, r2
 2141 003a 1278     		ldrb	r2, [r2]
 2142 003c 0A43     		orr	r2, r1
 2143 003e D2B2     		uxtb	r2, r2
 2144 0040 1A70     		strb	r2, [r3]
 2145 0042 0EE0     		b	.L105
 2146              	.L106:
1774:Generated_Source\PSoC4/CapSense_1.c ****     }
1775:Generated_Source\PSoC4/CapSense_1.c ****     else
1776:Generated_Source\PSoC4/CapSense_1.c ****     {
ARM GAS  C:\Users\IGOR~1.HOL\AppData\Local\Temp\ccdi3Ihk.s 			page 70


1777:Generated_Source\PSoC4/CapSense_1.c ****         table[offset] &= (uint8)~(enMask);
 2147              		.loc 1 1777 0
 2148 0044 FA68     		ldr	r2, [r7, #12]
 2149 0046 7B69     		ldr	r3, [r7, #20]
 2150 0048 D318     		add	r3, r2, r3
 2151 004a F968     		ldr	r1, [r7, #12]
 2152 004c 7A69     		ldr	r2, [r7, #20]
 2153 004e 8A18     		add	r2, r1, r2
 2154 0050 1278     		ldrb	r2, [r2]
 2155 0052 1321     		mov	r1, #19
 2156 0054 7918     		add	r1, r7, r1
 2157 0056 0978     		ldrb	r1, [r1]
 2158 0058 C943     		mvn	r1, r1
 2159 005a C9B2     		uxtb	r1, r1
 2160 005c 0A40     		and	r2, r1
 2161 005e D2B2     		uxtb	r2, r2
 2162 0060 1A70     		strb	r2, [r3]
 2163              	.L105:
1778:Generated_Source\PSoC4/CapSense_1.c ****     }
1779:Generated_Source\PSoC4/CapSense_1.c **** }
 2164              		.loc 1 1779 0
 2165 0062 BD46     		mov	sp, r7
 2166 0064 06B0     		add	sp, sp, #24
 2167              		@ sp needed
 2168 0066 80BD     		pop	{r7, pc}
 2169              		.cfi_endproc
 2170              	.LFE61:
 2171              		.size	CapSense_1_SetBitValue, .-CapSense_1_SetBitValue
 2172              		.section	.text.CapSense_1_GetSenseClkDivider,"ax",%progbits
 2173              		.align	2
 2174              		.global	CapSense_1_GetSenseClkDivider
 2175              		.code	16
 2176              		.thumb_func
 2177              		.type	CapSense_1_GetSenseClkDivider, %function
 2178              	CapSense_1_GetSenseClkDivider:
 2179              	.LFB62:
1780:Generated_Source\PSoC4/CapSense_1.c **** 
1781:Generated_Source\PSoC4/CapSense_1.c **** 
1782:Generated_Source\PSoC4/CapSense_1.c **** 
1783:Generated_Source\PSoC4/CapSense_1.c **** /*******************************************************************************
1784:Generated_Source\PSoC4/CapSense_1.c **** * Function Name: CapSense_1_GetSenseClkDivider
1785:Generated_Source\PSoC4/CapSense_1.c **** ********************************************************************************
1786:Generated_Source\PSoC4/CapSense_1.c **** *
1787:Generated_Source\PSoC4/CapSense_1.c **** * Summary:
1788:Generated_Source\PSoC4/CapSense_1.c **** *  This API returns a value of the sense clock divider for the  sensor.
1789:Generated_Source\PSoC4/CapSense_1.c **** *
1790:Generated_Source\PSoC4/CapSense_1.c **** * Parameters:
1791:Generated_Source\PSoC4/CapSense_1.c **** *  sensor: sensor index. The index value can be
1792:Generated_Source\PSoC4/CapSense_1.c **** *  from 0 to (CapSense_1_TOTAL_SENSOR_COUNT-1).
1793:Generated_Source\PSoC4/CapSense_1.c **** *
1794:Generated_Source\PSoC4/CapSense_1.c **** * Return:
1795:Generated_Source\PSoC4/CapSense_1.c **** *  This API returns the sense clock divider of the sensor.
1796:Generated_Source\PSoC4/CapSense_1.c **** *
1797:Generated_Source\PSoC4/CapSense_1.c **** * Global Variables:
1798:Generated_Source\PSoC4/CapSense_1.c **** *  CapSense_1_senseClkDividerVal[] - stores the sense clock divider values.
1799:Generated_Source\PSoC4/CapSense_1.c **** *
1800:Generated_Source\PSoC4/CapSense_1.c **** * Side Effects:
ARM GAS  C:\Users\IGOR~1.HOL\AppData\Local\Temp\ccdi3Ihk.s 			page 71


1801:Generated_Source\PSoC4/CapSense_1.c **** *  None
1802:Generated_Source\PSoC4/CapSense_1.c **** *
1803:Generated_Source\PSoC4/CapSense_1.c **** *******************************************************************************/
1804:Generated_Source\PSoC4/CapSense_1.c **** uint32 CapSense_1_GetSenseClkDivider(uint32 sensor)
1805:Generated_Source\PSoC4/CapSense_1.c **** {
 2180              		.loc 1 1805 0
 2181              		.cfi_startproc
 2182 0000 80B5     		push	{r7, lr}
 2183              		.cfi_def_cfa_offset 8
 2184              		.cfi_offset 7, -8
 2185              		.cfi_offset 14, -4
 2186 0002 82B0     		sub	sp, sp, #8
 2187              		.cfi_def_cfa_offset 16
 2188 0004 00AF     		add	r7, sp, #0
 2189              		.cfi_def_cfa_register 7
 2190 0006 7860     		str	r0, [r7, #4]
1806:Generated_Source\PSoC4/CapSense_1.c ****     #if(0u != CapSense_1_MULTIPLE_FREQUENCY_SET)
1807:Generated_Source\PSoC4/CapSense_1.c ****         return((uint32)CapSense_1_senseClkDividerVal[sensor]);
 2191              		.loc 1 1807 0
 2192 0008 034A     		ldr	r2, .L110
 2193 000a 7B68     		ldr	r3, [r7, #4]
 2194 000c D318     		add	r3, r2, r3
 2195 000e 1B78     		ldrb	r3, [r3]
1808:Generated_Source\PSoC4/CapSense_1.c ****     #else
1809:Generated_Source\PSoC4/CapSense_1.c ****         return((uint32)CapSense_1_senseClkDividerVal);
1810:Generated_Source\PSoC4/CapSense_1.c ****     #endif /* (0u != CapSense_1_MULTIPLE_FREQUENCY_SET) */
1811:Generated_Source\PSoC4/CapSense_1.c **** }
 2196              		.loc 1 1811 0
 2197 0010 181C     		mov	r0, r3
 2198 0012 BD46     		mov	sp, r7
 2199 0014 02B0     		add	sp, sp, #8
 2200              		@ sp needed
 2201 0016 80BD     		pop	{r7, pc}
 2202              	.L111:
 2203              		.align	2
 2204              	.L110:
 2205 0018 00000000 		.word	CapSense_1_senseClkDividerVal
 2206              		.cfi_endproc
 2207              	.LFE62:
 2208              		.size	CapSense_1_GetSenseClkDivider, .-CapSense_1_GetSenseClkDivider
 2209              		.section	.text.CapSense_1_SetSenseClkDivider,"ax",%progbits
 2210              		.align	2
 2211              		.global	CapSense_1_SetSenseClkDivider
 2212              		.code	16
 2213              		.thumb_func
 2214              		.type	CapSense_1_SetSenseClkDivider, %function
 2215              	CapSense_1_SetSenseClkDivider:
 2216              	.LFB63:
1812:Generated_Source\PSoC4/CapSense_1.c **** 
1813:Generated_Source\PSoC4/CapSense_1.c **** #if (CapSense_1_TUNING_METHOD != CapSense_1__TUNING_NONE)
1814:Generated_Source\PSoC4/CapSense_1.c ****     /*******************************************************************************
1815:Generated_Source\PSoC4/CapSense_1.c ****     * Function Name: CapSense_1_SetSenseClkDivider
1816:Generated_Source\PSoC4/CapSense_1.c ****     ********************************************************************************
1817:Generated_Source\PSoC4/CapSense_1.c ****     *
1818:Generated_Source\PSoC4/CapSense_1.c ****     * Summary:
1819:Generated_Source\PSoC4/CapSense_1.c ****     *  This API sets a value of the sense clock divider for the  sensor.
1820:Generated_Source\PSoC4/CapSense_1.c ****     *
ARM GAS  C:\Users\IGOR~1.HOL\AppData\Local\Temp\ccdi3Ihk.s 			page 72


1821:Generated_Source\PSoC4/CapSense_1.c ****     * Parameters:
1822:Generated_Source\PSoC4/CapSense_1.c ****     *  sensor:  Sensor index.
1823:Generated_Source\PSoC4/CapSense_1.c ****     *  senseClk: represents the sense clock value.
1824:Generated_Source\PSoC4/CapSense_1.c ****     *
1825:Generated_Source\PSoC4/CapSense_1.c ****     * Return:
1826:Generated_Source\PSoC4/CapSense_1.c ****     *  None.
1827:Generated_Source\PSoC4/CapSense_1.c ****     *
1828:Generated_Source\PSoC4/CapSense_1.c ****     * Global Variables:
1829:Generated_Source\PSoC4/CapSense_1.c ****     *  CapSense_1_senseClkDividerVal[] - stores the sense clock divider values.
1830:Generated_Source\PSoC4/CapSense_1.c ****     *
1831:Generated_Source\PSoC4/CapSense_1.c ****     * Side Effects:
1832:Generated_Source\PSoC4/CapSense_1.c ****     *  None
1833:Generated_Source\PSoC4/CapSense_1.c ****     *
1834:Generated_Source\PSoC4/CapSense_1.c ****     *******************************************************************************/
1835:Generated_Source\PSoC4/CapSense_1.c ****     void CapSense_1_SetSenseClkDivider(uint32 sensor, uint32 senseClk)
1836:Generated_Source\PSoC4/CapSense_1.c ****     {
 2217              		.loc 1 1836 0
 2218              		.cfi_startproc
 2219 0000 80B5     		push	{r7, lr}
 2220              		.cfi_def_cfa_offset 8
 2221              		.cfi_offset 7, -8
 2222              		.cfi_offset 14, -4
 2223 0002 82B0     		sub	sp, sp, #8
 2224              		.cfi_def_cfa_offset 16
 2225 0004 00AF     		add	r7, sp, #0
 2226              		.cfi_def_cfa_register 7
 2227 0006 7860     		str	r0, [r7, #4]
 2228 0008 3960     		str	r1, [r7]
1837:Generated_Source\PSoC4/CapSense_1.c ****         #if(0u != CapSense_1_MULTIPLE_FREQUENCY_SET)
1838:Generated_Source\PSoC4/CapSense_1.c ****             CapSense_1_senseClkDividerVal[sensor] = (uint8)senseClk;
 2229              		.loc 1 1838 0
 2230 000a 3B68     		ldr	r3, [r7]
 2231 000c D9B2     		uxtb	r1, r3
 2232 000e 044A     		ldr	r2, .L113
 2233 0010 7B68     		ldr	r3, [r7, #4]
 2234 0012 D318     		add	r3, r2, r3
 2235 0014 0A1C     		add	r2, r1, #0
 2236 0016 1A70     		strb	r2, [r3]
1839:Generated_Source\PSoC4/CapSense_1.c ****         #else
1840:Generated_Source\PSoC4/CapSense_1.c ****             CapSense_1_senseClkDividerVal = (uint8)senseClk;
1841:Generated_Source\PSoC4/CapSense_1.c ****         #endif /* (0u != CapSense_1_MULTIPLE_FREQUENCY_SET) */
1842:Generated_Source\PSoC4/CapSense_1.c ****     }
 2237              		.loc 1 1842 0
 2238 0018 BD46     		mov	sp, r7
 2239 001a 02B0     		add	sp, sp, #8
 2240              		@ sp needed
 2241 001c 80BD     		pop	{r7, pc}
 2242              	.L114:
 2243 001e C046     		.align	2
 2244              	.L113:
 2245 0020 00000000 		.word	CapSense_1_senseClkDividerVal
 2246              		.cfi_endproc
 2247              	.LFE63:
 2248              		.size	CapSense_1_SetSenseClkDivider, .-CapSense_1_SetSenseClkDivider
 2249              		.section	.text.CapSense_1_GetModulatorClkDivider,"ax",%progbits
 2250              		.align	2
 2251              		.global	CapSense_1_GetModulatorClkDivider
ARM GAS  C:\Users\IGOR~1.HOL\AppData\Local\Temp\ccdi3Ihk.s 			page 73


 2252              		.code	16
 2253              		.thumb_func
 2254              		.type	CapSense_1_GetModulatorClkDivider, %function
 2255              	CapSense_1_GetModulatorClkDivider:
 2256              	.LFB64:
1843:Generated_Source\PSoC4/CapSense_1.c **** #endif /* (CapSense_1_TUNING_METHOD != CapSense_1__TUNING_NONE) */
1844:Generated_Source\PSoC4/CapSense_1.c **** 
1845:Generated_Source\PSoC4/CapSense_1.c **** 
1846:Generated_Source\PSoC4/CapSense_1.c **** /*******************************************************************************
1847:Generated_Source\PSoC4/CapSense_1.c **** * Function Name: CapSense_1_GetModulatorClkDivider
1848:Generated_Source\PSoC4/CapSense_1.c **** ********************************************************************************
1849:Generated_Source\PSoC4/CapSense_1.c **** *
1850:Generated_Source\PSoC4/CapSense_1.c **** * Summary:
1851:Generated_Source\PSoC4/CapSense_1.c **** *  This API returns a value of the modulator sample clock divider for the  sensor.
1852:Generated_Source\PSoC4/CapSense_1.c **** *
1853:Generated_Source\PSoC4/CapSense_1.c **** * Parameters:
1854:Generated_Source\PSoC4/CapSense_1.c **** *  sensor: sensor index. The value of index can be
1855:Generated_Source\PSoC4/CapSense_1.c **** *  from 0 to (CapSense_1_TOTAL_SENSOR_COUNT-1).
1856:Generated_Source\PSoC4/CapSense_1.c **** *
1857:Generated_Source\PSoC4/CapSense_1.c **** * Return:
1858:Generated_Source\PSoC4/CapSense_1.c **** *  This API returns the modulator sample clock divider for the  sensor.
1859:Generated_Source\PSoC4/CapSense_1.c **** *
1860:Generated_Source\PSoC4/CapSense_1.c **** * Global Variables:
1861:Generated_Source\PSoC4/CapSense_1.c **** *  CapSense_1_sampleClkDividerVal[] - stores the modulator sample divider values.
1862:Generated_Source\PSoC4/CapSense_1.c **** *
1863:Generated_Source\PSoC4/CapSense_1.c **** * Side Effects:
1864:Generated_Source\PSoC4/CapSense_1.c **** *  None
1865:Generated_Source\PSoC4/CapSense_1.c **** *
1866:Generated_Source\PSoC4/CapSense_1.c **** *******************************************************************************/
1867:Generated_Source\PSoC4/CapSense_1.c **** uint32 CapSense_1_GetModulatorClkDivider(uint32 sensor)
1868:Generated_Source\PSoC4/CapSense_1.c **** {
 2257              		.loc 1 1868 0
 2258              		.cfi_startproc
 2259 0000 80B5     		push	{r7, lr}
 2260              		.cfi_def_cfa_offset 8
 2261              		.cfi_offset 7, -8
 2262              		.cfi_offset 14, -4
 2263 0002 82B0     		sub	sp, sp, #8
 2264              		.cfi_def_cfa_offset 16
 2265 0004 00AF     		add	r7, sp, #0
 2266              		.cfi_def_cfa_register 7
 2267 0006 7860     		str	r0, [r7, #4]
1869:Generated_Source\PSoC4/CapSense_1.c ****     #if(0u != CapSense_1_MULTIPLE_FREQUENCY_SET)
1870:Generated_Source\PSoC4/CapSense_1.c ****         return((uint32)CapSense_1_sampleClkDividerVal[sensor]);
 2268              		.loc 1 1870 0
 2269 0008 034A     		ldr	r2, .L117
 2270 000a 7B68     		ldr	r3, [r7, #4]
 2271 000c D318     		add	r3, r2, r3
 2272 000e 1B78     		ldrb	r3, [r3]
1871:Generated_Source\PSoC4/CapSense_1.c ****     #else
1872:Generated_Source\PSoC4/CapSense_1.c ****         return((uint32)CapSense_1_sampleClkDividerVal);
1873:Generated_Source\PSoC4/CapSense_1.c ****     #endif /* (0u != CapSense_1_MULTIPLE_FREQUENCY_SET) */
1874:Generated_Source\PSoC4/CapSense_1.c **** }
 2273              		.loc 1 1874 0
 2274 0010 181C     		mov	r0, r3
 2275 0012 BD46     		mov	sp, r7
 2276 0014 02B0     		add	sp, sp, #8
ARM GAS  C:\Users\IGOR~1.HOL\AppData\Local\Temp\ccdi3Ihk.s 			page 74


 2277              		@ sp needed
 2278 0016 80BD     		pop	{r7, pc}
 2279              	.L118:
 2280              		.align	2
 2281              	.L117:
 2282 0018 00000000 		.word	CapSense_1_sampleClkDividerVal
 2283              		.cfi_endproc
 2284              	.LFE64:
 2285              		.size	CapSense_1_GetModulatorClkDivider, .-CapSense_1_GetModulatorClkDivider
 2286              		.section	.text.CapSense_1_SetModulatorClkDivider,"ax",%progbits
 2287              		.align	2
 2288              		.global	CapSense_1_SetModulatorClkDivider
 2289              		.code	16
 2290              		.thumb_func
 2291              		.type	CapSense_1_SetModulatorClkDivider, %function
 2292              	CapSense_1_SetModulatorClkDivider:
 2293              	.LFB65:
1875:Generated_Source\PSoC4/CapSense_1.c **** 
1876:Generated_Source\PSoC4/CapSense_1.c **** #if (CapSense_1_TUNING_METHOD != CapSense_1__TUNING_NONE)
1877:Generated_Source\PSoC4/CapSense_1.c ****     /*******************************************************************************
1878:Generated_Source\PSoC4/CapSense_1.c ****     * Function Name: CapSense_1_SetModulatorClkDivider
1879:Generated_Source\PSoC4/CapSense_1.c ****     ********************************************************************************
1880:Generated_Source\PSoC4/CapSense_1.c ****     *
1881:Generated_Source\PSoC4/CapSense_1.c ****     * Summary:
1882:Generated_Source\PSoC4/CapSense_1.c ****     *  This API sets a value of the modulator sample clock divider for the  sensor.
1883:Generated_Source\PSoC4/CapSense_1.c ****     *
1884:Generated_Source\PSoC4/CapSense_1.c ****     * Parameters:
1885:Generated_Source\PSoC4/CapSense_1.c ****     *  sensor:  Sensor index.
1886:Generated_Source\PSoC4/CapSense_1.c ****     *  modulatorClk: represents the modulator sample clock value.
1887:Generated_Source\PSoC4/CapSense_1.c ****     *
1888:Generated_Source\PSoC4/CapSense_1.c ****     * Return:
1889:Generated_Source\PSoC4/CapSense_1.c ****     *  None.
1890:Generated_Source\PSoC4/CapSense_1.c ****     *
1891:Generated_Source\PSoC4/CapSense_1.c ****     * Global Variables:
1892:Generated_Source\PSoC4/CapSense_1.c ****     *  CapSense_1_sampleClkDividerVal[] - stores the modulator sample divider values.
1893:Generated_Source\PSoC4/CapSense_1.c ****     *
1894:Generated_Source\PSoC4/CapSense_1.c ****     * Side Effects:
1895:Generated_Source\PSoC4/CapSense_1.c ****     *  None
1896:Generated_Source\PSoC4/CapSense_1.c ****     *
1897:Generated_Source\PSoC4/CapSense_1.c ****     *******************************************************************************/
1898:Generated_Source\PSoC4/CapSense_1.c ****     void CapSense_1_SetModulatorClkDivider(uint32 sensor, uint32 modulatorClk)
1899:Generated_Source\PSoC4/CapSense_1.c ****     {
 2294              		.loc 1 1899 0
 2295              		.cfi_startproc
 2296 0000 80B5     		push	{r7, lr}
 2297              		.cfi_def_cfa_offset 8
 2298              		.cfi_offset 7, -8
 2299              		.cfi_offset 14, -4
 2300 0002 82B0     		sub	sp, sp, #8
 2301              		.cfi_def_cfa_offset 16
 2302 0004 00AF     		add	r7, sp, #0
 2303              		.cfi_def_cfa_register 7
 2304 0006 7860     		str	r0, [r7, #4]
 2305 0008 3960     		str	r1, [r7]
1900:Generated_Source\PSoC4/CapSense_1.c ****         #if(0u != CapSense_1_MULTIPLE_FREQUENCY_SET)
1901:Generated_Source\PSoC4/CapSense_1.c ****             CapSense_1_sampleClkDividerVal[sensor] = (uint8)modulatorClk;
 2306              		.loc 1 1901 0
ARM GAS  C:\Users\IGOR~1.HOL\AppData\Local\Temp\ccdi3Ihk.s 			page 75


 2307 000a 3B68     		ldr	r3, [r7]
 2308 000c D9B2     		uxtb	r1, r3
 2309 000e 044A     		ldr	r2, .L120
 2310 0010 7B68     		ldr	r3, [r7, #4]
 2311 0012 D318     		add	r3, r2, r3
 2312 0014 0A1C     		add	r2, r1, #0
 2313 0016 1A70     		strb	r2, [r3]
1902:Generated_Source\PSoC4/CapSense_1.c ****         #else
1903:Generated_Source\PSoC4/CapSense_1.c ****             CapSense_1_sampleClkDividerVal = (uint8)modulatorClk;
1904:Generated_Source\PSoC4/CapSense_1.c ****         #endif /* (0u != CapSense_1_MULTIPLE_FREQUENCY_SET) */
1905:Generated_Source\PSoC4/CapSense_1.c ****     }
 2314              		.loc 1 1905 0
 2315 0018 BD46     		mov	sp, r7
 2316 001a 02B0     		add	sp, sp, #8
 2317              		@ sp needed
 2318 001c 80BD     		pop	{r7, pc}
 2319              	.L121:
 2320 001e C046     		.align	2
 2321              	.L120:
 2322 0020 00000000 		.word	CapSense_1_sampleClkDividerVal
 2323              		.cfi_endproc
 2324              	.LFE65:
 2325              		.size	CapSense_1_SetModulatorClkDivider, .-CapSense_1_SetModulatorClkDivider
 2326              		.section	.text.CapSense_1_GetModulationIDAC,"ax",%progbits
 2327              		.align	2
 2328              		.global	CapSense_1_GetModulationIDAC
 2329              		.code	16
 2330              		.thumb_func
 2331              		.type	CapSense_1_GetModulationIDAC, %function
 2332              	CapSense_1_GetModulationIDAC:
 2333              	.LFB66:
1906:Generated_Source\PSoC4/CapSense_1.c **** #endif /* (CapSense_1_TUNING_METHOD != CapSense_1__TUNING_NONE) */
1907:Generated_Source\PSoC4/CapSense_1.c **** 
1908:Generated_Source\PSoC4/CapSense_1.c **** /*******************************************************************************
1909:Generated_Source\PSoC4/CapSense_1.c **** * Function Name: CapSense_1_GetModulationIDAC
1910:Generated_Source\PSoC4/CapSense_1.c **** ********************************************************************************
1911:Generated_Source\PSoC4/CapSense_1.c **** *
1912:Generated_Source\PSoC4/CapSense_1.c **** * Summary:
1913:Generated_Source\PSoC4/CapSense_1.c **** *  This API returns a value of the modulation IDAC for the  sensor.
1914:Generated_Source\PSoC4/CapSense_1.c **** *
1915:Generated_Source\PSoC4/CapSense_1.c **** * Parameters:
1916:Generated_Source\PSoC4/CapSense_1.c **** *  sensor: sensor index. The index value can be
1917:Generated_Source\PSoC4/CapSense_1.c **** *  from 0 to (CapSense_1_TOTAL_SENSOR_COUNT-1).
1918:Generated_Source\PSoC4/CapSense_1.c **** *
1919:Generated_Source\PSoC4/CapSense_1.c **** * Return:
1920:Generated_Source\PSoC4/CapSense_1.c **** *  This API returns the modulation IDAC of the sensor.
1921:Generated_Source\PSoC4/CapSense_1.c **** *
1922:Generated_Source\PSoC4/CapSense_1.c **** * Global Variables:
1923:Generated_Source\PSoC4/CapSense_1.c **** *  CapSense_1_modulationIDAC[] - stores modulation IDAC values.
1924:Generated_Source\PSoC4/CapSense_1.c **** *
1925:Generated_Source\PSoC4/CapSense_1.c **** * Side Effects:
1926:Generated_Source\PSoC4/CapSense_1.c **** *  None
1927:Generated_Source\PSoC4/CapSense_1.c **** *
1928:Generated_Source\PSoC4/CapSense_1.c **** *******************************************************************************/
1929:Generated_Source\PSoC4/CapSense_1.c **** uint32 CapSense_1_GetModulationIDAC(uint32 sensor)
1930:Generated_Source\PSoC4/CapSense_1.c **** {
 2334              		.loc 1 1930 0
