ARM GAS  C:\Users\IGOR~1.HOL\AppData\Local\Temp\cc8IZ2FY.s 			page 1


   1              		.cpu cortex-m0
   2              		.fpu softvfp
   3              		.eabi_attribute 20, 1
   4              		.eabi_attribute 21, 1
   5              		.eabi_attribute 23, 3
   6              		.eabi_attribute 24, 1
   7              		.eabi_attribute 25, 1
   8              		.eabi_attribute 26, 1
   9              		.eabi_attribute 30, 6
  10              		.eabi_attribute 34, 0
  11              		.eabi_attribute 18, 4
  12              		.code	16
  13              		.file	"CapSense_1_CSHL.c"
  14              		.text
  15              	.Ltext0:
  16              		.cfi_sections	.debug_frame
  17              		.comm	CapSense_1_rawFilterData1,2,4
  18              		.global	CapSense_1_sensorBaseline
  19              		.bss
  20              		.align	2
  21              		.type	CapSense_1_sensorBaseline, %object
  22              		.size	CapSense_1_sensorBaseline, 2
  23              	CapSense_1_sensorBaseline:
  24 0000 0000     		.space	2
  25              		.global	CapSense_1_sensorBaselineLow
  26 0002 0000     		.align	2
  27              		.type	CapSense_1_sensorBaselineLow, %object
  28              		.size	CapSense_1_sensorBaselineLow, 1
  29              	CapSense_1_sensorBaselineLow:
  30 0004 00       		.space	1
  31              		.global	CapSense_1_sensorSignal
  32 0005 000000   		.align	2
  33              		.type	CapSense_1_sensorSignal, %object
  34              		.size	CapSense_1_sensorSignal, 1
  35              	CapSense_1_sensorSignal:
  36 0008 00       		.space	1
  37              		.global	CapSense_1_sensorOnMask
  38 0009 000000   		.align	2
  39              		.type	CapSense_1_sensorOnMask, %object
  40              		.size	CapSense_1_sensorOnMask, 1
  41              	CapSense_1_sensorOnMask:
  42 000c 00       		.space	1
  43              		.comm	CapSense_1_lowBaselineResetCnt,1,4
  44              		.global	CapSense_1_lowBaselineReset
  45              		.data
  46              		.align	2
  47              		.type	CapSense_1_lowBaselineReset, %object
  48              		.size	CapSense_1_lowBaselineReset, 1
  49              	CapSense_1_lowBaselineReset:
  50 0000 1E       		.byte	30
  51              		.global	CapSense_1_enableRawFilters
  52              		.type	CapSense_1_enableRawFilters, %object
  53              		.size	CapSense_1_enableRawFilters, 1
  54              	CapSense_1_enableRawFilters:
  55 0001 01       		.byte	1
  56              		.comm	CapSense_1_fingerThreshold,1,4
  57              		.comm	CapSense_1_noiseThreshold,1,4
ARM GAS  C:\Users\IGOR~1.HOL\AppData\Local\Temp\cc8IZ2FY.s 			page 2


  58              		.comm	CapSense_1_negativeNoiseThreshold,1,4
  59              		.comm	CapSense_1_hysteresis,1,4
  60              		.global	CapSense_1_debounce
  61 0002 0000     		.align	2
  62              		.type	CapSense_1_debounce, %object
  63              		.size	CapSense_1_debounce, 1
  64              	CapSense_1_debounce:
  65 0004 05       		.byte	5
  66 0005 000000   		.bss
  67 000d 000000   		.align	2
  68              	CapSense_1_debounceCounter:
  69 0010 0000     		.space	2
  70              		.global	CapSense_1_rawDataIndex
  71 0012 0000     		.section	.rodata
  72              		.align	2
  73              		.type	CapSense_1_rawDataIndex, %object
  74              		.size	CapSense_1_rawDataIndex, 1
  75              	CapSense_1_rawDataIndex:
  76 0000 00       		.space	1
  77              		.global	CapSense_1_numberOfSensors
  78 0001 000000   		.align	2
  79              		.type	CapSense_1_numberOfSensors, %object
  80              		.size	CapSense_1_numberOfSensors, 1
  81              	CapSense_1_numberOfSensors:
  82 0004 01       		.byte	1
  83 0005 000000   		.section	.text.CapSense_1_BaseInit,"ax",%progbits
  84              		.align	2
  85              		.global	CapSense_1_BaseInit
  86              		.code	16
  87              		.thumb_func
  88              		.type	CapSense_1_BaseInit, %function
  89              	CapSense_1_BaseInit:
  90              	.LFB35:
  91              		.file 1 "Generated_Source\\PSoC4\\CapSense_1_CSHL.c"
   1:Generated_Source\PSoC4/CapSense_1_CSHL.c **** /*******************************************************************************
   2:Generated_Source\PSoC4/CapSense_1_CSHL.c **** * File Name: CapSense_1_CSHL.c
   3:Generated_Source\PSoC4/CapSense_1_CSHL.c **** * Version 2.60
   4:Generated_Source\PSoC4/CapSense_1_CSHL.c **** *
   5:Generated_Source\PSoC4/CapSense_1_CSHL.c **** * Description:
   6:Generated_Source\PSoC4/CapSense_1_CSHL.c **** *  This file provides the source code to the High Level APIs for the CapSesne
   7:Generated_Source\PSoC4/CapSense_1_CSHL.c **** *  CSD component.
   8:Generated_Source\PSoC4/CapSense_1_CSHL.c **** *
   9:Generated_Source\PSoC4/CapSense_1_CSHL.c **** * Note:
  10:Generated_Source\PSoC4/CapSense_1_CSHL.c **** *
  11:Generated_Source\PSoC4/CapSense_1_CSHL.c **** ********************************************************************************
  12:Generated_Source\PSoC4/CapSense_1_CSHL.c **** * Copyright 2013-2016, Cypress Semiconductor Corporation.  All rights reserved.
  13:Generated_Source\PSoC4/CapSense_1_CSHL.c **** * You may use this file only in accordance with the license, terms, conditions,
  14:Generated_Source\PSoC4/CapSense_1_CSHL.c **** * disclaimers, and limitations in the end user license agreement accompanying
  15:Generated_Source\PSoC4/CapSense_1_CSHL.c **** * the software package with which this file was provided.
  16:Generated_Source\PSoC4/CapSense_1_CSHL.c **** *******************************************************************************/
  17:Generated_Source\PSoC4/CapSense_1_CSHL.c **** 
  18:Generated_Source\PSoC4/CapSense_1_CSHL.c **** #include "CapSense_1_CSHL.h"
  19:Generated_Source\PSoC4/CapSense_1_CSHL.c **** #include "CapSense_1_PVT.h"
  20:Generated_Source\PSoC4/CapSense_1_CSHL.c **** 
  21:Generated_Source\PSoC4/CapSense_1_CSHL.c **** /* SmartSense functions */
  22:Generated_Source\PSoC4/CapSense_1_CSHL.c **** #if (CapSense_1_TUNING_METHOD == CapSense_1__TUNING_AUTO)
  23:Generated_Source\PSoC4/CapSense_1_CSHL.c ****     extern void CapSense_1_UpdateThresholds(uint32 sensor);
ARM GAS  C:\Users\IGOR~1.HOL\AppData\Local\Temp\cc8IZ2FY.s 			page 3


  24:Generated_Source\PSoC4/CapSense_1_CSHL.c **** #endif /* (CapSense_1_TUNING_METHOD == CapSense_1__TUNING_AUTO) */
  25:Generated_Source\PSoC4/CapSense_1_CSHL.c **** 
  26:Generated_Source\PSoC4/CapSense_1_CSHL.c **** /* Storage of filters data */
  27:Generated_Source\PSoC4/CapSense_1_CSHL.c **** #if ( (0u != (CapSense_1_RAW_FILTER_MASK & CapSense_1_MEDIAN_FILTER)) || \
  28:Generated_Source\PSoC4/CapSense_1_CSHL.c ****       (0u != (CapSense_1_RAW_FILTER_MASK & CapSense_1_AVERAGING_FILTER)) )
  29:Generated_Source\PSoC4/CapSense_1_CSHL.c **** 
  30:Generated_Source\PSoC4/CapSense_1_CSHL.c ****     uint16 CapSense_1_rawFilterData1[CapSense_1_TOTAL_SENSOR_COUNT];
  31:Generated_Source\PSoC4/CapSense_1_CSHL.c ****     uint16 CapSense_1_rawFilterData2[CapSense_1_TOTAL_SENSOR_COUNT];
  32:Generated_Source\PSoC4/CapSense_1_CSHL.c **** 
  33:Generated_Source\PSoC4/CapSense_1_CSHL.c **** #elif ( (0u != (CapSense_1_RAW_FILTER_MASK & CapSense_1_IIR2_FILTER))   || \
  34:Generated_Source\PSoC4/CapSense_1_CSHL.c ****         (0u != (CapSense_1_RAW_FILTER_MASK & CapSense_1_IIR4_FILTER))   || \
  35:Generated_Source\PSoC4/CapSense_1_CSHL.c ****         (0u != (CapSense_1_RAW_FILTER_MASK & CapSense_1_JITTER_FILTER)) || \
  36:Generated_Source\PSoC4/CapSense_1_CSHL.c ****         (0u != (CapSense_1_RAW_FILTER_MASK & CapSense_1_IIR8_FILTER))   || \
  37:Generated_Source\PSoC4/CapSense_1_CSHL.c ****         (0u != (CapSense_1_RAW_FILTER_MASK & CapSense_1_IIR16_FILTER)) )
  38:Generated_Source\PSoC4/CapSense_1_CSHL.c **** 
  39:Generated_Source\PSoC4/CapSense_1_CSHL.c ****     uint16 CapSense_1_rawFilterData1[CapSense_1_TOTAL_SENSOR_COUNT];
  40:Generated_Source\PSoC4/CapSense_1_CSHL.c **** #endif  /* ( (CapSense_1_RAW_FILTER_MASK & CapSense_1_MEDIAN_FILTER) || \
  41:Generated_Source\PSoC4/CapSense_1_CSHL.c ****         *    (CapSense_1_RAW_FILTER_MASK & CapSense_1_AVERAGING_FILTER) )
  42:Generated_Source\PSoC4/CapSense_1_CSHL.c ****         */
  43:Generated_Source\PSoC4/CapSense_1_CSHL.c **** 
  44:Generated_Source\PSoC4/CapSense_1_CSHL.c **** extern uint16 CapSense_1_sensorRaw[CapSense_1_TOTAL_SENSOR_COUNT];
  45:Generated_Source\PSoC4/CapSense_1_CSHL.c **** extern uint8 CapSense_1_sensorEnableMask[CapSense_1_TOTAL_SENSOR_MASK];
  46:Generated_Source\PSoC4/CapSense_1_CSHL.c **** extern const uint8 CapSense_1_widgetNumber[CapSense_1_TOTAL_SENSOR_COUNT];
  47:Generated_Source\PSoC4/CapSense_1_CSHL.c **** 
  48:Generated_Source\PSoC4/CapSense_1_CSHL.c **** #if (CapSense_1_TUNING_METHOD != CapSense_1__TUNING_NONE)
  49:Generated_Source\PSoC4/CapSense_1_CSHL.c ****     extern uint32 CapSense_1_widgetResolution[CapSense_1_RESOLUTIONS_TBL_SIZE];
  50:Generated_Source\PSoC4/CapSense_1_CSHL.c **** #endif /* (CapSense_1_TUNING_METHOD != CapSense_1__TUNING_NONE) */
  51:Generated_Source\PSoC4/CapSense_1_CSHL.c **** 
  52:Generated_Source\PSoC4/CapSense_1_CSHL.c **** uint16 CapSense_1_sensorBaseline[CapSense_1_TOTAL_SENSOR_COUNT] = {0u};
  53:Generated_Source\PSoC4/CapSense_1_CSHL.c **** uint8 CapSense_1_sensorBaselineLow[CapSense_1_TOTAL_SENSOR_COUNT] = {0u};
  54:Generated_Source\PSoC4/CapSense_1_CSHL.c **** uint8 CapSense_1_sensorSignal[CapSense_1_TOTAL_SENSOR_COUNT] = {0u};
  55:Generated_Source\PSoC4/CapSense_1_CSHL.c **** uint8 CapSense_1_sensorOnMask[CapSense_1_TOTAL_SENSOR_MASK] = {0u};
  56:Generated_Source\PSoC4/CapSense_1_CSHL.c **** 
  57:Generated_Source\PSoC4/CapSense_1_CSHL.c **** uint8 CapSense_1_lowBaselineResetCnt[CapSense_1_TOTAL_SENSOR_COUNT];
  58:Generated_Source\PSoC4/CapSense_1_CSHL.c **** uint8 CapSense_1_lowBaselineReset[CapSense_1_TOTAL_SENSOR_COUNT] = {
  59:Generated_Source\PSoC4/CapSense_1_CSHL.c ****     30u, 
  60:Generated_Source\PSoC4/CapSense_1_CSHL.c **** };
  61:Generated_Source\PSoC4/CapSense_1_CSHL.c **** 
  62:Generated_Source\PSoC4/CapSense_1_CSHL.c **** 
  63:Generated_Source\PSoC4/CapSense_1_CSHL.c **** 
  64:Generated_Source\PSoC4/CapSense_1_CSHL.c **** #if (CapSense_1_TUNING_METHOD == CapSense_1__TUNING_AUTO)
  65:Generated_Source\PSoC4/CapSense_1_CSHL.c ****     extern CapSense_1_CONFIG_TYPE_P4_v2_60 CapSense_1_config;
  66:Generated_Source\PSoC4/CapSense_1_CSHL.c **** #endif  /* (CapSense_1_TUNING_METHOD == CapSense_1__TUNING_AUTO) */
  67:Generated_Source\PSoC4/CapSense_1_CSHL.c **** 
  68:Generated_Source\PSoC4/CapSense_1_CSHL.c **** #if (CapSense_1_RAW_FILTER_MASK != 0u)
  69:Generated_Source\PSoC4/CapSense_1_CSHL.c **** uint8 CapSense_1_enableRawFilters = CapSense_1_RAW_FILTERS_ENABLED;
  70:Generated_Source\PSoC4/CapSense_1_CSHL.c **** #endif  /* (CapSense_1_RAW_FILTER_MASK != 0u) */
  71:Generated_Source\PSoC4/CapSense_1_CSHL.c **** 
  72:Generated_Source\PSoC4/CapSense_1_CSHL.c **** /* Generated by Customizer */
  73:Generated_Source\PSoC4/CapSense_1_CSHL.c **** uint8 CapSense_1_fingerThreshold[CapSense_1_THRESHOLD_TBL_SIZE];
  74:Generated_Source\PSoC4/CapSense_1_CSHL.c **** 
  75:Generated_Source\PSoC4/CapSense_1_CSHL.c **** uint8 CapSense_1_noiseThreshold[CapSense_1_THRESHOLD_TBL_SIZE];
  76:Generated_Source\PSoC4/CapSense_1_CSHL.c **** 
  77:Generated_Source\PSoC4/CapSense_1_CSHL.c **** uint8 CapSense_1_negativeNoiseThreshold[CapSense_1_THRESHOLD_TBL_SIZE];
  78:Generated_Source\PSoC4/CapSense_1_CSHL.c **** 
  79:Generated_Source\PSoC4/CapSense_1_CSHL.c **** uint8 CapSense_1_hysteresis[CapSense_1_WIDGET_PARAM_TBL_SIZE];
  80:Generated_Source\PSoC4/CapSense_1_CSHL.c **** 
ARM GAS  C:\Users\IGOR~1.HOL\AppData\Local\Temp\cc8IZ2FY.s 			page 4


  81:Generated_Source\PSoC4/CapSense_1_CSHL.c **** uint8 CapSense_1_debounce[] = {
  82:Generated_Source\PSoC4/CapSense_1_CSHL.c ****     5u, 
  83:Generated_Source\PSoC4/CapSense_1_CSHL.c **** };
  84:Generated_Source\PSoC4/CapSense_1_CSHL.c **** 
  85:Generated_Source\PSoC4/CapSense_1_CSHL.c **** static uint8 CapSense_1_debounceCounter[] = {
  86:Generated_Source\PSoC4/CapSense_1_CSHL.c ****     0u, 0u, 
  87:Generated_Source\PSoC4/CapSense_1_CSHL.c **** };
  88:Generated_Source\PSoC4/CapSense_1_CSHL.c **** 
  89:Generated_Source\PSoC4/CapSense_1_CSHL.c **** const uint8 CapSense_1_rawDataIndex[] = {
  90:Generated_Source\PSoC4/CapSense_1_CSHL.c ****     0u, /* DummyWidget__BTN */
  91:Generated_Source\PSoC4/CapSense_1_CSHL.c **** };
  92:Generated_Source\PSoC4/CapSense_1_CSHL.c **** 
  93:Generated_Source\PSoC4/CapSense_1_CSHL.c **** const uint8 CapSense_1_numberOfSensors[] = {
  94:Generated_Source\PSoC4/CapSense_1_CSHL.c ****     1u, /* DummyWidget__BTN */
  95:Generated_Source\PSoC4/CapSense_1_CSHL.c **** };
  96:Generated_Source\PSoC4/CapSense_1_CSHL.c **** 
  97:Generated_Source\PSoC4/CapSense_1_CSHL.c **** 
  98:Generated_Source\PSoC4/CapSense_1_CSHL.c **** 
  99:Generated_Source\PSoC4/CapSense_1_CSHL.c **** 
 100:Generated_Source\PSoC4/CapSense_1_CSHL.c **** /*******************************************************************************
 101:Generated_Source\PSoC4/CapSense_1_CSHL.c **** * Function Name: CapSense_1_BaseInit
 102:Generated_Source\PSoC4/CapSense_1_CSHL.c **** ********************************************************************************
 103:Generated_Source\PSoC4/CapSense_1_CSHL.c **** *
 104:Generated_Source\PSoC4/CapSense_1_CSHL.c **** * Summary:
 105:Generated_Source\PSoC4/CapSense_1_CSHL.c **** *  Loads the CapSense_1_sensorBaseline[sensor] array element with an
 106:Generated_Source\PSoC4/CapSense_1_CSHL.c **** *  initial value which is equal to the raw count value.
 107:Generated_Source\PSoC4/CapSense_1_CSHL.c **** *  Resets to zero CapSense_1_sensorBaselineLow[sensor] and
 108:Generated_Source\PSoC4/CapSense_1_CSHL.c **** *  CapSense_1_sensorSignal[sensor] array element.
 109:Generated_Source\PSoC4/CapSense_1_CSHL.c **** *  Loads the CapSense_1_rawFilterData2[sensor] and
 110:Generated_Source\PSoC4/CapSense_1_CSHL.c **** *  CapSense_1_rawFilterData2[sensor] array element with an
 111:Generated_Source\PSoC4/CapSense_1_CSHL.c **** *  initial value which is equal to the raw count value if the raw data filter is enabled.
 112:Generated_Source\PSoC4/CapSense_1_CSHL.c **** *
 113:Generated_Source\PSoC4/CapSense_1_CSHL.c **** * Parameters:
 114:Generated_Source\PSoC4/CapSense_1_CSHL.c **** *  sensor:  Sensor number.
 115:Generated_Source\PSoC4/CapSense_1_CSHL.c **** *
 116:Generated_Source\PSoC4/CapSense_1_CSHL.c **** * Return:
 117:Generated_Source\PSoC4/CapSense_1_CSHL.c **** *  None
 118:Generated_Source\PSoC4/CapSense_1_CSHL.c **** *
 119:Generated_Source\PSoC4/CapSense_1_CSHL.c **** * Global Variables:
 120:Generated_Source\PSoC4/CapSense_1_CSHL.c **** *  CapSense_1_sensorBaseline[]    - used to store the baseline value.
 121:Generated_Source\PSoC4/CapSense_1_CSHL.c **** *  CapSense_1_sensorBaselineLow[] - used to store the fraction byte of
 122:Generated_Source\PSoC4/CapSense_1_CSHL.c **** *  the baseline value.
 123:Generated_Source\PSoC4/CapSense_1_CSHL.c **** *  CapSense_1_sensorSignal[]      - used to store a difference between
 124:Generated_Source\PSoC4/CapSense_1_CSHL.c **** *  the current value of raw data and the previous value of the baseline.
 125:Generated_Source\PSoC4/CapSense_1_CSHL.c **** *  CapSense_1_rawFilterData1[]    - used to store a previous sample of
 126:Generated_Source\PSoC4/CapSense_1_CSHL.c **** *  any enabled raw data filter.
 127:Generated_Source\PSoC4/CapSense_1_CSHL.c **** *  CapSense_1_rawFilterData2[]    - used to store before a previous sample
 128:Generated_Source\PSoC4/CapSense_1_CSHL.c **** *  of the enabled raw data filter. Required only for median or average filters.
 129:Generated_Source\PSoC4/CapSense_1_CSHL.c **** *
 130:Generated_Source\PSoC4/CapSense_1_CSHL.c **** * Side Effects:
 131:Generated_Source\PSoC4/CapSense_1_CSHL.c **** *  None
 132:Generated_Source\PSoC4/CapSense_1_CSHL.c **** *
 133:Generated_Source\PSoC4/CapSense_1_CSHL.c **** *******************************************************************************/
 134:Generated_Source\PSoC4/CapSense_1_CSHL.c **** void CapSense_1_BaseInit(uint32 sensor)
 135:Generated_Source\PSoC4/CapSense_1_CSHL.c **** {
  92              		.loc 1 135 0
  93              		.cfi_startproc
ARM GAS  C:\Users\IGOR~1.HOL\AppData\Local\Temp\cc8IZ2FY.s 			page 5


  94 0000 80B5     		push	{r7, lr}
  95              		.cfi_def_cfa_offset 8
  96              		.cfi_offset 7, -8
  97              		.cfi_offset 14, -4
  98 0002 84B0     		sub	sp, sp, #16
  99              		.cfi_def_cfa_offset 24
 100 0004 00AF     		add	r7, sp, #0
 101              		.cfi_def_cfa_register 7
 102 0006 7860     		str	r0, [r7, #4]
 136:Generated_Source\PSoC4/CapSense_1_CSHL.c ****     #if ((CapSense_1_TOTAL_BUTTONS_COUNT) || (CapSense_1_TOTAL_MATRIX_BUTTONS_COUNT) || \
 137:Generated_Source\PSoC4/CapSense_1_CSHL.c ****          (CapSense_1_TOTAL_GENERICS_COUNT))
 138:Generated_Source\PSoC4/CapSense_1_CSHL.c ****         uint8 widget = CapSense_1_widgetNumber[sensor];
 103              		.loc 1 138 0
 104 0008 0F23     		mov	r3, #15
 105 000a FB18     		add	r3, r7, r3
 106 000c 1549     		ldr	r1, .L2
 107 000e 7A68     		ldr	r2, [r7, #4]
 108 0010 8A18     		add	r2, r1, r2
 109 0012 1278     		ldrb	r2, [r2]
 110 0014 1A70     		strb	r2, [r3]
 139:Generated_Source\PSoC4/CapSense_1_CSHL.c ****     #endif /* ((CapSense_1_TOTAL_MATRIX_BUTTONS_COUNT) || (CapSense_1_TOTAL_MATRIX_BUTTONS_COUNT)) 
 140:Generated_Source\PSoC4/CapSense_1_CSHL.c **** 
 141:Generated_Source\PSoC4/CapSense_1_CSHL.c ****     #if (CapSense_1_TOTAL_MATRIX_BUTTONS_COUNT)
 142:Generated_Source\PSoC4/CapSense_1_CSHL.c ****         uint8 debounceIndex;
 143:Generated_Source\PSoC4/CapSense_1_CSHL.c ****     #endif  /* (CapSense_1_TOTAL_MATRIX_BUTTONS_COUNT) */
 144:Generated_Source\PSoC4/CapSense_1_CSHL.c **** 
 145:Generated_Source\PSoC4/CapSense_1_CSHL.c ****     #if (CapSense_1_TOTAL_GENERICS_COUNT)
 146:Generated_Source\PSoC4/CapSense_1_CSHL.c ****         /* Exclude generic widget */
 147:Generated_Source\PSoC4/CapSense_1_CSHL.c ****         if(widget < CapSense_1_END_OF_WIDGETS_INDEX)
 148:Generated_Source\PSoC4/CapSense_1_CSHL.c ****         {
 149:Generated_Source\PSoC4/CapSense_1_CSHL.c ****     #endif  /* CapSense_1_TOTAL_GENERICS_COUNT */
 150:Generated_Source\PSoC4/CapSense_1_CSHL.c **** 
 151:Generated_Source\PSoC4/CapSense_1_CSHL.c ****     /* Initialize Baseline */
 152:Generated_Source\PSoC4/CapSense_1_CSHL.c ****     CapSense_1_sensorBaseline[sensor] = CapSense_1_sensorRaw[sensor];
 111              		.loc 1 152 0
 112 0016 144B     		ldr	r3, .L2+4
 113 0018 7A68     		ldr	r2, [r7, #4]
 114 001a 5200     		lsl	r2, r2, #1
 115 001c D15A     		ldrh	r1, [r2, r3]
 116 001e 134B     		ldr	r3, .L2+8
 117 0020 7A68     		ldr	r2, [r7, #4]
 118 0022 5200     		lsl	r2, r2, #1
 119 0024 D152     		strh	r1, [r2, r3]
 153:Generated_Source\PSoC4/CapSense_1_CSHL.c ****     CapSense_1_sensorBaselineLow[sensor] = 0u;
 120              		.loc 1 153 0
 121 0026 124A     		ldr	r2, .L2+12
 122 0028 7B68     		ldr	r3, [r7, #4]
 123 002a D318     		add	r3, r2, r3
 124 002c 0022     		mov	r2, #0
 125 002e 1A70     		strb	r2, [r3]
 154:Generated_Source\PSoC4/CapSense_1_CSHL.c ****     CapSense_1_sensorSignal[sensor] = 0u;
 126              		.loc 1 154 0
 127 0030 104A     		ldr	r2, .L2+16
 128 0032 7B68     		ldr	r3, [r7, #4]
 129 0034 D318     		add	r3, r2, r3
 130 0036 0022     		mov	r2, #0
 131 0038 1A70     		strb	r2, [r3]
ARM GAS  C:\Users\IGOR~1.HOL\AppData\Local\Temp\cc8IZ2FY.s 			page 6


 155:Generated_Source\PSoC4/CapSense_1_CSHL.c **** 
 156:Generated_Source\PSoC4/CapSense_1_CSHL.c ****     CapSense_1_debounceCounter[widget] =  CapSense_1_debounce[widget];
 132              		.loc 1 156 0
 133 003a 0F23     		mov	r3, #15
 134 003c FB18     		add	r3, r7, r3
 135 003e 1B78     		ldrb	r3, [r3]
 136 0040 0F22     		mov	r2, #15
 137 0042 BA18     		add	r2, r7, r2
 138 0044 1278     		ldrb	r2, [r2]
 139 0046 0C49     		ldr	r1, .L2+20
 140 0048 895C     		ldrb	r1, [r1, r2]
 141 004a 0C4A     		ldr	r2, .L2+24
 142 004c D154     		strb	r1, [r2, r3]
 157:Generated_Source\PSoC4/CapSense_1_CSHL.c **** 
 158:Generated_Source\PSoC4/CapSense_1_CSHL.c **** 
 159:Generated_Source\PSoC4/CapSense_1_CSHL.c ****     #if ((0u != (CapSense_1_RAW_FILTER_MASK & CapSense_1_MEDIAN_FILTER)) ||\
 160:Generated_Source\PSoC4/CapSense_1_CSHL.c ****          (0u != (CapSense_1_RAW_FILTER_MASK & CapSense_1_AVERAGING_FILTER)))
 161:Generated_Source\PSoC4/CapSense_1_CSHL.c **** 
 162:Generated_Source\PSoC4/CapSense_1_CSHL.c ****         CapSense_1_rawFilterData1[sensor] = CapSense_1_sensorRaw[sensor];
 163:Generated_Source\PSoC4/CapSense_1_CSHL.c ****         CapSense_1_rawFilterData2[sensor] = CapSense_1_sensorRaw[sensor];
 164:Generated_Source\PSoC4/CapSense_1_CSHL.c **** 
 165:Generated_Source\PSoC4/CapSense_1_CSHL.c ****     #elif ((CapSense_1_RAW_FILTER_MASK & CapSense_1_IIR2_FILTER) ||\
 166:Generated_Source\PSoC4/CapSense_1_CSHL.c ****            (CapSense_1_RAW_FILTER_MASK & CapSense_1_IIR4_FILTER) ||\
 167:Generated_Source\PSoC4/CapSense_1_CSHL.c ****            (CapSense_1_RAW_FILTER_MASK & CapSense_1_JITTER_FILTER) ||\
 168:Generated_Source\PSoC4/CapSense_1_CSHL.c ****            (CapSense_1_RAW_FILTER_MASK & CapSense_1_IIR8_FILTER) ||\
 169:Generated_Source\PSoC4/CapSense_1_CSHL.c ****            (CapSense_1_RAW_FILTER_MASK & CapSense_1_IIR16_FILTER))
 170:Generated_Source\PSoC4/CapSense_1_CSHL.c **** 
 171:Generated_Source\PSoC4/CapSense_1_CSHL.c ****         CapSense_1_rawFilterData1[sensor] = CapSense_1_sensorRaw[sensor];
 143              		.loc 1 171 0
 144 004e 064B     		ldr	r3, .L2+4
 145 0050 7A68     		ldr	r2, [r7, #4]
 146 0052 5200     		lsl	r2, r2, #1
 147 0054 D15A     		ldrh	r1, [r2, r3]
 148 0056 0A4B     		ldr	r3, .L2+28
 149 0058 7A68     		ldr	r2, [r7, #4]
 150 005a 5200     		lsl	r2, r2, #1
 151 005c D152     		strh	r1, [r2, r3]
 172:Generated_Source\PSoC4/CapSense_1_CSHL.c **** 
 173:Generated_Source\PSoC4/CapSense_1_CSHL.c ****     #else
 174:Generated_Source\PSoC4/CapSense_1_CSHL.c ****         /* No Raw filters */
 175:Generated_Source\PSoC4/CapSense_1_CSHL.c ****     #endif  /* ((CapSense_1_RAW_FILTER_MASK & CapSense_1_MEDIAN_FILTER) || \
 176:Generated_Source\PSoC4/CapSense_1_CSHL.c ****             *   (CapSense_1_RAW_FILTER_MASK & CapSense_1_AVERAGING_FILTER))
 177:Generated_Source\PSoC4/CapSense_1_CSHL.c ****             */
 178:Generated_Source\PSoC4/CapSense_1_CSHL.c **** 
 179:Generated_Source\PSoC4/CapSense_1_CSHL.c ****     #if (CapSense_1_TOTAL_GENERICS_COUNT)
 180:Generated_Source\PSoC4/CapSense_1_CSHL.c ****         /* Exclude generic widget */
 181:Generated_Source\PSoC4/CapSense_1_CSHL.c ****         }
 182:Generated_Source\PSoC4/CapSense_1_CSHL.c ****     #endif  /* CapSense_1_TOTAL_GENERICS_COUNT */
 183:Generated_Source\PSoC4/CapSense_1_CSHL.c **** }
 152              		.loc 1 183 0
 153 005e BD46     		mov	sp, r7
 154 0060 04B0     		add	sp, sp, #16
 155              		@ sp needed
 156 0062 80BD     		pop	{r7, pc}
 157              	.L3:
 158              		.align	2
 159              	.L2:
ARM GAS  C:\Users\IGOR~1.HOL\AppData\Local\Temp\cc8IZ2FY.s 			page 7


 160 0064 00000000 		.word	CapSense_1_widgetNumber
 161 0068 00000000 		.word	CapSense_1_sensorRaw
 162 006c 00000000 		.word	CapSense_1_sensorBaseline
 163 0070 00000000 		.word	CapSense_1_sensorBaselineLow
 164 0074 00000000 		.word	CapSense_1_sensorSignal
 165 0078 00000000 		.word	CapSense_1_debounce
 166 007c 10000000 		.word	CapSense_1_debounceCounter
 167 0080 00000000 		.word	CapSense_1_rawFilterData1
 168              		.cfi_endproc
 169              	.LFE35:
 170              		.size	CapSense_1_BaseInit, .-CapSense_1_BaseInit
 171              		.section	.text.CapSense_1_InitializeSensorBaseline,"ax",%progbits
 172              		.align	2
 173              		.global	CapSense_1_InitializeSensorBaseline
 174              		.code	16
 175              		.thumb_func
 176              		.type	CapSense_1_InitializeSensorBaseline, %function
 177              	CapSense_1_InitializeSensorBaseline:
 178              	.LFB36:
 184:Generated_Source\PSoC4/CapSense_1_CSHL.c **** 
 185:Generated_Source\PSoC4/CapSense_1_CSHL.c **** 
 186:Generated_Source\PSoC4/CapSense_1_CSHL.c **** /*******************************************************************************
 187:Generated_Source\PSoC4/CapSense_1_CSHL.c **** * Function Name: CapSense_1_InitializeSensorBaseline
 188:Generated_Source\PSoC4/CapSense_1_CSHL.c **** ********************************************************************************
 189:Generated_Source\PSoC4/CapSense_1_CSHL.c **** *
 190:Generated_Source\PSoC4/CapSense_1_CSHL.c **** * Summary:
 191:Generated_Source\PSoC4/CapSense_1_CSHL.c **** *  Loads the CapSense_1_sensorBaseline[sensor] array element with an
 192:Generated_Source\PSoC4/CapSense_1_CSHL.c **** *  initial value by scanning the selected sensor (one channel design) or a pair
 193:Generated_Source\PSoC4/CapSense_1_CSHL.c **** *  of sensors (two channels designs). The raw count value is copied into the
 194:Generated_Source\PSoC4/CapSense_1_CSHL.c **** *  baseline array for each sensor. The raw data filters are initialized if
 195:Generated_Source\PSoC4/CapSense_1_CSHL.c **** *  enabled.
 196:Generated_Source\PSoC4/CapSense_1_CSHL.c **** *
 197:Generated_Source\PSoC4/CapSense_1_CSHL.c **** * Parameters:
 198:Generated_Source\PSoC4/CapSense_1_CSHL.c **** *  sensor:  Sensor number.
 199:Generated_Source\PSoC4/CapSense_1_CSHL.c **** *
 200:Generated_Source\PSoC4/CapSense_1_CSHL.c **** * Return:
 201:Generated_Source\PSoC4/CapSense_1_CSHL.c **** *  None
 202:Generated_Source\PSoC4/CapSense_1_CSHL.c **** *
 203:Generated_Source\PSoC4/CapSense_1_CSHL.c **** * Global Variables:
 204:Generated_Source\PSoC4/CapSense_1_CSHL.c **** *  None
 205:Generated_Source\PSoC4/CapSense_1_CSHL.c **** *
 206:Generated_Source\PSoC4/CapSense_1_CSHL.c **** * Side Effects:
 207:Generated_Source\PSoC4/CapSense_1_CSHL.c **** *  None
 208:Generated_Source\PSoC4/CapSense_1_CSHL.c **** *
 209:Generated_Source\PSoC4/CapSense_1_CSHL.c **** *******************************************************************************/
 210:Generated_Source\PSoC4/CapSense_1_CSHL.c **** void CapSense_1_InitializeSensorBaseline(uint32 sensor)
 211:Generated_Source\PSoC4/CapSense_1_CSHL.c **** {
 179              		.loc 1 211 0
 180              		.cfi_startproc
 181 0000 80B5     		push	{r7, lr}
 182              		.cfi_def_cfa_offset 8
 183              		.cfi_offset 7, -8
 184              		.cfi_offset 14, -4
 185 0002 82B0     		sub	sp, sp, #8
 186              		.cfi_def_cfa_offset 16
 187 0004 00AF     		add	r7, sp, #0
 188              		.cfi_def_cfa_register 7
ARM GAS  C:\Users\IGOR~1.HOL\AppData\Local\Temp\cc8IZ2FY.s 			page 8


 189 0006 7860     		str	r0, [r7, #4]
 212:Generated_Source\PSoC4/CapSense_1_CSHL.c ****     /* Scan sensor */
 213:Generated_Source\PSoC4/CapSense_1_CSHL.c ****     CapSense_1_ScanSensor(sensor);
 190              		.loc 1 213 0
 191 0008 7B68     		ldr	r3, [r7, #4]
 192 000a 181C     		mov	r0, r3
 193 000c FFF7FEFF 		bl	CapSense_1_ScanSensor
 214:Generated_Source\PSoC4/CapSense_1_CSHL.c ****     while(CapSense_1_IsBusy() != 0u)
 194              		.loc 1 214 0
 195 0010 C046     		mov	r8, r8
 196              	.L5:
 197              		.loc 1 214 0 is_stmt 0 discriminator 1
 198 0012 FFF7FEFF 		bl	CapSense_1_IsBusy
 199 0016 031E     		sub	r3, r0, #0
 200 0018 FBD1     		bne	.L5
 215:Generated_Source\PSoC4/CapSense_1_CSHL.c ****     {
 216:Generated_Source\PSoC4/CapSense_1_CSHL.c ****         /* Wait while sensor is busy */
 217:Generated_Source\PSoC4/CapSense_1_CSHL.c ****     }
 218:Generated_Source\PSoC4/CapSense_1_CSHL.c **** 
 219:Generated_Source\PSoC4/CapSense_1_CSHL.c ****     /* Initialize Baseline, Signal and debounce counters */
 220:Generated_Source\PSoC4/CapSense_1_CSHL.c ****     CapSense_1_BaseInit(sensor);
 201              		.loc 1 220 0 is_stmt 1
 202 001a 7B68     		ldr	r3, [r7, #4]
 203 001c 181C     		mov	r0, r3
 204 001e FFF7FEFF 		bl	CapSense_1_BaseInit
 221:Generated_Source\PSoC4/CapSense_1_CSHL.c **** }
 205              		.loc 1 221 0
 206 0022 BD46     		mov	sp, r7
 207 0024 02B0     		add	sp, sp, #8
 208              		@ sp needed
 209 0026 80BD     		pop	{r7, pc}
 210              		.cfi_endproc
 211              	.LFE36:
 212              		.size	CapSense_1_InitializeSensorBaseline, .-CapSense_1_InitializeSensorBaseline
 213              		.section	.text.CapSense_1_InitializeAllBaselines,"ax",%progbits
 214              		.align	2
 215              		.global	CapSense_1_InitializeAllBaselines
 216              		.code	16
 217              		.thumb_func
 218              		.type	CapSense_1_InitializeAllBaselines, %function
 219              	CapSense_1_InitializeAllBaselines:
 220              	.LFB37:
 222:Generated_Source\PSoC4/CapSense_1_CSHL.c **** 
 223:Generated_Source\PSoC4/CapSense_1_CSHL.c **** 
 224:Generated_Source\PSoC4/CapSense_1_CSHL.c **** /*******************************************************************************
 225:Generated_Source\PSoC4/CapSense_1_CSHL.c **** * Function Name: CapSense_1_InitializeAllBaselines
 226:Generated_Source\PSoC4/CapSense_1_CSHL.c **** ********************************************************************************
 227:Generated_Source\PSoC4/CapSense_1_CSHL.c **** *
 228:Generated_Source\PSoC4/CapSense_1_CSHL.c **** * Summary:
 229:Generated_Source\PSoC4/CapSense_1_CSHL.c **** *  Uses the CapSense_1_InitializeSensorBaseline function to load the
 230:Generated_Source\PSoC4/CapSense_1_CSHL.c **** *  CapSense_1_sensorBaseline[] array with an initial values by scanning
 231:Generated_Source\PSoC4/CapSense_1_CSHL.c **** *  all the sensors. The raw count values are copied into the baseline array for
 232:Generated_Source\PSoC4/CapSense_1_CSHL.c **** *  all the sensors. The raw data filters are initialized if enabled.
 233:Generated_Source\PSoC4/CapSense_1_CSHL.c **** *
 234:Generated_Source\PSoC4/CapSense_1_CSHL.c **** * Parameters:
 235:Generated_Source\PSoC4/CapSense_1_CSHL.c **** *  None
 236:Generated_Source\PSoC4/CapSense_1_CSHL.c **** *
ARM GAS  C:\Users\IGOR~1.HOL\AppData\Local\Temp\cc8IZ2FY.s 			page 9


 237:Generated_Source\PSoC4/CapSense_1_CSHL.c **** * Return:
 238:Generated_Source\PSoC4/CapSense_1_CSHL.c **** *  None
 239:Generated_Source\PSoC4/CapSense_1_CSHL.c **** *
 240:Generated_Source\PSoC4/CapSense_1_CSHL.c **** * Global Variables:
 241:Generated_Source\PSoC4/CapSense_1_CSHL.c **** *  None
 242:Generated_Source\PSoC4/CapSense_1_CSHL.c **** *
 243:Generated_Source\PSoC4/CapSense_1_CSHL.c **** * Side Effects:
 244:Generated_Source\PSoC4/CapSense_1_CSHL.c **** *  None
 245:Generated_Source\PSoC4/CapSense_1_CSHL.c **** *
 246:Generated_Source\PSoC4/CapSense_1_CSHL.c **** *******************************************************************************/
 247:Generated_Source\PSoC4/CapSense_1_CSHL.c **** void CapSense_1_InitializeAllBaselines(void)
 248:Generated_Source\PSoC4/CapSense_1_CSHL.c **** {
 221              		.loc 1 248 0
 222              		.cfi_startproc
 223 0000 80B5     		push	{r7, lr}
 224              		.cfi_def_cfa_offset 8
 225              		.cfi_offset 7, -8
 226              		.cfi_offset 14, -4
 227 0002 82B0     		sub	sp, sp, #8
 228              		.cfi_def_cfa_offset 16
 229 0004 00AF     		add	r7, sp, #0
 230              		.cfi_def_cfa_register 7
 249:Generated_Source\PSoC4/CapSense_1_CSHL.c ****     uint32 i;
 250:Generated_Source\PSoC4/CapSense_1_CSHL.c **** 
 251:Generated_Source\PSoC4/CapSense_1_CSHL.c ****     for(i = 0u; i < CapSense_1_TOTAL_SCANSLOT_COUNT; i++)
 231              		.loc 1 251 0
 232 0006 0023     		mov	r3, #0
 233 0008 7B60     		str	r3, [r7, #4]
 234 000a 06E0     		b	.L7
 235              	.L8:
 252:Generated_Source\PSoC4/CapSense_1_CSHL.c ****     {
 253:Generated_Source\PSoC4/CapSense_1_CSHL.c ****         CapSense_1_InitializeSensorBaseline(i);
 236              		.loc 1 253 0 discriminator 3
 237 000c 7B68     		ldr	r3, [r7, #4]
 238 000e 181C     		mov	r0, r3
 239 0010 FFF7FEFF 		bl	CapSense_1_InitializeSensorBaseline
 251:Generated_Source\PSoC4/CapSense_1_CSHL.c ****     {
 240              		.loc 1 251 0 discriminator 3
 241 0014 7B68     		ldr	r3, [r7, #4]
 242 0016 0133     		add	r3, r3, #1
 243 0018 7B60     		str	r3, [r7, #4]
 244              	.L7:
 251:Generated_Source\PSoC4/CapSense_1_CSHL.c ****     {
 245              		.loc 1 251 0 is_stmt 0 discriminator 1
 246 001a 7B68     		ldr	r3, [r7, #4]
 247 001c 002B     		cmp	r3, #0
 248 001e F5D0     		beq	.L8
 254:Generated_Source\PSoC4/CapSense_1_CSHL.c ****     }
 255:Generated_Source\PSoC4/CapSense_1_CSHL.c **** }
 249              		.loc 1 255 0 is_stmt 1
 250 0020 BD46     		mov	sp, r7
 251 0022 02B0     		add	sp, sp, #8
 252              		@ sp needed
 253 0024 80BD     		pop	{r7, pc}
 254              		.cfi_endproc
 255              	.LFE37:
 256              		.size	CapSense_1_InitializeAllBaselines, .-CapSense_1_InitializeAllBaselines
ARM GAS  C:\Users\IGOR~1.HOL\AppData\Local\Temp\cc8IZ2FY.s 			page 10


 257 0026 C046     		.section	.text.CapSense_1_InitializeEnabledBaselines,"ax",%progbits
 258              		.align	2
 259              		.global	CapSense_1_InitializeEnabledBaselines
 260              		.code	16
 261              		.thumb_func
 262              		.type	CapSense_1_InitializeEnabledBaselines, %function
 263              	CapSense_1_InitializeEnabledBaselines:
 264              	.LFB38:
 256:Generated_Source\PSoC4/CapSense_1_CSHL.c **** 
 257:Generated_Source\PSoC4/CapSense_1_CSHL.c **** 
 258:Generated_Source\PSoC4/CapSense_1_CSHL.c **** /*******************************************************************************
 259:Generated_Source\PSoC4/CapSense_1_CSHL.c **** * Function Name: CapSense_1_InitializeEnabledBaselines
 260:Generated_Source\PSoC4/CapSense_1_CSHL.c **** ********************************************************************************
 261:Generated_Source\PSoC4/CapSense_1_CSHL.c **** *
 262:Generated_Source\PSoC4/CapSense_1_CSHL.c **** * Summary:
 263:Generated_Source\PSoC4/CapSense_1_CSHL.c **** *  Scans all the enabled widgets and the raw count values are copied into the
 264:Generated_Source\PSoC4/CapSense_1_CSHL.c **** *  baseline array for all the sensors enabled in the scanning process. The baselines
 265:Generated_Source\PSoC4/CapSense_1_CSHL.c **** *  are initialized with zero values for sensors disabled from the scanning process.
 266:Generated_Source\PSoC4/CapSense_1_CSHL.c **** *  The raw data filters are initialized if enabled.
 267:Generated_Source\PSoC4/CapSense_1_CSHL.c **** *
 268:Generated_Source\PSoC4/CapSense_1_CSHL.c **** * Parameters:
 269:Generated_Source\PSoC4/CapSense_1_CSHL.c **** *  None
 270:Generated_Source\PSoC4/CapSense_1_CSHL.c **** *
 271:Generated_Source\PSoC4/CapSense_1_CSHL.c **** * Return:
 272:Generated_Source\PSoC4/CapSense_1_CSHL.c **** *  None
 273:Generated_Source\PSoC4/CapSense_1_CSHL.c **** *
 274:Generated_Source\PSoC4/CapSense_1_CSHL.c **** * Global Variables:
 275:Generated_Source\PSoC4/CapSense_1_CSHL.c **** *  CapSense_1_sensorRaw[] - used to store the sensors raw data.
 276:Generated_Source\PSoC4/CapSense_1_CSHL.c **** *  CapSense_1_sensorEnableMask[ ] - used to store bit masks of the enabled sensors.
 277:Generated_Source\PSoC4/CapSense_1_CSHL.c **** *
 278:Generated_Source\PSoC4/CapSense_1_CSHL.c **** * Side Effects:
 279:Generated_Source\PSoC4/CapSense_1_CSHL.c **** *  None
 280:Generated_Source\PSoC4/CapSense_1_CSHL.c **** *
 281:Generated_Source\PSoC4/CapSense_1_CSHL.c **** *******************************************************************************/
 282:Generated_Source\PSoC4/CapSense_1_CSHL.c **** void CapSense_1_InitializeEnabledBaselines(void)
 283:Generated_Source\PSoC4/CapSense_1_CSHL.c **** {
 265              		.loc 1 283 0
 266              		.cfi_startproc
 267 0000 80B5     		push	{r7, lr}
 268              		.cfi_def_cfa_offset 8
 269              		.cfi_offset 7, -8
 270              		.cfi_offset 14, -4
 271 0002 82B0     		sub	sp, sp, #8
 272              		.cfi_def_cfa_offset 16
 273 0004 00AF     		add	r7, sp, #0
 274              		.cfi_def_cfa_register 7
 284:Generated_Source\PSoC4/CapSense_1_CSHL.c ****     uint32 i;
 285:Generated_Source\PSoC4/CapSense_1_CSHL.c ****     uint32 isSensorEnabled;
 286:Generated_Source\PSoC4/CapSense_1_CSHL.c **** 
 287:Generated_Source\PSoC4/CapSense_1_CSHL.c ****     CapSense_1_ScanEnabledWidgets();
 275              		.loc 1 287 0
 276 0006 FFF7FEFF 		bl	CapSense_1_ScanEnabledWidgets
 288:Generated_Source\PSoC4/CapSense_1_CSHL.c ****     while(CapSense_1_IsBusy() != 0u)
 277              		.loc 1 288 0
 278 000a C046     		mov	r8, r8
 279              	.L10:
 280              		.loc 1 288 0 is_stmt 0 discriminator 1
ARM GAS  C:\Users\IGOR~1.HOL\AppData\Local\Temp\cc8IZ2FY.s 			page 11


 281 000c FFF7FEFF 		bl	CapSense_1_IsBusy
 282 0010 031E     		sub	r3, r0, #0
 283 0012 FBD1     		bne	.L10
 289:Generated_Source\PSoC4/CapSense_1_CSHL.c ****     {
 290:Generated_Source\PSoC4/CapSense_1_CSHL.c ****         /* Wait while sensor is busy */
 291:Generated_Source\PSoC4/CapSense_1_CSHL.c ****     }
 292:Generated_Source\PSoC4/CapSense_1_CSHL.c **** 
 293:Generated_Source\PSoC4/CapSense_1_CSHL.c ****     for(i = 0u; i < CapSense_1_TOTAL_SENSOR_COUNT; i++)
 284              		.loc 1 293 0 is_stmt 1
 285 0014 0023     		mov	r3, #0
 286 0016 7B60     		str	r3, [r7, #4]
 287 0018 11E0     		b	.L11
 288              	.L13:
 294:Generated_Source\PSoC4/CapSense_1_CSHL.c ****     {
 295:Generated_Source\PSoC4/CapSense_1_CSHL.c ****         isSensorEnabled = CapSense_1_GetBitValue(CapSense_1_sensorEnableMask, i);
 289              		.loc 1 295 0
 290 001a 0C4A     		ldr	r2, .L14
 291 001c 7B68     		ldr	r3, [r7, #4]
 292 001e 101C     		mov	r0, r2
 293 0020 191C     		mov	r1, r3
 294 0022 FFF7FEFF 		bl	CapSense_1_GetBitValue
 295 0026 031C     		mov	r3, r0
 296 0028 3B60     		str	r3, [r7]
 296:Generated_Source\PSoC4/CapSense_1_CSHL.c **** 
 297:Generated_Source\PSoC4/CapSense_1_CSHL.c ****         /* Clear raw data if sensor is disabled from scanning process */
 298:Generated_Source\PSoC4/CapSense_1_CSHL.c ****         if(isSensorEnabled != 0u)
 297              		.loc 1 298 0
 298 002a 3B68     		ldr	r3, [r7]
 299 002c 002B     		cmp	r3, #0
 300 002e 03D0     		beq	.L12
 299:Generated_Source\PSoC4/CapSense_1_CSHL.c ****         {
 300:Generated_Source\PSoC4/CapSense_1_CSHL.c ****             /* Initialize baselines */
 301:Generated_Source\PSoC4/CapSense_1_CSHL.c ****             CapSense_1_BaseInit(i);
 301              		.loc 1 301 0
 302 0030 7B68     		ldr	r3, [r7, #4]
 303 0032 181C     		mov	r0, r3
 304 0034 FFF7FEFF 		bl	CapSense_1_BaseInit
 305              	.L12:
 293:Generated_Source\PSoC4/CapSense_1_CSHL.c ****     {
 306              		.loc 1 293 0 discriminator 2
 307 0038 7B68     		ldr	r3, [r7, #4]
 308 003a 0133     		add	r3, r3, #1
 309 003c 7B60     		str	r3, [r7, #4]
 310              	.L11:
 293:Generated_Source\PSoC4/CapSense_1_CSHL.c ****     {
 311              		.loc 1 293 0 is_stmt 0 discriminator 1
 312 003e 7B68     		ldr	r3, [r7, #4]
 313 0040 002B     		cmp	r3, #0
 314 0042 EAD0     		beq	.L13
 302:Generated_Source\PSoC4/CapSense_1_CSHL.c ****         }
 303:Generated_Source\PSoC4/CapSense_1_CSHL.c ****     }
 304:Generated_Source\PSoC4/CapSense_1_CSHL.c **** }
 315              		.loc 1 304 0 is_stmt 1
 316 0044 BD46     		mov	sp, r7
 317 0046 02B0     		add	sp, sp, #8
 318              		@ sp needed
 319 0048 80BD     		pop	{r7, pc}
ARM GAS  C:\Users\IGOR~1.HOL\AppData\Local\Temp\cc8IZ2FY.s 			page 12


 320              	.L15:
 321 004a C046     		.align	2
 322              	.L14:
 323 004c 00000000 		.word	CapSense_1_sensorEnableMask
 324              		.cfi_endproc
 325              	.LFE38:
 326              		.size	CapSense_1_InitializeEnabledBaselines, .-CapSense_1_InitializeEnabledBaselines
 327              		.section	.text.CapSense_1_UpdateBaselineNoThreshold,"ax",%progbits
 328              		.align	2
 329              		.global	CapSense_1_UpdateBaselineNoThreshold
 330              		.code	16
 331              		.thumb_func
 332              		.type	CapSense_1_UpdateBaselineNoThreshold, %function
 333              	CapSense_1_UpdateBaselineNoThreshold:
 334              	.LFB39:
 305:Generated_Source\PSoC4/CapSense_1_CSHL.c **** 
 306:Generated_Source\PSoC4/CapSense_1_CSHL.c **** 
 307:Generated_Source\PSoC4/CapSense_1_CSHL.c **** /*******************************************************************************
 308:Generated_Source\PSoC4/CapSense_1_CSHL.c **** * Function Name: CapSense_1_UpdateBaselineNoThreshold
 309:Generated_Source\PSoC4/CapSense_1_CSHL.c **** ********************************************************************************
 310:Generated_Source\PSoC4/CapSense_1_CSHL.c **** *
 311:Generated_Source\PSoC4/CapSense_1_CSHL.c **** * Summary:
 312:Generated_Source\PSoC4/CapSense_1_CSHL.c **** *  Updates the CapSense_1_sensorBaseline[sensor] array element using the
 313:Generated_Source\PSoC4/CapSense_1_CSHL.c **** *  LP filter with k = 256. The signal calculates the difference of count by
 314:Generated_Source\PSoC4/CapSense_1_CSHL.c **** *  subtracting the previous baseline from the current raw count value and stores
 315:Generated_Source\PSoC4/CapSense_1_CSHL.c **** *  it in CapSense_1_sensorSignal[sensor].
 316:Generated_Source\PSoC4/CapSense_1_CSHL.c **** *  If the auto reset option is enabled, the baseline updated regards the noise threshold.
 317:Generated_Source\PSoC4/CapSense_1_CSHL.c **** *  If the auto reset option is disabled, the baseline stops updating; baseline is loaded
 318:Generated_Source\PSoC4/CapSense_1_CSHL.c **** *  with a raw count value if a signal is greater than zero and if signal is less
 319:Generated_Source\PSoC4/CapSense_1_CSHL.c **** *  than noise threshold.
 320:Generated_Source\PSoC4/CapSense_1_CSHL.c **** *  Raw data filters are applied to the values if enabled before baseline
 321:Generated_Source\PSoC4/CapSense_1_CSHL.c **** *  calculation.
 322:Generated_Source\PSoC4/CapSense_1_CSHL.c **** *
 323:Generated_Source\PSoC4/CapSense_1_CSHL.c **** *  This API does not update the thresholds in the Smartsense Mode.
 324:Generated_Source\PSoC4/CapSense_1_CSHL.c **** *
 325:Generated_Source\PSoC4/CapSense_1_CSHL.c **** * Parameters:
 326:Generated_Source\PSoC4/CapSense_1_CSHL.c **** *  sensor:  Sensor number.
 327:Generated_Source\PSoC4/CapSense_1_CSHL.c **** *
 328:Generated_Source\PSoC4/CapSense_1_CSHL.c **** * Return:
 329:Generated_Source\PSoC4/CapSense_1_CSHL.c **** *  None
 330:Generated_Source\PSoC4/CapSense_1_CSHL.c **** *
 331:Generated_Source\PSoC4/CapSense_1_CSHL.c **** * Global Variables:
 332:Generated_Source\PSoC4/CapSense_1_CSHL.c **** *  CapSense_1_widgetNumber[]  - stores widget numbers.
 333:Generated_Source\PSoC4/CapSense_1_CSHL.c **** *  CapSense_1_sensorBaseline[]    - used to store baseline value.
 334:Generated_Source\PSoC4/CapSense_1_CSHL.c **** *  CapSense_1_sensorBaselineLow[] - used to store fraction byte of
 335:Generated_Source\PSoC4/CapSense_1_CSHL.c **** *  baseline value.
 336:Generated_Source\PSoC4/CapSense_1_CSHL.c **** *  CapSense_1_sensorSignal[]      - used to store difference between
 337:Generated_Source\PSoC4/CapSense_1_CSHL.c **** *  current value of raw data and previous value of baseline.
 338:Generated_Source\PSoC4/CapSense_1_CSHL.c **** *  CapSense_1_rawFilterData1[]    - used to store previous sample of
 339:Generated_Source\PSoC4/CapSense_1_CSHL.c **** *  any enabled raw data filter.
 340:Generated_Source\PSoC4/CapSense_1_CSHL.c **** *  CapSense_1_rawFilterData2[]    - used to store before previous sample
 341:Generated_Source\PSoC4/CapSense_1_CSHL.c **** *  of enabled raw data filter. Only required for median or average filters.
 342:Generated_Source\PSoC4/CapSense_1_CSHL.c **** *
 343:Generated_Source\PSoC4/CapSense_1_CSHL.c **** * Side Effects:
 344:Generated_Source\PSoC4/CapSense_1_CSHL.c **** *  None
 345:Generated_Source\PSoC4/CapSense_1_CSHL.c **** *
 346:Generated_Source\PSoC4/CapSense_1_CSHL.c **** *******************************************************************************/
ARM GAS  C:\Users\IGOR~1.HOL\AppData\Local\Temp\cc8IZ2FY.s 			page 13


 347:Generated_Source\PSoC4/CapSense_1_CSHL.c **** void CapSense_1_UpdateBaselineNoThreshold(uint32 sensor)
 348:Generated_Source\PSoC4/CapSense_1_CSHL.c **** {
 335              		.loc 1 348 0
 336              		.cfi_startproc
 337 0000 90B5     		push	{r4, r7, lr}
 338              		.cfi_def_cfa_offset 12
 339              		.cfi_offset 4, -12
 340              		.cfi_offset 7, -8
 341              		.cfi_offset 14, -4
 342 0002 87B0     		sub	sp, sp, #28
 343              		.cfi_def_cfa_offset 40
 344 0004 00AF     		add	r7, sp, #0
 345              		.cfi_def_cfa_register 7
 346 0006 7860     		str	r0, [r7, #4]
 349:Generated_Source\PSoC4/CapSense_1_CSHL.c ****     uint32 calc;
 350:Generated_Source\PSoC4/CapSense_1_CSHL.c ****     uint32 sign;
 351:Generated_Source\PSoC4/CapSense_1_CSHL.c ****     uint16 tempRaw;
 352:Generated_Source\PSoC4/CapSense_1_CSHL.c ****     uint16 filteredRawData;
 353:Generated_Source\PSoC4/CapSense_1_CSHL.c ****     uint8 widget = CapSense_1_widgetNumber[sensor];
 347              		.loc 1 353 0
 348 0008 0F23     		mov	r3, #15
 349 000a FB18     		add	r3, r7, r3
 350 000c 7E49     		ldr	r1, .L29
 351 000e 7A68     		ldr	r2, [r7, #4]
 352 0010 8A18     		add	r2, r1, r2
 353 0012 1278     		ldrb	r2, [r2]
 354 0014 1A70     		strb	r2, [r3]
 354:Generated_Source\PSoC4/CapSense_1_CSHL.c ****     uint8 noiseThreshold;
 355:Generated_Source\PSoC4/CapSense_1_CSHL.c **** 
 356:Generated_Source\PSoC4/CapSense_1_CSHL.c ****     #if (CapSense_1_TOTAL_GENERICS_COUNT)
 357:Generated_Source\PSoC4/CapSense_1_CSHL.c ****         /* Exclude generic widget */
 358:Generated_Source\PSoC4/CapSense_1_CSHL.c ****         if(widget < CapSense_1_END_OF_WIDGETS_INDEX)
 359:Generated_Source\PSoC4/CapSense_1_CSHL.c ****         {
 360:Generated_Source\PSoC4/CapSense_1_CSHL.c ****     #endif  /* CapSense_1_TOTAL_GENERICS_COUNT */
 361:Generated_Source\PSoC4/CapSense_1_CSHL.c **** 
 362:Generated_Source\PSoC4/CapSense_1_CSHL.c ****     noiseThreshold = CapSense_1_noiseThreshold[widget];
 355              		.loc 1 362 0
 356 0016 0F23     		mov	r3, #15
 357 0018 FB18     		add	r3, r7, r3
 358 001a 1A78     		ldrb	r2, [r3]
 359 001c 0E23     		mov	r3, #14
 360 001e FB18     		add	r3, r7, r3
 361 0020 7A49     		ldr	r1, .L29+4
 362 0022 8A5C     		ldrb	r2, [r1, r2]
 363 0024 1A70     		strb	r2, [r3]
 363:Generated_Source\PSoC4/CapSense_1_CSHL.c ****     filteredRawData = CapSense_1_sensorRaw[sensor];
 364              		.loc 1 363 0
 365 0026 1023     		mov	r3, #16
 366 0028 FB18     		add	r3, r7, r3
 367 002a 794A     		ldr	r2, .L29+8
 368 002c 7968     		ldr	r1, [r7, #4]
 369 002e 4900     		lsl	r1, r1, #1
 370 0030 8A5A     		ldrh	r2, [r1, r2]
 371 0032 1A80     		strh	r2, [r3]
 364:Generated_Source\PSoC4/CapSense_1_CSHL.c **** 
 365:Generated_Source\PSoC4/CapSense_1_CSHL.c ****     #if (CapSense_1_RAW_FILTER_MASK != 0u)
 366:Generated_Source\PSoC4/CapSense_1_CSHL.c ****     if(CapSense_1_enableRawFilters != 0u)
ARM GAS  C:\Users\IGOR~1.HOL\AppData\Local\Temp\cc8IZ2FY.s 			page 14


 372              		.loc 1 366 0
 373 0034 774B     		ldr	r3, .L29+12
 374 0036 1B78     		ldrb	r3, [r3]
 375 0038 002B     		cmp	r3, #0
 376 003a 15D0     		beq	.L17
 367:Generated_Source\PSoC4/CapSense_1_CSHL.c ****     {
 368:Generated_Source\PSoC4/CapSense_1_CSHL.c ****         #if (CapSense_1_RAW_FILTER_MASK & CapSense_1_MEDIAN_FILTER)
 369:Generated_Source\PSoC4/CapSense_1_CSHL.c ****             tempRaw = filteredRawData;
 370:Generated_Source\PSoC4/CapSense_1_CSHL.c ****             filteredRawData = CapSense_1_MedianFilter(filteredRawData, CapSense_1_rawFilterData1[se
 371:Generated_Source\PSoC4/CapSense_1_CSHL.c ****                                                             CapSense_1_rawFilterData2[sensor]);
 372:Generated_Source\PSoC4/CapSense_1_CSHL.c ****             CapSense_1_rawFilterData2[sensor] = CapSense_1_rawFilterData1[sensor];
 373:Generated_Source\PSoC4/CapSense_1_CSHL.c ****             CapSense_1_rawFilterData1[sensor] = tempRaw;
 374:Generated_Source\PSoC4/CapSense_1_CSHL.c **** 
 375:Generated_Source\PSoC4/CapSense_1_CSHL.c ****         #elif (CapSense_1_RAW_FILTER_MASK & CapSense_1_AVERAGING_FILTER)
 376:Generated_Source\PSoC4/CapSense_1_CSHL.c ****             tempRaw = filteredRawData;
 377:Generated_Source\PSoC4/CapSense_1_CSHL.c ****             filteredRawData = CapSense_1_AveragingFilter(filteredRawData, CapSense_1_rawFilterData1
 378:Generated_Source\PSoC4/CapSense_1_CSHL.c ****                                                                CapSense_1_rawFilterData2[sensor]);
 379:Generated_Source\PSoC4/CapSense_1_CSHL.c ****             CapSense_1_rawFilterData2[sensor] = CapSense_1_rawFilterData1[sensor];
 380:Generated_Source\PSoC4/CapSense_1_CSHL.c ****             CapSense_1_rawFilterData1[sensor] = tempRaw;
 381:Generated_Source\PSoC4/CapSense_1_CSHL.c **** 
 382:Generated_Source\PSoC4/CapSense_1_CSHL.c ****         #elif (CapSense_1_RAW_FILTER_MASK & CapSense_1_IIR2_FILTER)
 383:Generated_Source\PSoC4/CapSense_1_CSHL.c ****             filteredRawData = CapSense_1_IIR2Filter(filteredRawData, CapSense_1_rawFilterData1[sens
 384:Generated_Source\PSoC4/CapSense_1_CSHL.c ****             CapSense_1_rawFilterData1[sensor] = filteredRawData;
 385:Generated_Source\PSoC4/CapSense_1_CSHL.c **** 
 386:Generated_Source\PSoC4/CapSense_1_CSHL.c ****         #elif (CapSense_1_RAW_FILTER_MASK & CapSense_1_IIR4_FILTER)
 387:Generated_Source\PSoC4/CapSense_1_CSHL.c ****             filteredRawData = CapSense_1_IIR4Filter(filteredRawData, CapSense_1_rawFilterData1[sens
 377              		.loc 1 387 0
 378 003c 764B     		ldr	r3, .L29+16
 379 003e 7A68     		ldr	r2, [r7, #4]
 380 0040 5200     		lsl	r2, r2, #1
 381 0042 D25A     		ldrh	r2, [r2, r3]
 382 0044 1023     		mov	r3, #16
 383 0046 FC18     		add	r4, r7, r3
 384 0048 1023     		mov	r3, #16
 385 004a FB18     		add	r3, r7, r3
 386 004c 1B88     		ldrh	r3, [r3]
 387 004e 181C     		mov	r0, r3
 388 0050 111C     		mov	r1, r2
 389 0052 FFF7FEFF 		bl	CapSense_1_IIR4Filter
 390 0056 031C     		mov	r3, r0
 391 0058 2380     		strh	r3, [r4]
 388:Generated_Source\PSoC4/CapSense_1_CSHL.c ****             CapSense_1_rawFilterData1[sensor] = filteredRawData;
 392              		.loc 1 388 0
 393 005a 6F4B     		ldr	r3, .L29+16
 394 005c 7A68     		ldr	r2, [r7, #4]
 395 005e 5200     		lsl	r2, r2, #1
 396 0060 1021     		mov	r1, #16
 397 0062 7918     		add	r1, r7, r1
 398 0064 0988     		ldrh	r1, [r1]
 399 0066 D152     		strh	r1, [r2, r3]
 400              	.L17:
 389:Generated_Source\PSoC4/CapSense_1_CSHL.c **** 
 390:Generated_Source\PSoC4/CapSense_1_CSHL.c ****         #elif (CapSense_1_RAW_FILTER_MASK & CapSense_1_JITTER_FILTER)
 391:Generated_Source\PSoC4/CapSense_1_CSHL.c ****             filteredRawData = CapSense_1_JitterFilter(filteredRawData, CapSense_1_rawFilterData1[se
 392:Generated_Source\PSoC4/CapSense_1_CSHL.c ****             CapSense_1_rawFilterData1[sensor] = filteredRawData;
 393:Generated_Source\PSoC4/CapSense_1_CSHL.c **** 
 394:Generated_Source\PSoC4/CapSense_1_CSHL.c ****         #elif (CapSense_1_RAW_FILTER_MASK & CapSense_1_IIR8_FILTER)
ARM GAS  C:\Users\IGOR~1.HOL\AppData\Local\Temp\cc8IZ2FY.s 			page 15


 395:Generated_Source\PSoC4/CapSense_1_CSHL.c ****             filteredRawData = CapSense_1_IIR8Filter(filteredRawData, CapSense_1_rawFilterData1[sens
 396:Generated_Source\PSoC4/CapSense_1_CSHL.c ****             CapSense_1_rawFilterData1[sensor] = filteredRawData;
 397:Generated_Source\PSoC4/CapSense_1_CSHL.c **** 
 398:Generated_Source\PSoC4/CapSense_1_CSHL.c ****         #elif (CapSense_1_RAW_FILTER_MASK & CapSense_1_IIR16_FILTER)
 399:Generated_Source\PSoC4/CapSense_1_CSHL.c ****             filteredRawData = CapSense_1_IIR16Filter(filteredRawData, CapSense_1_rawFilterData1[sen
 400:Generated_Source\PSoC4/CapSense_1_CSHL.c ****             CapSense_1_rawFilterData1[sensor] = filteredRawData;
 401:Generated_Source\PSoC4/CapSense_1_CSHL.c **** 
 402:Generated_Source\PSoC4/CapSense_1_CSHL.c ****         #else
 403:Generated_Source\PSoC4/CapSense_1_CSHL.c ****             /* No Raw filters */
 404:Generated_Source\PSoC4/CapSense_1_CSHL.c ****         #endif  /* (CapSense_1_RAW_FILTER_MASK & CapSense_1_MEDIAN_FILTER) */
 405:Generated_Source\PSoC4/CapSense_1_CSHL.c ****     }
 406:Generated_Source\PSoC4/CapSense_1_CSHL.c ****     #endif  /* (CapSense_1_RAW_FILTER_MASK != 0u) */
 407:Generated_Source\PSoC4/CapSense_1_CSHL.c **** 
 408:Generated_Source\PSoC4/CapSense_1_CSHL.c ****     #if (CapSense_1_TUNING_METHOD == CapSense_1__TUNING_AUTO)
 409:Generated_Source\PSoC4/CapSense_1_CSHL.c ****         MeasureNoiseEnvelope_P4_v2_60(&CapSense_1_config, (uint8)sensor, CapSense_1_sensorRaw);
 401              		.loc 1 409 0
 402 0068 7B68     		ldr	r3, [r7, #4]
 403 006a DAB2     		uxtb	r2, r3
 404 006c 6B49     		ldr	r1, .L29+20
 405 006e 684B     		ldr	r3, .L29+8
 406 0070 081C     		mov	r0, r1
 407 0072 111C     		mov	r1, r2
 408 0074 1A1C     		mov	r2, r3
 409 0076 FFF7FEFF 		bl	MeasureNoiseEnvelope_P4_v2_60
 410:Generated_Source\PSoC4/CapSense_1_CSHL.c ****     #endif /* (CapSense_1_TUNING_METHOD == CapSense_1__TUNING_AUTO) */
 411:Generated_Source\PSoC4/CapSense_1_CSHL.c **** 
 412:Generated_Source\PSoC4/CapSense_1_CSHL.c ****     /* Baseline calculation */
 413:Generated_Source\PSoC4/CapSense_1_CSHL.c ****     /* Calculate difference RawData[cur] - Baseline[prev] */
 414:Generated_Source\PSoC4/CapSense_1_CSHL.c ****     if(filteredRawData >= CapSense_1_sensorBaseline[sensor])
 410              		.loc 1 414 0
 411 007a 694B     		ldr	r3, .L29+24
 412 007c 7A68     		ldr	r2, [r7, #4]
 413 007e 5200     		lsl	r2, r2, #1
 414 0080 D35A     		ldrh	r3, [r2, r3]
 415 0082 1022     		mov	r2, #16
 416 0084 BA18     		add	r2, r7, r2
 417 0086 1288     		ldrh	r2, [r2]
 418 0088 9A42     		cmp	r2, r3
 419 008a 12D3     		bcc	.L18
 415:Generated_Source\PSoC4/CapSense_1_CSHL.c ****     {
 416:Generated_Source\PSoC4/CapSense_1_CSHL.c ****         CapSense_1_lowBaselineResetCnt[sensor] = 0u;
 420              		.loc 1 416 0
 421 008c 654A     		ldr	r2, .L29+28
 422 008e 7B68     		ldr	r3, [r7, #4]
 423 0090 D318     		add	r3, r2, r3
 424 0092 0022     		mov	r2, #0
 425 0094 1A70     		strb	r2, [r3]
 417:Generated_Source\PSoC4/CapSense_1_CSHL.c ****         tempRaw = filteredRawData - CapSense_1_sensorBaseline[sensor];
 426              		.loc 1 417 0
 427 0096 624B     		ldr	r3, .L29+24
 428 0098 7A68     		ldr	r2, [r7, #4]
 429 009a 5200     		lsl	r2, r2, #1
 430 009c D25A     		ldrh	r2, [r2, r3]
 431 009e 1223     		mov	r3, #18
 432 00a0 FB18     		add	r3, r7, r3
 433 00a2 1021     		mov	r1, #16
 434 00a4 7918     		add	r1, r7, r1
ARM GAS  C:\Users\IGOR~1.HOL\AppData\Local\Temp\cc8IZ2FY.s 			page 16


 435 00a6 0988     		ldrh	r1, [r1]
 436 00a8 8A1A     		sub	r2, r1, r2
 437 00aa 1A80     		strh	r2, [r3]
 418:Generated_Source\PSoC4/CapSense_1_CSHL.c ****         sign = 1u;    /* Positive difference - Calculate the Signal */
 438              		.loc 1 418 0
 439 00ac 0123     		mov	r3, #1
 440 00ae 7B61     		str	r3, [r7, #20]
 441 00b0 0CE0     		b	.L19
 442              	.L18:
 419:Generated_Source\PSoC4/CapSense_1_CSHL.c ****     }
 420:Generated_Source\PSoC4/CapSense_1_CSHL.c ****     else
 421:Generated_Source\PSoC4/CapSense_1_CSHL.c ****     {
 422:Generated_Source\PSoC4/CapSense_1_CSHL.c ****         tempRaw = CapSense_1_sensorBaseline[sensor] - filteredRawData;
 443              		.loc 1 422 0
 444 00b2 5B4B     		ldr	r3, .L29+24
 445 00b4 7A68     		ldr	r2, [r7, #4]
 446 00b6 5200     		lsl	r2, r2, #1
 447 00b8 D15A     		ldrh	r1, [r2, r3]
 448 00ba 1223     		mov	r3, #18
 449 00bc FB18     		add	r3, r7, r3
 450 00be 1022     		mov	r2, #16
 451 00c0 BA18     		add	r2, r7, r2
 452 00c2 1288     		ldrh	r2, [r2]
 453 00c4 8A1A     		sub	r2, r1, r2
 454 00c6 1A80     		strh	r2, [r3]
 423:Generated_Source\PSoC4/CapSense_1_CSHL.c ****         sign = 0u;    /* Negative difference - Do NOT calculate the Signal */
 455              		.loc 1 423 0
 456 00c8 0023     		mov	r3, #0
 457 00ca 7B61     		str	r3, [r7, #20]
 458              	.L19:
 424:Generated_Source\PSoC4/CapSense_1_CSHL.c ****     }
 425:Generated_Source\PSoC4/CapSense_1_CSHL.c **** 
 426:Generated_Source\PSoC4/CapSense_1_CSHL.c ****     #if (CapSense_1_TUNING_METHOD != CapSense_1__TUNING_NONE)
 427:Generated_Source\PSoC4/CapSense_1_CSHL.c ****     if((sign == 0u) && (tempRaw > (uint16) CapSense_1_negativeNoiseThreshold[widget]))
 459              		.loc 1 427 0
 460 00cc 7B69     		ldr	r3, [r7, #20]
 461 00ce 002B     		cmp	r3, #0
 462 00d0 2AD1     		bne	.L20
 463              		.loc 1 427 0 is_stmt 0 discriminator 1
 464 00d2 0F23     		mov	r3, #15
 465 00d4 FB18     		add	r3, r7, r3
 466 00d6 1B78     		ldrb	r3, [r3]
 467 00d8 534A     		ldr	r2, .L29+32
 468 00da D35C     		ldrb	r3, [r2, r3]
 469 00dc 9BB2     		uxth	r3, r3
 470 00de 1222     		mov	r2, #18
 471 00e0 BA18     		add	r2, r7, r2
 472 00e2 1288     		ldrh	r2, [r2]
 473 00e4 9A42     		cmp	r2, r3
 474 00e6 1FD9     		bls	.L20
 428:Generated_Source\PSoC4/CapSense_1_CSHL.c ****     #else
 429:Generated_Source\PSoC4/CapSense_1_CSHL.c ****     if((sign == 0u) && (tempRaw > (uint16) CapSense_1_NEGATIVE_NOISE_THRESHOLD))
 430:Generated_Source\PSoC4/CapSense_1_CSHL.c ****     #endif /* (CapSense_1_TUNING_METHOD != CapSense_1__TUNING_NONE) */
 431:Generated_Source\PSoC4/CapSense_1_CSHL.c ****     {
 432:Generated_Source\PSoC4/CapSense_1_CSHL.c ****         if(CapSense_1_lowBaselineResetCnt[sensor] >= CapSense_1_lowBaselineReset[sensor])
 475              		.loc 1 432 0 is_stmt 1
 476 00e8 4E4A     		ldr	r2, .L29+28
ARM GAS  C:\Users\IGOR~1.HOL\AppData\Local\Temp\cc8IZ2FY.s 			page 17


 477 00ea 7B68     		ldr	r3, [r7, #4]
 478 00ec D318     		add	r3, r2, r3
 479 00ee 1A78     		ldrb	r2, [r3]
 480 00f0 4E49     		ldr	r1, .L29+36
 481 00f2 7B68     		ldr	r3, [r7, #4]
 482 00f4 CB18     		add	r3, r1, r3
 483 00f6 1B78     		ldrb	r3, [r3]
 484 00f8 9A42     		cmp	r2, r3
 485 00fa 09D3     		bcc	.L21
 433:Generated_Source\PSoC4/CapSense_1_CSHL.c ****         {
 434:Generated_Source\PSoC4/CapSense_1_CSHL.c ****             CapSense_1_BaseInit(sensor);
 486              		.loc 1 434 0
 487 00fc 7B68     		ldr	r3, [r7, #4]
 488 00fe 181C     		mov	r0, r3
 489 0100 FFF7FEFF 		bl	CapSense_1_BaseInit
 435:Generated_Source\PSoC4/CapSense_1_CSHL.c ****             CapSense_1_lowBaselineResetCnt[sensor] = 0u;
 490              		.loc 1 435 0
 491 0104 474A     		ldr	r2, .L29+28
 492 0106 7B68     		ldr	r3, [r7, #4]
 493 0108 D318     		add	r3, r2, r3
 494 010a 0022     		mov	r2, #0
 495 010c 1A70     		strb	r2, [r3]
 432:Generated_Source\PSoC4/CapSense_1_CSHL.c ****         {
 496              		.loc 1 432 0
 497 010e 51E0     		b	.L23
 498              	.L21:
 436:Generated_Source\PSoC4/CapSense_1_CSHL.c ****         }
 437:Generated_Source\PSoC4/CapSense_1_CSHL.c ****         else
 438:Generated_Source\PSoC4/CapSense_1_CSHL.c ****         {
 439:Generated_Source\PSoC4/CapSense_1_CSHL.c ****             CapSense_1_lowBaselineResetCnt[sensor]++;
 499              		.loc 1 439 0
 500 0110 444A     		ldr	r2, .L29+28
 501 0112 7B68     		ldr	r3, [r7, #4]
 502 0114 D318     		add	r3, r2, r3
 503 0116 1B78     		ldrb	r3, [r3]
 504 0118 0133     		add	r3, r3, #1
 505 011a D9B2     		uxtb	r1, r3
 506 011c 414A     		ldr	r2, .L29+28
 507 011e 7B68     		ldr	r3, [r7, #4]
 508 0120 D318     		add	r3, r2, r3
 509 0122 0A1C     		add	r2, r1, #0
 510 0124 1A70     		strb	r2, [r3]
 432:Generated_Source\PSoC4/CapSense_1_CSHL.c ****         {
 511              		.loc 1 432 0
 512 0126 45E0     		b	.L23
 513              	.L20:
 440:Generated_Source\PSoC4/CapSense_1_CSHL.c ****         }
 441:Generated_Source\PSoC4/CapSense_1_CSHL.c ****     }
 442:Generated_Source\PSoC4/CapSense_1_CSHL.c ****     else
 443:Generated_Source\PSoC4/CapSense_1_CSHL.c ****     {
 444:Generated_Source\PSoC4/CapSense_1_CSHL.c ****         #if (CapSense_1_AUTO_RESET == CapSense_1_AUTO_RESET_DISABLE)
 445:Generated_Source\PSoC4/CapSense_1_CSHL.c ****         #if (CapSense_1_TUNING_METHOD != CapSense_1__TUNING_NONE)
 446:Generated_Source\PSoC4/CapSense_1_CSHL.c ****             /* Update Baseline if lower than noiseThreshold */
 447:Generated_Source\PSoC4/CapSense_1_CSHL.c ****             if ( (tempRaw <= noiseThreshold) ||
 514              		.loc 1 447 0
 515 0128 0E23     		mov	r3, #14
 516 012a FB18     		add	r3, r7, r3
ARM GAS  C:\Users\IGOR~1.HOL\AppData\Local\Temp\cc8IZ2FY.s 			page 18


 517 012c 1B78     		ldrb	r3, [r3]
 518 012e 9BB2     		uxth	r3, r3
 519 0130 1222     		mov	r2, #18
 520 0132 BA18     		add	r2, r7, r2
 521 0134 1288     		ldrh	r2, [r2]
 522 0136 9A42     		cmp	r2, r3
 523 0138 0DD9     		bls	.L24
 448:Generated_Source\PSoC4/CapSense_1_CSHL.c ****              ((tempRaw < (uint16) CapSense_1_negativeNoiseThreshold[widget])
 524              		.loc 1 448 0 discriminator 1
 525 013a 0F23     		mov	r3, #15
 526 013c FB18     		add	r3, r7, r3
 527 013e 1B78     		ldrb	r3, [r3]
 528 0140 394A     		ldr	r2, .L29+32
 529 0142 D35C     		ldrb	r3, [r2, r3]
 530 0144 9BB2     		uxth	r3, r3
 447:Generated_Source\PSoC4/CapSense_1_CSHL.c ****              ((tempRaw < (uint16) CapSense_1_negativeNoiseThreshold[widget])
 531              		.loc 1 447 0 discriminator 1
 532 0146 1222     		mov	r2, #18
 533 0148 BA18     		add	r2, r7, r2
 534 014a 1288     		ldrh	r2, [r2]
 535 014c 9A42     		cmp	r2, r3
 536 014e 31D2     		bcs	.L23
 449:Generated_Source\PSoC4/CapSense_1_CSHL.c ****                && (sign == 0u)))
 537              		.loc 1 449 0
 538 0150 7B69     		ldr	r3, [r7, #20]
 539 0152 002B     		cmp	r3, #0
 540 0154 2ED1     		bne	.L23
 541              	.L24:
 450:Generated_Source\PSoC4/CapSense_1_CSHL.c ****             {
 451:Generated_Source\PSoC4/CapSense_1_CSHL.c ****         #else
 452:Generated_Source\PSoC4/CapSense_1_CSHL.c ****             /* Update Baseline if lower than noiseThreshold */
 453:Generated_Source\PSoC4/CapSense_1_CSHL.c ****             if ( (tempRaw <= noiseThreshold) ||
 454:Generated_Source\PSoC4/CapSense_1_CSHL.c ****                  ((tempRaw < (uint16) CapSense_1_NEGATIVE_NOISE_THRESHOLD)
 455:Generated_Source\PSoC4/CapSense_1_CSHL.c ****                    && (sign == 0u)))
 456:Generated_Source\PSoC4/CapSense_1_CSHL.c ****             {
 457:Generated_Source\PSoC4/CapSense_1_CSHL.c ****         #endif /* (CapSense_1_TUNING_METHOD != CapSense_1__TUNING_NONE) */
 458:Generated_Source\PSoC4/CapSense_1_CSHL.c ****         #endif /* (CapSense_1_AUTO_RESET == CapSense_1_AUTO_RESET_DISABLE) */
 459:Generated_Source\PSoC4/CapSense_1_CSHL.c ****                 /* Make full Baseline 23 bits */
 460:Generated_Source\PSoC4/CapSense_1_CSHL.c ****                 calc = (uint32) CapSense_1_sensorBaseline[sensor] << 8u;
 542              		.loc 1 460 0
 543 0156 324B     		ldr	r3, .L29+24
 544 0158 7A68     		ldr	r2, [r7, #4]
 545 015a 5200     		lsl	r2, r2, #1
 546 015c D35A     		ldrh	r3, [r2, r3]
 547 015e 1B02     		lsl	r3, r3, #8
 548 0160 BB60     		str	r3, [r7, #8]
 461:Generated_Source\PSoC4/CapSense_1_CSHL.c ****                 calc |= (uint32) CapSense_1_sensorBaselineLow[sensor];
 549              		.loc 1 461 0
 550 0162 334A     		ldr	r2, .L29+40
 551 0164 7B68     		ldr	r3, [r7, #4]
 552 0166 D318     		add	r3, r2, r3
 553 0168 1B78     		ldrb	r3, [r3]
 554 016a 1A1C     		mov	r2, r3
 555 016c BB68     		ldr	r3, [r7, #8]
 556 016e 1343     		orr	r3, r2
 557 0170 BB60     		str	r3, [r7, #8]
 462:Generated_Source\PSoC4/CapSense_1_CSHL.c **** 
ARM GAS  C:\Users\IGOR~1.HOL\AppData\Local\Temp\cc8IZ2FY.s 			page 19


 463:Generated_Source\PSoC4/CapSense_1_CSHL.c ****                 /* Add Raw Data to Baseline */
 464:Generated_Source\PSoC4/CapSense_1_CSHL.c ****                 calc += filteredRawData;
 558              		.loc 1 464 0
 559 0172 1023     		mov	r3, #16
 560 0174 FB18     		add	r3, r7, r3
 561 0176 1B88     		ldrh	r3, [r3]
 562 0178 BA68     		ldr	r2, [r7, #8]
 563 017a D318     		add	r3, r2, r3
 564 017c BB60     		str	r3, [r7, #8]
 465:Generated_Source\PSoC4/CapSense_1_CSHL.c **** 
 466:Generated_Source\PSoC4/CapSense_1_CSHL.c ****                 /* Sub the high Baseline */
 467:Generated_Source\PSoC4/CapSense_1_CSHL.c ****                 calc -= CapSense_1_sensorBaseline[sensor];
 565              		.loc 1 467 0
 566 017e 284B     		ldr	r3, .L29+24
 567 0180 7A68     		ldr	r2, [r7, #4]
 568 0182 5200     		lsl	r2, r2, #1
 569 0184 D35A     		ldrh	r3, [r2, r3]
 570 0186 1A1C     		mov	r2, r3
 571 0188 BB68     		ldr	r3, [r7, #8]
 572 018a 9B1A     		sub	r3, r3, r2
 573 018c BB60     		str	r3, [r7, #8]
 468:Generated_Source\PSoC4/CapSense_1_CSHL.c **** 
 469:Generated_Source\PSoC4/CapSense_1_CSHL.c ****                 /* Put Baseline and BaselineLow */
 470:Generated_Source\PSoC4/CapSense_1_CSHL.c ****                 CapSense_1_sensorBaseline[sensor] = ((uint16) (calc >> 8u));
 574              		.loc 1 470 0
 575 018e BB68     		ldr	r3, [r7, #8]
 576 0190 1B0A     		lsr	r3, r3, #8
 577 0192 99B2     		uxth	r1, r3
 578 0194 224B     		ldr	r3, .L29+24
 579 0196 7A68     		ldr	r2, [r7, #4]
 580 0198 5200     		lsl	r2, r2, #1
 581 019a D152     		strh	r1, [r2, r3]
 471:Generated_Source\PSoC4/CapSense_1_CSHL.c ****                 CapSense_1_sensorBaselineLow[sensor] = ((uint8) calc);
 582              		.loc 1 471 0
 583 019c BB68     		ldr	r3, [r7, #8]
 584 019e D9B2     		uxtb	r1, r3
 585 01a0 234A     		ldr	r2, .L29+40
 586 01a2 7B68     		ldr	r3, [r7, #4]
 587 01a4 D318     		add	r3, r2, r3
 588 01a6 0A1C     		add	r2, r1, #0
 589 01a8 1A70     		strb	r2, [r3]
 472:Generated_Source\PSoC4/CapSense_1_CSHL.c **** 
 473:Generated_Source\PSoC4/CapSense_1_CSHL.c ****                 CapSense_1_lowBaselineResetCnt[sensor] = 0u;
 590              		.loc 1 473 0
 591 01aa 1E4A     		ldr	r2, .L29+28
 592 01ac 7B68     		ldr	r3, [r7, #4]
 593 01ae D318     		add	r3, r2, r3
 594 01b0 0022     		mov	r2, #0
 595 01b2 1A70     		strb	r2, [r3]
 596              	.L23:
 474:Generated_Source\PSoC4/CapSense_1_CSHL.c ****         #if (CapSense_1_AUTO_RESET == CapSense_1_AUTO_RESET_DISABLE)
 475:Generated_Source\PSoC4/CapSense_1_CSHL.c ****             }
 476:Generated_Source\PSoC4/CapSense_1_CSHL.c ****         #endif /* (CapSense_1_AUTO_RESET == CapSense_1_AUTO_RESET_DISABLE) */
 477:Generated_Source\PSoC4/CapSense_1_CSHL.c ****     }
 478:Generated_Source\PSoC4/CapSense_1_CSHL.c **** 
 479:Generated_Source\PSoC4/CapSense_1_CSHL.c ****     /* Calculate Signal if positive difference > noiseThreshold */
 480:Generated_Source\PSoC4/CapSense_1_CSHL.c ****     if((tempRaw > (uint16) noiseThreshold) && (sign != 0u))
ARM GAS  C:\Users\IGOR~1.HOL\AppData\Local\Temp\cc8IZ2FY.s 			page 20


 597              		.loc 1 480 0
 598 01b4 0E23     		mov	r3, #14
 599 01b6 FB18     		add	r3, r7, r3
 600 01b8 1B78     		ldrb	r3, [r3]
 601 01ba 9BB2     		uxth	r3, r3
 602 01bc 1222     		mov	r2, #18
 603 01be BA18     		add	r2, r7, r2
 604 01c0 1288     		ldrh	r2, [r2]
 605 01c2 9A42     		cmp	r2, r3
 606 01c4 17D9     		bls	.L25
 607              		.loc 1 480 0 is_stmt 0 discriminator 1
 608 01c6 7B69     		ldr	r3, [r7, #20]
 609 01c8 002B     		cmp	r3, #0
 610 01ca 14D0     		beq	.L25
 481:Generated_Source\PSoC4/CapSense_1_CSHL.c ****     {
 482:Generated_Source\PSoC4/CapSense_1_CSHL.c ****         #if (CapSense_1_SIGNAL_SIZE == CapSense_1_SIGNAL_SIZE_UINT8)
 483:Generated_Source\PSoC4/CapSense_1_CSHL.c ****             /* Over flow defence for uint8 */
 484:Generated_Source\PSoC4/CapSense_1_CSHL.c ****             if (tempRaw > 0xFFu)
 611              		.loc 1 484 0 is_stmt 1
 612 01cc 1223     		mov	r3, #18
 613 01ce FB18     		add	r3, r7, r3
 614 01d0 1B88     		ldrh	r3, [r3]
 615 01d2 FF2B     		cmp	r3, #255
 616 01d4 05D9     		bls	.L26
 485:Generated_Source\PSoC4/CapSense_1_CSHL.c ****             {
 486:Generated_Source\PSoC4/CapSense_1_CSHL.c ****                 CapSense_1_sensorSignal[sensor] = 0xFFu;
 617              		.loc 1 486 0
 618 01d6 174A     		ldr	r2, .L29+44
 619 01d8 7B68     		ldr	r3, [r7, #4]
 620 01da D318     		add	r3, r2, r3
 621 01dc FF22     		mov	r2, #255
 622 01de 1A70     		strb	r2, [r3]
 484:Generated_Source\PSoC4/CapSense_1_CSHL.c ****             {
 623              		.loc 1 484 0
 624 01e0 0EE0     		b	.L16
 625              	.L26:
 487:Generated_Source\PSoC4/CapSense_1_CSHL.c ****             }
 488:Generated_Source\PSoC4/CapSense_1_CSHL.c ****             else
 489:Generated_Source\PSoC4/CapSense_1_CSHL.c ****             {
 490:Generated_Source\PSoC4/CapSense_1_CSHL.c ****                 CapSense_1_sensorSignal[sensor] = ((uint8) tempRaw);
 626              		.loc 1 490 0
 627 01e2 1223     		mov	r3, #18
 628 01e4 FB18     		add	r3, r7, r3
 629 01e6 1B88     		ldrh	r3, [r3]
 630 01e8 D9B2     		uxtb	r1, r3
 631 01ea 124A     		ldr	r2, .L29+44
 632 01ec 7B68     		ldr	r3, [r7, #4]
 633 01ee D318     		add	r3, r2, r3
 634 01f0 0A1C     		add	r2, r1, #0
 635 01f2 1A70     		strb	r2, [r3]
 484:Generated_Source\PSoC4/CapSense_1_CSHL.c ****             {
 636              		.loc 1 484 0
 637 01f4 04E0     		b	.L16
 638              	.L25:
 491:Generated_Source\PSoC4/CapSense_1_CSHL.c ****             }
 492:Generated_Source\PSoC4/CapSense_1_CSHL.c ****         #else
 493:Generated_Source\PSoC4/CapSense_1_CSHL.c ****             CapSense_1_sensorSignal[sensor] = ((uint16) tempRaw);
ARM GAS  C:\Users\IGOR~1.HOL\AppData\Local\Temp\cc8IZ2FY.s 			page 21


 494:Generated_Source\PSoC4/CapSense_1_CSHL.c ****         #endif  /* (CapSense_1_SIGNAL_SIZE == CapSense_1_SIGNAL_SIZE_UINT8) */
 495:Generated_Source\PSoC4/CapSense_1_CSHL.c ****     }
 496:Generated_Source\PSoC4/CapSense_1_CSHL.c ****     else
 497:Generated_Source\PSoC4/CapSense_1_CSHL.c ****     {
 498:Generated_Source\PSoC4/CapSense_1_CSHL.c ****         /* Signal is zero */
 499:Generated_Source\PSoC4/CapSense_1_CSHL.c ****         CapSense_1_sensorSignal[sensor] = 0u;
 639              		.loc 1 499 0
 640 01f6 0F4A     		ldr	r2, .L29+44
 641 01f8 7B68     		ldr	r3, [r7, #4]
 642 01fa D318     		add	r3, r2, r3
 643 01fc 0022     		mov	r2, #0
 644 01fe 1A70     		strb	r2, [r3]
 645              	.L16:
 500:Generated_Source\PSoC4/CapSense_1_CSHL.c ****     }
 501:Generated_Source\PSoC4/CapSense_1_CSHL.c **** 
 502:Generated_Source\PSoC4/CapSense_1_CSHL.c ****     #if (CapSense_1_TOTAL_GENERICS_COUNT)
 503:Generated_Source\PSoC4/CapSense_1_CSHL.c ****         /* Exclude generic widget */
 504:Generated_Source\PSoC4/CapSense_1_CSHL.c ****         }
 505:Generated_Source\PSoC4/CapSense_1_CSHL.c ****     #endif  /* CapSense_1_TOTAL_GENERICS_COUNT */
 506:Generated_Source\PSoC4/CapSense_1_CSHL.c **** }
 646              		.loc 1 506 0
 647 0200 BD46     		mov	sp, r7
 648 0202 07B0     		add	sp, sp, #28
 649              		@ sp needed
 650 0204 90BD     		pop	{r4, r7, pc}
 651              	.L30:
 652 0206 C046     		.align	2
 653              	.L29:
 654 0208 00000000 		.word	CapSense_1_widgetNumber
 655 020c 00000000 		.word	CapSense_1_noiseThreshold
 656 0210 00000000 		.word	CapSense_1_sensorRaw
 657 0214 00000000 		.word	CapSense_1_enableRawFilters
 658 0218 00000000 		.word	CapSense_1_rawFilterData1
 659 021c 00000000 		.word	CapSense_1_config
 660 0220 00000000 		.word	CapSense_1_sensorBaseline
 661 0224 00000000 		.word	CapSense_1_lowBaselineResetCnt
 662 0228 00000000 		.word	CapSense_1_negativeNoiseThreshold
 663 022c 00000000 		.word	CapSense_1_lowBaselineReset
 664 0230 00000000 		.word	CapSense_1_sensorBaselineLow
 665 0234 00000000 		.word	CapSense_1_sensorSignal
 666              		.cfi_endproc
 667              	.LFE39:
 668              		.size	CapSense_1_UpdateBaselineNoThreshold, .-CapSense_1_UpdateBaselineNoThreshold
 669              		.section	.text.CapSense_1_UpdateSensorBaseline,"ax",%progbits
 670              		.align	2
 671              		.global	CapSense_1_UpdateSensorBaseline
 672              		.code	16
 673              		.thumb_func
 674              		.type	CapSense_1_UpdateSensorBaseline, %function
 675              	CapSense_1_UpdateSensorBaseline:
 676              	.LFB40:
 507:Generated_Source\PSoC4/CapSense_1_CSHL.c **** 
 508:Generated_Source\PSoC4/CapSense_1_CSHL.c **** 
 509:Generated_Source\PSoC4/CapSense_1_CSHL.c **** /*******************************************************************************
 510:Generated_Source\PSoC4/CapSense_1_CSHL.c **** * Function Name: CapSense_1_UpdateSensorBaseline
 511:Generated_Source\PSoC4/CapSense_1_CSHL.c **** ********************************************************************************
 512:Generated_Source\PSoC4/CapSense_1_CSHL.c **** *
ARM GAS  C:\Users\IGOR~1.HOL\AppData\Local\Temp\cc8IZ2FY.s 			page 22


 513:Generated_Source\PSoC4/CapSense_1_CSHL.c **** * Summary:
 514:Generated_Source\PSoC4/CapSense_1_CSHL.c **** *  Updates the CapSense_1_sensorBaseline[sensor] array element using the
 515:Generated_Source\PSoC4/CapSense_1_CSHL.c **** *  LP filter with k = 256. The signal calculates the difference of count by
 516:Generated_Source\PSoC4/CapSense_1_CSHL.c **** *  subtracting the previous baseline from the current raw count value and stores
 517:Generated_Source\PSoC4/CapSense_1_CSHL.c **** *  it in CapSense_1_sensorSignal[sensor].
 518:Generated_Source\PSoC4/CapSense_1_CSHL.c **** *  If the auto reset option is enabled, the baseline updated regards the noise threshold.
 519:Generated_Source\PSoC4/CapSense_1_CSHL.c **** *  If the auto reset option is disabled, the baseline stops updating.
 520:Generated_Source\PSoC4/CapSense_1_CSHL.c **** *  Baseline is loaded with raw count value if a signal is greater than zero and
 521:Generated_Source\PSoC4/CapSense_1_CSHL.c **** *  if signal is less than noise threshold.
 522:Generated_Source\PSoC4/CapSense_1_CSHL.c **** *  Raw data filters are applied to the values if enabled before baseline
 523:Generated_Source\PSoC4/CapSense_1_CSHL.c **** *  calculation.
 524:Generated_Source\PSoC4/CapSense_1_CSHL.c **** *  This API updates the thresholds in the Smartsense Mode.
 525:Generated_Source\PSoC4/CapSense_1_CSHL.c **** *
 526:Generated_Source\PSoC4/CapSense_1_CSHL.c **** * Parameters:
 527:Generated_Source\PSoC4/CapSense_1_CSHL.c **** *  sensor:  Sensor number.
 528:Generated_Source\PSoC4/CapSense_1_CSHL.c **** *
 529:Generated_Source\PSoC4/CapSense_1_CSHL.c **** * Return:
 530:Generated_Source\PSoC4/CapSense_1_CSHL.c **** *  None
 531:Generated_Source\PSoC4/CapSense_1_CSHL.c **** *
 532:Generated_Source\PSoC4/CapSense_1_CSHL.c **** * Global Variables:
 533:Generated_Source\PSoC4/CapSense_1_CSHL.c **** *  CapSense_1_widgetNumber[]  - stores widget numbers.
 534:Generated_Source\PSoC4/CapSense_1_CSHL.c **** *
 535:Generated_Source\PSoC4/CapSense_1_CSHL.c **** * Side Effects:
 536:Generated_Source\PSoC4/CapSense_1_CSHL.c **** *  None
 537:Generated_Source\PSoC4/CapSense_1_CSHL.c **** *
 538:Generated_Source\PSoC4/CapSense_1_CSHL.c **** *******************************************************************************/
 539:Generated_Source\PSoC4/CapSense_1_CSHL.c ****  void CapSense_1_UpdateSensorBaseline(uint32 sensor)
 540:Generated_Source\PSoC4/CapSense_1_CSHL.c **** {
 677              		.loc 1 540 0
 678              		.cfi_startproc
 679 0000 80B5     		push	{r7, lr}
 680              		.cfi_def_cfa_offset 8
 681              		.cfi_offset 7, -8
 682              		.cfi_offset 14, -4
 683 0002 82B0     		sub	sp, sp, #8
 684              		.cfi_def_cfa_offset 16
 685 0004 00AF     		add	r7, sp, #0
 686              		.cfi_def_cfa_register 7
 687 0006 7860     		str	r0, [r7, #4]
 541:Generated_Source\PSoC4/CapSense_1_CSHL.c ****     #if (CapSense_1_TOTAL_GENERICS_COUNT)
 542:Generated_Source\PSoC4/CapSense_1_CSHL.c ****         uint32 widget;
 543:Generated_Source\PSoC4/CapSense_1_CSHL.c **** 
 544:Generated_Source\PSoC4/CapSense_1_CSHL.c ****         widget = CapSense_1_widgetNumber[sensor];
 545:Generated_Source\PSoC4/CapSense_1_CSHL.c **** 
 546:Generated_Source\PSoC4/CapSense_1_CSHL.c ****         /* Exclude generic widget */
 547:Generated_Source\PSoC4/CapSense_1_CSHL.c ****         if(widget < CapSense_1_END_OF_WIDGETS_INDEX)
 548:Generated_Source\PSoC4/CapSense_1_CSHL.c ****         {
 549:Generated_Source\PSoC4/CapSense_1_CSHL.c ****     #endif  /* CapSense_1_TOTAL_GENERICS_COUNT */
 550:Generated_Source\PSoC4/CapSense_1_CSHL.c **** 
 551:Generated_Source\PSoC4/CapSense_1_CSHL.c ****     #if (CapSense_1_TUNING_METHOD == CapSense_1__TUNING_AUTO)
 552:Generated_Source\PSoC4/CapSense_1_CSHL.c ****         CapSense_1_UpdateThresholds(sensor);
 688              		.loc 1 552 0
 689 0008 7B68     		ldr	r3, [r7, #4]
 690 000a 181C     		mov	r0, r3
 691 000c FFF7FEFF 		bl	CapSense_1_UpdateThresholds
 553:Generated_Source\PSoC4/CapSense_1_CSHL.c ****     #endif /* (CapSense_1_TUNING_METHOD == CapSense_1__TUNING_AUTO) */
 554:Generated_Source\PSoC4/CapSense_1_CSHL.c **** 
ARM GAS  C:\Users\IGOR~1.HOL\AppData\Local\Temp\cc8IZ2FY.s 			page 23


 555:Generated_Source\PSoC4/CapSense_1_CSHL.c ****     CapSense_1_UpdateBaselineNoThreshold(sensor);
 692              		.loc 1 555 0
 693 0010 7B68     		ldr	r3, [r7, #4]
 694 0012 181C     		mov	r0, r3
 695 0014 FFF7FEFF 		bl	CapSense_1_UpdateBaselineNoThreshold
 556:Generated_Source\PSoC4/CapSense_1_CSHL.c **** 
 557:Generated_Source\PSoC4/CapSense_1_CSHL.c ****     #if (CapSense_1_TOTAL_GENERICS_COUNT)
 558:Generated_Source\PSoC4/CapSense_1_CSHL.c ****         /* Exclude generic widget */
 559:Generated_Source\PSoC4/CapSense_1_CSHL.c ****         }
 560:Generated_Source\PSoC4/CapSense_1_CSHL.c ****     #endif  /* CapSense_1_TOTAL_GENERICS_COUNT */
 561:Generated_Source\PSoC4/CapSense_1_CSHL.c **** }
 696              		.loc 1 561 0
 697 0018 BD46     		mov	sp, r7
 698 001a 02B0     		add	sp, sp, #8
 699              		@ sp needed
 700 001c 80BD     		pop	{r7, pc}
 701              		.cfi_endproc
 702              	.LFE40:
 703              		.size	CapSense_1_UpdateSensorBaseline, .-CapSense_1_UpdateSensorBaseline
 704 001e C046     		.section	.text.CapSense_1_UpdateEnabledBaselines,"ax",%progbits
 705              		.align	2
 706              		.global	CapSense_1_UpdateEnabledBaselines
 707              		.code	16
 708              		.thumb_func
 709              		.type	CapSense_1_UpdateEnabledBaselines, %function
 710              	CapSense_1_UpdateEnabledBaselines:
 711              	.LFB41:
 562:Generated_Source\PSoC4/CapSense_1_CSHL.c **** 
 563:Generated_Source\PSoC4/CapSense_1_CSHL.c **** 
 564:Generated_Source\PSoC4/CapSense_1_CSHL.c **** /*******************************************************************************
 565:Generated_Source\PSoC4/CapSense_1_CSHL.c **** * Function Name: CapSense_1_UpdateEnabledBaselines
 566:Generated_Source\PSoC4/CapSense_1_CSHL.c **** ********************************************************************************
 567:Generated_Source\PSoC4/CapSense_1_CSHL.c **** *
 568:Generated_Source\PSoC4/CapSense_1_CSHL.c **** * Summary:
 569:Generated_Source\PSoC4/CapSense_1_CSHL.c **** *  Checks CapSense_1_sensorEnableMask[] array and calls the
 570:Generated_Source\PSoC4/CapSense_1_CSHL.c **** *  CapSense_1_UpdateSensorBaseline function to update the baselines
 571:Generated_Source\PSoC4/CapSense_1_CSHL.c **** *  for the enabled sensors.
 572:Generated_Source\PSoC4/CapSense_1_CSHL.c **** *
 573:Generated_Source\PSoC4/CapSense_1_CSHL.c **** * Parameters:
 574:Generated_Source\PSoC4/CapSense_1_CSHL.c **** *  None
 575:Generated_Source\PSoC4/CapSense_1_CSHL.c **** *
 576:Generated_Source\PSoC4/CapSense_1_CSHL.c **** * Return:
 577:Generated_Source\PSoC4/CapSense_1_CSHL.c **** *  None
 578:Generated_Source\PSoC4/CapSense_1_CSHL.c **** *
 579:Generated_Source\PSoC4/CapSense_1_CSHL.c **** * Global Variables:
 580:Generated_Source\PSoC4/CapSense_1_CSHL.c **** *  CapSense_1_sensorEnableMask[] - used to store the sensor scanning
 581:Generated_Source\PSoC4/CapSense_1_CSHL.c **** *  state.
 582:Generated_Source\PSoC4/CapSense_1_CSHL.c **** *  CapSense_1_sensorEnableMask[0] contains the masked bits for sensors
 583:Generated_Source\PSoC4/CapSense_1_CSHL.c **** *   0 through 7 (sensor 0 is bit 0, sensor 1 is bit 1).
 584:Generated_Source\PSoC4/CapSense_1_CSHL.c **** *  CapSense_1_sensorEnableMask[1] contains the masked bits for
 585:Generated_Source\PSoC4/CapSense_1_CSHL.c **** *  sensors 8 through 15 (if needed), and so on.
 586:Generated_Source\PSoC4/CapSense_1_CSHL.c **** *  0 - sensor doesn't scan by CapSense_1_ScanEnabledWidgets().
 587:Generated_Source\PSoC4/CapSense_1_CSHL.c **** *  1 - sensor scans by CapSense_1_ScanEnabledWidgets().
 588:Generated_Source\PSoC4/CapSense_1_CSHL.c **** *
 589:Generated_Source\PSoC4/CapSense_1_CSHL.c **** * Side Effects:
 590:Generated_Source\PSoC4/CapSense_1_CSHL.c **** *  None
 591:Generated_Source\PSoC4/CapSense_1_CSHL.c **** *
ARM GAS  C:\Users\IGOR~1.HOL\AppData\Local\Temp\cc8IZ2FY.s 			page 24


 592:Generated_Source\PSoC4/CapSense_1_CSHL.c **** *******************************************************************************/
 593:Generated_Source\PSoC4/CapSense_1_CSHL.c ****  void CapSense_1_UpdateEnabledBaselines(void)
 594:Generated_Source\PSoC4/CapSense_1_CSHL.c **** {
 712              		.loc 1 594 0
 713              		.cfi_startproc
 714 0000 80B5     		push	{r7, lr}
 715              		.cfi_def_cfa_offset 8
 716              		.cfi_offset 7, -8
 717              		.cfi_offset 14, -4
 718 0002 82B0     		sub	sp, sp, #8
 719              		.cfi_def_cfa_offset 16
 720 0004 00AF     		add	r7, sp, #0
 721              		.cfi_def_cfa_register 7
 595:Generated_Source\PSoC4/CapSense_1_CSHL.c ****     uint32 i;
 596:Generated_Source\PSoC4/CapSense_1_CSHL.c ****     uint32 isSensorEnabled;
 597:Generated_Source\PSoC4/CapSense_1_CSHL.c **** 
 598:Generated_Source\PSoC4/CapSense_1_CSHL.c ****     for(i = 0u; i < CapSense_1_TOTAL_SENSOR_COUNT; i++)
 722              		.loc 1 598 0
 723 0006 0023     		mov	r3, #0
 724 0008 7B60     		str	r3, [r7, #4]
 725 000a 11E0     		b	.L33
 726              	.L35:
 599:Generated_Source\PSoC4/CapSense_1_CSHL.c ****     {
 600:Generated_Source\PSoC4/CapSense_1_CSHL.c ****         isSensorEnabled = CapSense_1_GetBitValue(CapSense_1_sensorEnableMask, i);
 727              		.loc 1 600 0
 728 000c 0B4A     		ldr	r2, .L36
 729 000e 7B68     		ldr	r3, [r7, #4]
 730 0010 101C     		mov	r0, r2
 731 0012 191C     		mov	r1, r3
 732 0014 FFF7FEFF 		bl	CapSense_1_GetBitValue
 733 0018 031C     		mov	r3, r0
 734 001a 3B60     		str	r3, [r7]
 601:Generated_Source\PSoC4/CapSense_1_CSHL.c **** 
 602:Generated_Source\PSoC4/CapSense_1_CSHL.c ****         if(0u != isSensorEnabled)
 735              		.loc 1 602 0
 736 001c 3B68     		ldr	r3, [r7]
 737 001e 002B     		cmp	r3, #0
 738 0020 03D0     		beq	.L34
 603:Generated_Source\PSoC4/CapSense_1_CSHL.c ****         {
 604:Generated_Source\PSoC4/CapSense_1_CSHL.c ****             CapSense_1_UpdateSensorBaseline(i);
 739              		.loc 1 604 0
 740 0022 7B68     		ldr	r3, [r7, #4]
 741 0024 181C     		mov	r0, r3
 742 0026 FFF7FEFF 		bl	CapSense_1_UpdateSensorBaseline
 743              	.L34:
 598:Generated_Source\PSoC4/CapSense_1_CSHL.c ****     {
 744              		.loc 1 598 0 discriminator 2
 745 002a 7B68     		ldr	r3, [r7, #4]
 746 002c 0133     		add	r3, r3, #1
 747 002e 7B60     		str	r3, [r7, #4]
 748              	.L33:
 598:Generated_Source\PSoC4/CapSense_1_CSHL.c ****     {
 749              		.loc 1 598 0 is_stmt 0 discriminator 1
 750 0030 7B68     		ldr	r3, [r7, #4]
 751 0032 002B     		cmp	r3, #0
 752 0034 EAD0     		beq	.L35
 605:Generated_Source\PSoC4/CapSense_1_CSHL.c ****         }
ARM GAS  C:\Users\IGOR~1.HOL\AppData\Local\Temp\cc8IZ2FY.s 			page 25


 606:Generated_Source\PSoC4/CapSense_1_CSHL.c ****     }
 607:Generated_Source\PSoC4/CapSense_1_CSHL.c **** }
 753              		.loc 1 607 0 is_stmt 1
 754 0036 BD46     		mov	sp, r7
 755 0038 02B0     		add	sp, sp, #8
 756              		@ sp needed
 757 003a 80BD     		pop	{r7, pc}
 758              	.L37:
 759              		.align	2
 760              	.L36:
 761 003c 00000000 		.word	CapSense_1_sensorEnableMask
 762              		.cfi_endproc
 763              	.LFE41:
 764              		.size	CapSense_1_UpdateEnabledBaselines, .-CapSense_1_UpdateEnabledBaselines
 765              		.section	.text.CapSense_1_UpdateWidgetBaseline,"ax",%progbits
 766              		.align	2
 767              		.global	CapSense_1_UpdateWidgetBaseline
 768              		.code	16
 769              		.thumb_func
 770              		.type	CapSense_1_UpdateWidgetBaseline, %function
 771              	CapSense_1_UpdateWidgetBaseline:
 772              	.LFB42:
 608:Generated_Source\PSoC4/CapSense_1_CSHL.c **** 
 609:Generated_Source\PSoC4/CapSense_1_CSHL.c **** /*******************************************************************************
 610:Generated_Source\PSoC4/CapSense_1_CSHL.c **** * Function Name: CapSense_1_UpdateWidgetBaseline
 611:Generated_Source\PSoC4/CapSense_1_CSHL.c **** ********************************************************************************
 612:Generated_Source\PSoC4/CapSense_1_CSHL.c **** *
 613:Generated_Source\PSoC4/CapSense_1_CSHL.c **** * Summary:
 614:Generated_Source\PSoC4/CapSense_1_CSHL.c **** *  Checks CapSense_1_sensorEnableMask[] array and calls the
 615:Generated_Source\PSoC4/CapSense_1_CSHL.c **** *  CapSense_1_UpdateSensorBaseline function to update the baselines
 616:Generated_Source\PSoC4/CapSense_1_CSHL.c **** *  for the enabled sensors that belong to widget.
 617:Generated_Source\PSoC4/CapSense_1_CSHL.c **** *
 618:Generated_Source\PSoC4/CapSense_1_CSHL.c **** * Parameters:
 619:Generated_Source\PSoC4/CapSense_1_CSHL.c **** *  widget:  Widget number.
 620:Generated_Source\PSoC4/CapSense_1_CSHL.c **** *
 621:Generated_Source\PSoC4/CapSense_1_CSHL.c **** * Return:
 622:Generated_Source\PSoC4/CapSense_1_CSHL.c **** *  None
 623:Generated_Source\PSoC4/CapSense_1_CSHL.c **** *
 624:Generated_Source\PSoC4/CapSense_1_CSHL.c **** * Global Variables:
 625:Generated_Source\PSoC4/CapSense_1_CSHL.c **** *  CapSense_1_sensorEnableMask[] - used to store the sensor scanning
 626:Generated_Source\PSoC4/CapSense_1_CSHL.c **** *  state.
 627:Generated_Source\PSoC4/CapSense_1_CSHL.c **** *  CapSense_1_sensorEnableMask[0] contains the masked bits for sensors
 628:Generated_Source\PSoC4/CapSense_1_CSHL.c **** *   0 through 7 (sensor 0 is bit 0, sensor 1 is bit 1).
 629:Generated_Source\PSoC4/CapSense_1_CSHL.c **** *  CapSense_1_sensorEnableMask[1] contains the masked bits for
 630:Generated_Source\PSoC4/CapSense_1_CSHL.c **** *  sensors 8 through 15 (if needed), and so on.
 631:Generated_Source\PSoC4/CapSense_1_CSHL.c **** *  0 - sensor doesn't scan by CapSense_1_ScanEnabledWidgets().
 632:Generated_Source\PSoC4/CapSense_1_CSHL.c **** *  1 - sensor scans by CapSense_1_ScanEnabledWidgets().
 633:Generated_Source\PSoC4/CapSense_1_CSHL.c **** *
 634:Generated_Source\PSoC4/CapSense_1_CSHL.c **** * Side Effects:
 635:Generated_Source\PSoC4/CapSense_1_CSHL.c **** *  None
 636:Generated_Source\PSoC4/CapSense_1_CSHL.c **** *
 637:Generated_Source\PSoC4/CapSense_1_CSHL.c **** *******************************************************************************/
 638:Generated_Source\PSoC4/CapSense_1_CSHL.c **** void CapSense_1_UpdateWidgetBaseline(uint32 widget)
 639:Generated_Source\PSoC4/CapSense_1_CSHL.c **** {
 773              		.loc 1 639 0
 774              		.cfi_startproc
 775 0000 80B5     		push	{r7, lr}
ARM GAS  C:\Users\IGOR~1.HOL\AppData\Local\Temp\cc8IZ2FY.s 			page 26


 776              		.cfi_def_cfa_offset 8
 777              		.cfi_offset 7, -8
 778              		.cfi_offset 14, -4
 779 0002 88B0     		sub	sp, sp, #32
 780              		.cfi_def_cfa_offset 40
 781 0004 00AF     		add	r7, sp, #0
 782              		.cfi_def_cfa_register 7
 783 0006 7860     		str	r0, [r7, #4]
 640:Generated_Source\PSoC4/CapSense_1_CSHL.c ****     uint32 sensorsPerWidget;
 641:Generated_Source\PSoC4/CapSense_1_CSHL.c ****     uint32 firstSensor;
 642:Generated_Source\PSoC4/CapSense_1_CSHL.c ****     uint32 lastSensor;
 643:Generated_Source\PSoC4/CapSense_1_CSHL.c ****     uint32 i;
 644:Generated_Source\PSoC4/CapSense_1_CSHL.c ****     uint32 isSensorEnabled;
 645:Generated_Source\PSoC4/CapSense_1_CSHL.c **** 
 646:Generated_Source\PSoC4/CapSense_1_CSHL.c ****     /* Get number of sensors in widget */
 647:Generated_Source\PSoC4/CapSense_1_CSHL.c ****     sensorsPerWidget = CapSense_1_numberOfSensors[widget];
 784              		.loc 1 647 0
 785 0008 0123     		mov	r3, #1
 786 000a BB61     		str	r3, [r7, #24]
 648:Generated_Source\PSoC4/CapSense_1_CSHL.c **** 
 649:Generated_Source\PSoC4/CapSense_1_CSHL.c ****     /* Get first sensor in widget */
 650:Generated_Source\PSoC4/CapSense_1_CSHL.c ****     firstSensor = CapSense_1_rawDataIndex[widget];
 787              		.loc 1 650 0
 788 000c 0023     		mov	r3, #0
 789 000e 7B61     		str	r3, [r7, #20]
 651:Generated_Source\PSoC4/CapSense_1_CSHL.c **** 
 652:Generated_Source\PSoC4/CapSense_1_CSHL.c ****     /* Get last sensor in widget */
 653:Generated_Source\PSoC4/CapSense_1_CSHL.c ****     lastSensor = (CapSense_1_rawDataIndex[widget] + sensorsPerWidget);
 790              		.loc 1 653 0
 791 0010 0023     		mov	r3, #0
 792 0012 1A1C     		mov	r2, r3
 793 0014 BB69     		ldr	r3, [r7, #24]
 794 0016 D318     		add	r3, r2, r3
 795 0018 3B61     		str	r3, [r7, #16]
 654:Generated_Source\PSoC4/CapSense_1_CSHL.c **** 
 655:Generated_Source\PSoC4/CapSense_1_CSHL.c ****     for(i = firstSensor; i < lastSensor; i++)
 796              		.loc 1 655 0
 797 001a 7B69     		ldr	r3, [r7, #20]
 798 001c FB61     		str	r3, [r7, #28]
 799 001e 11E0     		b	.L39
 800              	.L41:
 656:Generated_Source\PSoC4/CapSense_1_CSHL.c ****     {
 657:Generated_Source\PSoC4/CapSense_1_CSHL.c ****         isSensorEnabled = CapSense_1_GetBitValue(CapSense_1_sensorEnableMask, i);
 801              		.loc 1 657 0
 802 0020 0C4A     		ldr	r2, .L42
 803 0022 FB69     		ldr	r3, [r7, #28]
 804 0024 101C     		mov	r0, r2
 805 0026 191C     		mov	r1, r3
 806 0028 FFF7FEFF 		bl	CapSense_1_GetBitValue
 807 002c 031C     		mov	r3, r0
 808 002e FB60     		str	r3, [r7, #12]
 658:Generated_Source\PSoC4/CapSense_1_CSHL.c **** 
 659:Generated_Source\PSoC4/CapSense_1_CSHL.c ****         if(0u != isSensorEnabled)
 809              		.loc 1 659 0
 810 0030 FB68     		ldr	r3, [r7, #12]
 811 0032 002B     		cmp	r3, #0
 812 0034 03D0     		beq	.L40
ARM GAS  C:\Users\IGOR~1.HOL\AppData\Local\Temp\cc8IZ2FY.s 			page 27


 660:Generated_Source\PSoC4/CapSense_1_CSHL.c ****         {
 661:Generated_Source\PSoC4/CapSense_1_CSHL.c ****             CapSense_1_UpdateSensorBaseline(i);
 813              		.loc 1 661 0
 814 0036 FB69     		ldr	r3, [r7, #28]
 815 0038 181C     		mov	r0, r3
 816 003a FFF7FEFF 		bl	CapSense_1_UpdateSensorBaseline
 817              	.L40:
 655:Generated_Source\PSoC4/CapSense_1_CSHL.c ****     {
 818              		.loc 1 655 0 discriminator 2
 819 003e FB69     		ldr	r3, [r7, #28]
 820 0040 0133     		add	r3, r3, #1
 821 0042 FB61     		str	r3, [r7, #28]
 822              	.L39:
 655:Generated_Source\PSoC4/CapSense_1_CSHL.c ****     {
 823              		.loc 1 655 0 is_stmt 0 discriminator 1
 824 0044 FA69     		ldr	r2, [r7, #28]
 825 0046 3B69     		ldr	r3, [r7, #16]
 826 0048 9A42     		cmp	r2, r3
 827 004a E9D3     		bcc	.L41
 662:Generated_Source\PSoC4/CapSense_1_CSHL.c ****         }
 663:Generated_Source\PSoC4/CapSense_1_CSHL.c ****     }
 664:Generated_Source\PSoC4/CapSense_1_CSHL.c **** }
 828              		.loc 1 664 0 is_stmt 1
 829 004c BD46     		mov	sp, r7
 830 004e 08B0     		add	sp, sp, #32
 831              		@ sp needed
 832 0050 80BD     		pop	{r7, pc}
 833              	.L43:
 834 0052 C046     		.align	2
 835              	.L42:
 836 0054 00000000 		.word	CapSense_1_sensorEnableMask
 837              		.cfi_endproc
 838              	.LFE42:
 839              		.size	CapSense_1_UpdateWidgetBaseline, .-CapSense_1_UpdateWidgetBaseline
 840              		.section	.text.CapSense_1_GetBaselineData,"ax",%progbits
 841              		.align	2
 842              		.global	CapSense_1_GetBaselineData
 843              		.code	16
 844              		.thumb_func
 845              		.type	CapSense_1_GetBaselineData, %function
 846              	CapSense_1_GetBaselineData:
 847              	.LFB43:
 665:Generated_Source\PSoC4/CapSense_1_CSHL.c **** 
 666:Generated_Source\PSoC4/CapSense_1_CSHL.c **** 
 667:Generated_Source\PSoC4/CapSense_1_CSHL.c **** /*******************************************************************************
 668:Generated_Source\PSoC4/CapSense_1_CSHL.c **** * Function Name: CapSense_1_GetBaselineData
 669:Generated_Source\PSoC4/CapSense_1_CSHL.c **** ********************************************************************************
 670:Generated_Source\PSoC4/CapSense_1_CSHL.c **** *
 671:Generated_Source\PSoC4/CapSense_1_CSHL.c **** * Summary:
 672:Generated_Source\PSoC4/CapSense_1_CSHL.c **** *  This function reads the sensor baseline from the component.
 673:Generated_Source\PSoC4/CapSense_1_CSHL.c **** *
 674:Generated_Source\PSoC4/CapSense_1_CSHL.c **** * Parameters:
 675:Generated_Source\PSoC4/CapSense_1_CSHL.c **** *  sensor:  Sensor number.
 676:Generated_Source\PSoC4/CapSense_1_CSHL.c **** *
 677:Generated_Source\PSoC4/CapSense_1_CSHL.c **** * Return:
 678:Generated_Source\PSoC4/CapSense_1_CSHL.c **** *  This API returns the baseline value of the sensor indicated by an argument.
 679:Generated_Source\PSoC4/CapSense_1_CSHL.c **** *
ARM GAS  C:\Users\IGOR~1.HOL\AppData\Local\Temp\cc8IZ2FY.s 			page 28


 680:Generated_Source\PSoC4/CapSense_1_CSHL.c **** * Global Variables:
 681:Generated_Source\PSoC4/CapSense_1_CSHL.c **** *  CapSense_1_sensorBaseline[] - the array with an initial values by scanning
 682:Generated_Source\PSoC4/CapSense_1_CSHL.c **** *
 683:Generated_Source\PSoC4/CapSense_1_CSHL.c **** * Side Effects:
 684:Generated_Source\PSoC4/CapSense_1_CSHL.c **** *  None
 685:Generated_Source\PSoC4/CapSense_1_CSHL.c **** *
 686:Generated_Source\PSoC4/CapSense_1_CSHL.c **** *******************************************************************************/
 687:Generated_Source\PSoC4/CapSense_1_CSHL.c **** uint16 CapSense_1_GetBaselineData(uint32 sensor)
 688:Generated_Source\PSoC4/CapSense_1_CSHL.c **** {
 848              		.loc 1 688 0
 849              		.cfi_startproc
 850 0000 80B5     		push	{r7, lr}
 851              		.cfi_def_cfa_offset 8
 852              		.cfi_offset 7, -8
 853              		.cfi_offset 14, -4
 854 0002 82B0     		sub	sp, sp, #8
 855              		.cfi_def_cfa_offset 16
 856 0004 00AF     		add	r7, sp, #0
 857              		.cfi_def_cfa_register 7
 858 0006 7860     		str	r0, [r7, #4]
 689:Generated_Source\PSoC4/CapSense_1_CSHL.c ****     return (CapSense_1_sensorBaseline[sensor]);
 859              		.loc 1 689 0
 860 0008 034B     		ldr	r3, .L46
 861 000a 7A68     		ldr	r2, [r7, #4]
 862 000c 5200     		lsl	r2, r2, #1
 863 000e D35A     		ldrh	r3, [r2, r3]
 690:Generated_Source\PSoC4/CapSense_1_CSHL.c **** }
 864              		.loc 1 690 0
 865 0010 181C     		mov	r0, r3
 866 0012 BD46     		mov	sp, r7
 867 0014 02B0     		add	sp, sp, #8
 868              		@ sp needed
 869 0016 80BD     		pop	{r7, pc}
 870              	.L47:
 871              		.align	2
 872              	.L46:
 873 0018 00000000 		.word	CapSense_1_sensorBaseline
 874              		.cfi_endproc
 875              	.LFE43:
 876              		.size	CapSense_1_GetBaselineData, .-CapSense_1_GetBaselineData
 877              		.section	.text.CapSense_1_SetBaselineData,"ax",%progbits
 878              		.align	2
 879              		.global	CapSense_1_SetBaselineData
 880              		.code	16
 881              		.thumb_func
 882              		.type	CapSense_1_SetBaselineData, %function
 883              	CapSense_1_SetBaselineData:
 884              	.LFB44:
 691:Generated_Source\PSoC4/CapSense_1_CSHL.c **** 
 692:Generated_Source\PSoC4/CapSense_1_CSHL.c **** 
 693:Generated_Source\PSoC4/CapSense_1_CSHL.c **** /*******************************************************************************
 694:Generated_Source\PSoC4/CapSense_1_CSHL.c **** * Function Name: CapSense_1_SetBaselineData
 695:Generated_Source\PSoC4/CapSense_1_CSHL.c **** ********************************************************************************
 696:Generated_Source\PSoC4/CapSense_1_CSHL.c **** *
 697:Generated_Source\PSoC4/CapSense_1_CSHL.c **** * Summary:
 698:Generated_Source\PSoC4/CapSense_1_CSHL.c **** *  This API writes the data value passed as an argument to the sensor baseline array.
 699:Generated_Source\PSoC4/CapSense_1_CSHL.c **** *
ARM GAS  C:\Users\IGOR~1.HOL\AppData\Local\Temp\cc8IZ2FY.s 			page 29


 700:Generated_Source\PSoC4/CapSense_1_CSHL.c **** * Parameters:
 701:Generated_Source\PSoC4/CapSense_1_CSHL.c **** *  sensor:  Sensor number.
 702:Generated_Source\PSoC4/CapSense_1_CSHL.c **** *  data:    Sensor baseline.
 703:Generated_Source\PSoC4/CapSense_1_CSHL.c **** *
 704:Generated_Source\PSoC4/CapSense_1_CSHL.c **** * Return:
 705:Generated_Source\PSoC4/CapSense_1_CSHL.c **** *  None.
 706:Generated_Source\PSoC4/CapSense_1_CSHL.c **** *
 707:Generated_Source\PSoC4/CapSense_1_CSHL.c **** * Global Variables:
 708:Generated_Source\PSoC4/CapSense_1_CSHL.c **** *  CapSense_1_sensorBaseline[] - the array with initial values by scanning
 709:Generated_Source\PSoC4/CapSense_1_CSHL.c **** *
 710:Generated_Source\PSoC4/CapSense_1_CSHL.c **** * Side Effects:
 711:Generated_Source\PSoC4/CapSense_1_CSHL.c **** *  None
 712:Generated_Source\PSoC4/CapSense_1_CSHL.c **** *
 713:Generated_Source\PSoC4/CapSense_1_CSHL.c **** *******************************************************************************/
 714:Generated_Source\PSoC4/CapSense_1_CSHL.c **** void CapSense_1_SetBaselineData(uint32 sensor, uint16 data)
 715:Generated_Source\PSoC4/CapSense_1_CSHL.c **** {
 885              		.loc 1 715 0
 886              		.cfi_startproc
 887 0000 80B5     		push	{r7, lr}
 888              		.cfi_def_cfa_offset 8
 889              		.cfi_offset 7, -8
 890              		.cfi_offset 14, -4
 891 0002 82B0     		sub	sp, sp, #8
 892              		.cfi_def_cfa_offset 16
 893 0004 00AF     		add	r7, sp, #0
 894              		.cfi_def_cfa_register 7
 895 0006 7860     		str	r0, [r7, #4]
 896 0008 0A1C     		mov	r2, r1
 897 000a BB1C     		add	r3, r7, #2
 898 000c 1A80     		strh	r2, [r3]
 716:Generated_Source\PSoC4/CapSense_1_CSHL.c ****     CapSense_1_sensorBaseline[sensor] = data;
 899              		.loc 1 716 0
 900 000e 044B     		ldr	r3, .L49
 901 0010 7A68     		ldr	r2, [r7, #4]
 902 0012 5200     		lsl	r2, r2, #1
 903 0014 B91C     		add	r1, r7, #2
 904 0016 0988     		ldrh	r1, [r1]
 905 0018 D152     		strh	r1, [r2, r3]
 717:Generated_Source\PSoC4/CapSense_1_CSHL.c **** }
 906              		.loc 1 717 0
 907 001a BD46     		mov	sp, r7
 908 001c 02B0     		add	sp, sp, #8
 909              		@ sp needed
 910 001e 80BD     		pop	{r7, pc}
 911              	.L50:
 912              		.align	2
 913              	.L49:
 914 0020 00000000 		.word	CapSense_1_sensorBaseline
 915              		.cfi_endproc
 916              	.LFE44:
 917              		.size	CapSense_1_SetBaselineData, .-CapSense_1_SetBaselineData
 918              		.section	.text.CapSense_1_GetDiffCountData,"ax",%progbits
 919              		.align	2
 920              		.global	CapSense_1_GetDiffCountData
 921              		.code	16
 922              		.thumb_func
 923              		.type	CapSense_1_GetDiffCountData, %function
ARM GAS  C:\Users\IGOR~1.HOL\AppData\Local\Temp\cc8IZ2FY.s 			page 30


 924              	CapSense_1_GetDiffCountData:
 925              	.LFB45:
 718:Generated_Source\PSoC4/CapSense_1_CSHL.c **** 
 719:Generated_Source\PSoC4/CapSense_1_CSHL.c **** 
 720:Generated_Source\PSoC4/CapSense_1_CSHL.c **** /*******************************************************************************
 721:Generated_Source\PSoC4/CapSense_1_CSHL.c **** * Function Name: CapSense_1_GetDiffCountData
 722:Generated_Source\PSoC4/CapSense_1_CSHL.c **** ********************************************************************************
 723:Generated_Source\PSoC4/CapSense_1_CSHL.c **** *
 724:Generated_Source\PSoC4/CapSense_1_CSHL.c **** * Summary:
 725:Generated_Source\PSoC4/CapSense_1_CSHL.c **** *  This function returns the Sensor Signal from the component.
 726:Generated_Source\PSoC4/CapSense_1_CSHL.c **** *
 727:Generated_Source\PSoC4/CapSense_1_CSHL.c **** * Parameters:
 728:Generated_Source\PSoC4/CapSense_1_CSHL.c **** *  sensor:  Sensor number.
 729:Generated_Source\PSoC4/CapSense_1_CSHL.c **** *
 730:Generated_Source\PSoC4/CapSense_1_CSHL.c **** * Return:
 731:Generated_Source\PSoC4/CapSense_1_CSHL.c **** *  This API returns the difference count value of the sensor indicated by the
 732:Generated_Source\PSoC4/CapSense_1_CSHL.c **** *  argument.
 733:Generated_Source\PSoC4/CapSense_1_CSHL.c **** *
 734:Generated_Source\PSoC4/CapSense_1_CSHL.c **** * Global Variables:
 735:Generated_Source\PSoC4/CapSense_1_CSHL.c **** *  CapSense_1_sensorSignal[] - the array with difference counts for sensors
 736:Generated_Source\PSoC4/CapSense_1_CSHL.c **** *
 737:Generated_Source\PSoC4/CapSense_1_CSHL.c **** * Side Effects:
 738:Generated_Source\PSoC4/CapSense_1_CSHL.c **** *  None
 739:Generated_Source\PSoC4/CapSense_1_CSHL.c **** *
 740:Generated_Source\PSoC4/CapSense_1_CSHL.c **** *******************************************************************************/
 741:Generated_Source\PSoC4/CapSense_1_CSHL.c **** uint8 CapSense_1_GetDiffCountData(uint32 sensor)
 742:Generated_Source\PSoC4/CapSense_1_CSHL.c **** {
 926              		.loc 1 742 0
 927              		.cfi_startproc
 928 0000 80B5     		push	{r7, lr}
 929              		.cfi_def_cfa_offset 8
 930              		.cfi_offset 7, -8
 931              		.cfi_offset 14, -4
 932 0002 82B0     		sub	sp, sp, #8
 933              		.cfi_def_cfa_offset 16
 934 0004 00AF     		add	r7, sp, #0
 935              		.cfi_def_cfa_register 7
 936 0006 7860     		str	r0, [r7, #4]
 743:Generated_Source\PSoC4/CapSense_1_CSHL.c ****     return (CapSense_1_sensorSignal[sensor]);
 937              		.loc 1 743 0
 938 0008 034A     		ldr	r2, .L53
 939 000a 7B68     		ldr	r3, [r7, #4]
 940 000c D318     		add	r3, r2, r3
 941 000e 1B78     		ldrb	r3, [r3]
 744:Generated_Source\PSoC4/CapSense_1_CSHL.c **** }
 942              		.loc 1 744 0
 943 0010 181C     		mov	r0, r3
 944 0012 BD46     		mov	sp, r7
 945 0014 02B0     		add	sp, sp, #8
 946              		@ sp needed
 947 0016 80BD     		pop	{r7, pc}
 948              	.L54:
 949              		.align	2
 950              	.L53:
 951 0018 00000000 		.word	CapSense_1_sensorSignal
 952              		.cfi_endproc
 953              	.LFE45:
ARM GAS  C:\Users\IGOR~1.HOL\AppData\Local\Temp\cc8IZ2FY.s 			page 31


 954              		.size	CapSense_1_GetDiffCountData, .-CapSense_1_GetDiffCountData
 955              		.section	.text.CapSense_1_SetDiffCountData,"ax",%progbits
 956              		.align	2
 957              		.global	CapSense_1_SetDiffCountData
 958              		.code	16
 959              		.thumb_func
 960              		.type	CapSense_1_SetDiffCountData, %function
 961              	CapSense_1_SetDiffCountData:
 962              	.LFB46:
 745:Generated_Source\PSoC4/CapSense_1_CSHL.c **** 
 746:Generated_Source\PSoC4/CapSense_1_CSHL.c **** 
 747:Generated_Source\PSoC4/CapSense_1_CSHL.c **** /*******************************************************************************
 748:Generated_Source\PSoC4/CapSense_1_CSHL.c **** * Function Name: CapSense_1_SetDiffCountData
 749:Generated_Source\PSoC4/CapSense_1_CSHL.c **** ********************************************************************************
 750:Generated_Source\PSoC4/CapSense_1_CSHL.c **** *
 751:Generated_Source\PSoC4/CapSense_1_CSHL.c **** * Summary:
 752:Generated_Source\PSoC4/CapSense_1_CSHL.c **** *  This API writes the data value passed as an argument to the sensor signal array.
 753:Generated_Source\PSoC4/CapSense_1_CSHL.c **** *
 754:Generated_Source\PSoC4/CapSense_1_CSHL.c **** * Parameters:
 755:Generated_Source\PSoC4/CapSense_1_CSHL.c **** *  sensor:  Sensor number.
 756:Generated_Source\PSoC4/CapSense_1_CSHL.c **** *  value:   Sensor signal.
 757:Generated_Source\PSoC4/CapSense_1_CSHL.c **** *
 758:Generated_Source\PSoC4/CapSense_1_CSHL.c **** * Return:
 759:Generated_Source\PSoC4/CapSense_1_CSHL.c **** *  None.
 760:Generated_Source\PSoC4/CapSense_1_CSHL.c **** *
 761:Generated_Source\PSoC4/CapSense_1_CSHL.c **** * Global Variables:
 762:Generated_Source\PSoC4/CapSense_1_CSHL.c **** *  CapSense_1_sensorSignal[] - the array with difference counts for sensors
 763:Generated_Source\PSoC4/CapSense_1_CSHL.c **** *
 764:Generated_Source\PSoC4/CapSense_1_CSHL.c **** * Side Effects:
 765:Generated_Source\PSoC4/CapSense_1_CSHL.c **** *  None
 766:Generated_Source\PSoC4/CapSense_1_CSHL.c **** *
 767:Generated_Source\PSoC4/CapSense_1_CSHL.c **** *******************************************************************************/
 768:Generated_Source\PSoC4/CapSense_1_CSHL.c **** void CapSense_1_SetDiffCountData(uint32 sensor, uint8 value)
 769:Generated_Source\PSoC4/CapSense_1_CSHL.c **** {
 963              		.loc 1 769 0
 964              		.cfi_startproc
 965 0000 80B5     		push	{r7, lr}
 966              		.cfi_def_cfa_offset 8
 967              		.cfi_offset 7, -8
 968              		.cfi_offset 14, -4
 969 0002 82B0     		sub	sp, sp, #8
 970              		.cfi_def_cfa_offset 16
 971 0004 00AF     		add	r7, sp, #0
 972              		.cfi_def_cfa_register 7
 973 0006 7860     		str	r0, [r7, #4]
 974 0008 0A1C     		mov	r2, r1
 975 000a FB1C     		add	r3, r7, #3
 976 000c 1A70     		strb	r2, [r3]
 770:Generated_Source\PSoC4/CapSense_1_CSHL.c ****     CapSense_1_sensorSignal[sensor] = value;
 977              		.loc 1 770 0
 978 000e 044A     		ldr	r2, .L56
 979 0010 7B68     		ldr	r3, [r7, #4]
 980 0012 D318     		add	r3, r2, r3
 981 0014 FA1C     		add	r2, r7, #3
 982 0016 1278     		ldrb	r2, [r2]
 983 0018 1A70     		strb	r2, [r3]
 771:Generated_Source\PSoC4/CapSense_1_CSHL.c **** }
ARM GAS  C:\Users\IGOR~1.HOL\AppData\Local\Temp\cc8IZ2FY.s 			page 32


 984              		.loc 1 771 0
 985 001a BD46     		mov	sp, r7
 986 001c 02B0     		add	sp, sp, #8
 987              		@ sp needed
 988 001e 80BD     		pop	{r7, pc}
 989              	.L57:
 990              		.align	2
 991              	.L56:
 992 0020 00000000 		.word	CapSense_1_sensorSignal
 993              		.cfi_endproc
 994              	.LFE46:
 995              		.size	CapSense_1_SetDiffCountData, .-CapSense_1_SetDiffCountData
 996              		.section	.text.CapSense_1_GetFingerThreshold,"ax",%progbits
 997              		.align	2
 998              		.global	CapSense_1_GetFingerThreshold
 999              		.code	16
 1000              		.thumb_func
 1001              		.type	CapSense_1_GetFingerThreshold, %function
 1002              	CapSense_1_GetFingerThreshold:
 1003              	.LFB47:
 772:Generated_Source\PSoC4/CapSense_1_CSHL.c **** 
 773:Generated_Source\PSoC4/CapSense_1_CSHL.c **** 
 774:Generated_Source\PSoC4/CapSense_1_CSHL.c **** /*******************************************************************************
 775:Generated_Source\PSoC4/CapSense_1_CSHL.c **** * Function Name: CapSense_1_GetFingerThreshold
 776:Generated_Source\PSoC4/CapSense_1_CSHL.c **** ********************************************************************************
 777:Generated_Source\PSoC4/CapSense_1_CSHL.c **** *
 778:Generated_Source\PSoC4/CapSense_1_CSHL.c **** * Summary:
 779:Generated_Source\PSoC4/CapSense_1_CSHL.c **** *  This function reads the finger threshold from the component.
 780:Generated_Source\PSoC4/CapSense_1_CSHL.c **** *
 781:Generated_Source\PSoC4/CapSense_1_CSHL.c **** * Parameters:
 782:Generated_Source\PSoC4/CapSense_1_CSHL.c **** *  widget:  widget number.
 783:Generated_Source\PSoC4/CapSense_1_CSHL.c **** *
 784:Generated_Source\PSoC4/CapSense_1_CSHL.c **** * Return:
 785:Generated_Source\PSoC4/CapSense_1_CSHL.c **** *  This API returns the finger threshold of the widget indicated by the argument.
 786:Generated_Source\PSoC4/CapSense_1_CSHL.c **** *
 787:Generated_Source\PSoC4/CapSense_1_CSHL.c **** * Global Variables:
 788:Generated_Source\PSoC4/CapSense_1_CSHL.c **** *  CapSense_1_fingerThreshold[] - This array contains the level of signal
 789:Generated_Source\PSoC4/CapSense_1_CSHL.c **** *  for each widget that is determined if a finger is present on the widget.
 790:Generated_Source\PSoC4/CapSense_1_CSHL.c **** *
 791:Generated_Source\PSoC4/CapSense_1_CSHL.c **** * Side Effects:
 792:Generated_Source\PSoC4/CapSense_1_CSHL.c **** *  None
 793:Generated_Source\PSoC4/CapSense_1_CSHL.c **** *
 794:Generated_Source\PSoC4/CapSense_1_CSHL.c **** *******************************************************************************/
 795:Generated_Source\PSoC4/CapSense_1_CSHL.c **** uint8 CapSense_1_GetFingerThreshold(uint32 widget)
 796:Generated_Source\PSoC4/CapSense_1_CSHL.c **** {
 1004              		.loc 1 796 0
 1005              		.cfi_startproc
 1006 0000 80B5     		push	{r7, lr}
 1007              		.cfi_def_cfa_offset 8
 1008              		.cfi_offset 7, -8
 1009              		.cfi_offset 14, -4
 1010 0002 82B0     		sub	sp, sp, #8
 1011              		.cfi_def_cfa_offset 16
 1012 0004 00AF     		add	r7, sp, #0
 1013              		.cfi_def_cfa_register 7
 1014 0006 7860     		str	r0, [r7, #4]
 797:Generated_Source\PSoC4/CapSense_1_CSHL.c ****     return(CapSense_1_fingerThreshold[widget]);
ARM GAS  C:\Users\IGOR~1.HOL\AppData\Local\Temp\cc8IZ2FY.s 			page 33


 1015              		.loc 1 797 0
 1016 0008 034A     		ldr	r2, .L60
 1017 000a 7B68     		ldr	r3, [r7, #4]
 1018 000c D318     		add	r3, r2, r3
 1019 000e 1B78     		ldrb	r3, [r3]
 798:Generated_Source\PSoC4/CapSense_1_CSHL.c **** }
 1020              		.loc 1 798 0
 1021 0010 181C     		mov	r0, r3
 1022 0012 BD46     		mov	sp, r7
 1023 0014 02B0     		add	sp, sp, #8
 1024              		@ sp needed
 1025 0016 80BD     		pop	{r7, pc}
 1026              	.L61:
 1027              		.align	2
 1028              	.L60:
 1029 0018 00000000 		.word	CapSense_1_fingerThreshold
 1030              		.cfi_endproc
 1031              	.LFE47:
 1032              		.size	CapSense_1_GetFingerThreshold, .-CapSense_1_GetFingerThreshold
 1033              		.section	.text.CapSense_1_GetNoiseThreshold,"ax",%progbits
 1034              		.align	2
 1035              		.global	CapSense_1_GetNoiseThreshold
 1036              		.code	16
 1037              		.thumb_func
 1038              		.type	CapSense_1_GetNoiseThreshold, %function
 1039              	CapSense_1_GetNoiseThreshold:
 1040              	.LFB48:
 799:Generated_Source\PSoC4/CapSense_1_CSHL.c **** 
 800:Generated_Source\PSoC4/CapSense_1_CSHL.c **** 
 801:Generated_Source\PSoC4/CapSense_1_CSHL.c **** /*******************************************************************************
 802:Generated_Source\PSoC4/CapSense_1_CSHL.c **** * Function Name: CapSense_1_GetNoiseThreshold
 803:Generated_Source\PSoC4/CapSense_1_CSHL.c **** ********************************************************************************
 804:Generated_Source\PSoC4/CapSense_1_CSHL.c **** *
 805:Generated_Source\PSoC4/CapSense_1_CSHL.c **** * Summary:
 806:Generated_Source\PSoC4/CapSense_1_CSHL.c **** *  This function reads the noise threshold from the component.
 807:Generated_Source\PSoC4/CapSense_1_CSHL.c **** *
 808:Generated_Source\PSoC4/CapSense_1_CSHL.c **** * Parameters:
 809:Generated_Source\PSoC4/CapSense_1_CSHL.c **** *  widget:  widget number.
 810:Generated_Source\PSoC4/CapSense_1_CSHL.c **** *
 811:Generated_Source\PSoC4/CapSense_1_CSHL.c **** * Return:
 812:Generated_Source\PSoC4/CapSense_1_CSHL.c **** *  This API returns the noise threshold of the widget indicated by the argument.
 813:Generated_Source\PSoC4/CapSense_1_CSHL.c **** *
 814:Generated_Source\PSoC4/CapSense_1_CSHL.c **** * Global Variables:
 815:Generated_Source\PSoC4/CapSense_1_CSHL.c **** *  CapSense_1_noiseThreshold[] - This array contains the level of signal
 816:Generated_Source\PSoC4/CapSense_1_CSHL.c **** *  for each widget that determines the level of noise in the capacitive scan.
 817:Generated_Source\PSoC4/CapSense_1_CSHL.c **** *
 818:Generated_Source\PSoC4/CapSense_1_CSHL.c **** * Side Effects:
 819:Generated_Source\PSoC4/CapSense_1_CSHL.c **** *  None
 820:Generated_Source\PSoC4/CapSense_1_CSHL.c **** *
 821:Generated_Source\PSoC4/CapSense_1_CSHL.c **** *******************************************************************************/
 822:Generated_Source\PSoC4/CapSense_1_CSHL.c **** uint8 CapSense_1_GetNoiseThreshold(uint32 widget)
 823:Generated_Source\PSoC4/CapSense_1_CSHL.c **** {
 1041              		.loc 1 823 0
 1042              		.cfi_startproc
 1043 0000 80B5     		push	{r7, lr}
 1044              		.cfi_def_cfa_offset 8
 1045              		.cfi_offset 7, -8
ARM GAS  C:\Users\IGOR~1.HOL\AppData\Local\Temp\cc8IZ2FY.s 			page 34


 1046              		.cfi_offset 14, -4
 1047 0002 82B0     		sub	sp, sp, #8
 1048              		.cfi_def_cfa_offset 16
 1049 0004 00AF     		add	r7, sp, #0
 1050              		.cfi_def_cfa_register 7
 1051 0006 7860     		str	r0, [r7, #4]
 824:Generated_Source\PSoC4/CapSense_1_CSHL.c ****     return (CapSense_1_noiseThreshold[widget]);
 1052              		.loc 1 824 0
 1053 0008 034A     		ldr	r2, .L64
 1054 000a 7B68     		ldr	r3, [r7, #4]
 1055 000c D318     		add	r3, r2, r3
 1056 000e 1B78     		ldrb	r3, [r3]
 825:Generated_Source\PSoC4/CapSense_1_CSHL.c **** }
 1057              		.loc 1 825 0
 1058 0010 181C     		mov	r0, r3
 1059 0012 BD46     		mov	sp, r7
 1060 0014 02B0     		add	sp, sp, #8
 1061              		@ sp needed
 1062 0016 80BD     		pop	{r7, pc}
 1063              	.L65:
 1064              		.align	2
 1065              	.L64:
 1066 0018 00000000 		.word	CapSense_1_noiseThreshold
 1067              		.cfi_endproc
 1068              	.LFE48:
 1069              		.size	CapSense_1_GetNoiseThreshold, .-CapSense_1_GetNoiseThreshold
 1070              		.section	.text.CapSense_1_GetFingerHysteresis,"ax",%progbits
 1071              		.align	2
 1072              		.global	CapSense_1_GetFingerHysteresis
 1073              		.code	16
 1074              		.thumb_func
 1075              		.type	CapSense_1_GetFingerHysteresis, %function
 1076              	CapSense_1_GetFingerHysteresis:
 1077              	.LFB49:
 826:Generated_Source\PSoC4/CapSense_1_CSHL.c **** 
 827:Generated_Source\PSoC4/CapSense_1_CSHL.c **** 
 828:Generated_Source\PSoC4/CapSense_1_CSHL.c **** /*******************************************************************************
 829:Generated_Source\PSoC4/CapSense_1_CSHL.c **** * Function Name: CapSense_1_GetFingerHysteresis
 830:Generated_Source\PSoC4/CapSense_1_CSHL.c **** ********************************************************************************
 831:Generated_Source\PSoC4/CapSense_1_CSHL.c **** *
 832:Generated_Source\PSoC4/CapSense_1_CSHL.c **** * Summary:
 833:Generated_Source\PSoC4/CapSense_1_CSHL.c **** *  This function reads the Hysteresis value from the component.
 834:Generated_Source\PSoC4/CapSense_1_CSHL.c **** *
 835:Generated_Source\PSoC4/CapSense_1_CSHL.c **** * Parameters:
 836:Generated_Source\PSoC4/CapSense_1_CSHL.c **** *  widget:  widget number.
 837:Generated_Source\PSoC4/CapSense_1_CSHL.c **** *
 838:Generated_Source\PSoC4/CapSense_1_CSHL.c **** * Return:
 839:Generated_Source\PSoC4/CapSense_1_CSHL.c **** *  This API returns the Hysteresis of the widget indicated by the argument.
 840:Generated_Source\PSoC4/CapSense_1_CSHL.c **** *
 841:Generated_Source\PSoC4/CapSense_1_CSHL.c **** * Global Variables:
 842:Generated_Source\PSoC4/CapSense_1_CSHL.c **** *  CapSense_1_hysteresis[] - This array contains the hysteresis value
 843:Generated_Source\PSoC4/CapSense_1_CSHL.c **** *   for each widget.
 844:Generated_Source\PSoC4/CapSense_1_CSHL.c **** *  CapSense_1_widgetNumberSld - structure with dynamic sliders' parameters.
 845:Generated_Source\PSoC4/CapSense_1_CSHL.c **** *
 846:Generated_Source\PSoC4/CapSense_1_CSHL.c **** * Side Effects:
 847:Generated_Source\PSoC4/CapSense_1_CSHL.c **** *  None
 848:Generated_Source\PSoC4/CapSense_1_CSHL.c **** *
ARM GAS  C:\Users\IGOR~1.HOL\AppData\Local\Temp\cc8IZ2FY.s 			page 35


 849:Generated_Source\PSoC4/CapSense_1_CSHL.c **** *******************************************************************************/
 850:Generated_Source\PSoC4/CapSense_1_CSHL.c **** uint8 CapSense_1_GetFingerHysteresis(uint32 widget)
 851:Generated_Source\PSoC4/CapSense_1_CSHL.c **** {
 1078              		.loc 1 851 0
 1079              		.cfi_startproc
 1080 0000 80B5     		push	{r7, lr}
 1081              		.cfi_def_cfa_offset 8
 1082              		.cfi_offset 7, -8
 1083              		.cfi_offset 14, -4
 1084 0002 82B0     		sub	sp, sp, #8
 1085              		.cfi_def_cfa_offset 16
 1086 0004 00AF     		add	r7, sp, #0
 1087              		.cfi_def_cfa_register 7
 1088 0006 7860     		str	r0, [r7, #4]
 852:Generated_Source\PSoC4/CapSense_1_CSHL.c ****     return(CapSense_1_hysteresis[widget]);
 1089              		.loc 1 852 0
 1090 0008 034A     		ldr	r2, .L68
 1091 000a 7B68     		ldr	r3, [r7, #4]
 1092 000c D318     		add	r3, r2, r3
 1093 000e 1B78     		ldrb	r3, [r3]
 853:Generated_Source\PSoC4/CapSense_1_CSHL.c **** }
 1094              		.loc 1 853 0
 1095 0010 181C     		mov	r0, r3
 1096 0012 BD46     		mov	sp, r7
 1097 0014 02B0     		add	sp, sp, #8
 1098              		@ sp needed
 1099 0016 80BD     		pop	{r7, pc}
 1100              	.L69:
 1101              		.align	2
 1102              	.L68:
 1103 0018 00000000 		.word	CapSense_1_hysteresis
 1104              		.cfi_endproc
 1105              	.LFE49:
 1106              		.size	CapSense_1_GetFingerHysteresis, .-CapSense_1_GetFingerHysteresis
 1107              		.section	.text.CapSense_1_GetNegativeNoiseThreshold,"ax",%progbits
 1108              		.align	2
 1109              		.global	CapSense_1_GetNegativeNoiseThreshold
 1110              		.code	16
 1111              		.thumb_func
 1112              		.type	CapSense_1_GetNegativeNoiseThreshold, %function
 1113              	CapSense_1_GetNegativeNoiseThreshold:
 1114              	.LFB50:
 854:Generated_Source\PSoC4/CapSense_1_CSHL.c **** 
 855:Generated_Source\PSoC4/CapSense_1_CSHL.c **** 
 856:Generated_Source\PSoC4/CapSense_1_CSHL.c **** /*******************************************************************************
 857:Generated_Source\PSoC4/CapSense_1_CSHL.c **** * Function Name: CapSense_1_GetNegativeNoiseThreshold
 858:Generated_Source\PSoC4/CapSense_1_CSHL.c **** ********************************************************************************
 859:Generated_Source\PSoC4/CapSense_1_CSHL.c **** *
 860:Generated_Source\PSoC4/CapSense_1_CSHL.c **** * Summary:
 861:Generated_Source\PSoC4/CapSense_1_CSHL.c **** *  This function reads the negative noise threshold from the component.
 862:Generated_Source\PSoC4/CapSense_1_CSHL.c **** *
 863:Generated_Source\PSoC4/CapSense_1_CSHL.c **** * Parameters:
 864:Generated_Source\PSoC4/CapSense_1_CSHL.c **** *  None.
 865:Generated_Source\PSoC4/CapSense_1_CSHL.c **** *
 866:Generated_Source\PSoC4/CapSense_1_CSHL.c **** * Return Value:
 867:Generated_Source\PSoC4/CapSense_1_CSHL.c **** *  This API returns the negative noise threshold
 868:Generated_Source\PSoC4/CapSense_1_CSHL.c **** *
ARM GAS  C:\Users\IGOR~1.HOL\AppData\Local\Temp\cc8IZ2FY.s 			page 36


 869:Generated_Source\PSoC4/CapSense_1_CSHL.c **** * Global Variables:
 870:Generated_Source\PSoC4/CapSense_1_CSHL.c **** *  CapSense_1_negativeNoiseThreshold - This variable specifies the negative
 871:Generated_Source\PSoC4/CapSense_1_CSHL.c **** *   difference between the raw count and baseline levels for Baseline resetting
 872:Generated_Source\PSoC4/CapSense_1_CSHL.c **** *   to the raw count level.
 873:Generated_Source\PSoC4/CapSense_1_CSHL.c **** *
 874:Generated_Source\PSoC4/CapSense_1_CSHL.c **** * Side Effects:
 875:Generated_Source\PSoC4/CapSense_1_CSHL.c **** *  None
 876:Generated_Source\PSoC4/CapSense_1_CSHL.c **** *
 877:Generated_Source\PSoC4/CapSense_1_CSHL.c **** *******************************************************************************/
 878:Generated_Source\PSoC4/CapSense_1_CSHL.c **** uint8 CapSense_1_GetNegativeNoiseThreshold(uint32 widget)
 879:Generated_Source\PSoC4/CapSense_1_CSHL.c **** {
 1115              		.loc 1 879 0
 1116              		.cfi_startproc
 1117 0000 80B5     		push	{r7, lr}
 1118              		.cfi_def_cfa_offset 8
 1119              		.cfi_offset 7, -8
 1120              		.cfi_offset 14, -4
 1121 0002 82B0     		sub	sp, sp, #8
 1122              		.cfi_def_cfa_offset 16
 1123 0004 00AF     		add	r7, sp, #0
 1124              		.cfi_def_cfa_register 7
 1125 0006 7860     		str	r0, [r7, #4]
 880:Generated_Source\PSoC4/CapSense_1_CSHL.c **** #if (CapSense_1_TUNING_METHOD != CapSense_1__TUNING_NONE)
 881:Generated_Source\PSoC4/CapSense_1_CSHL.c ****     return(CapSense_1_negativeNoiseThreshold[widget]);
 1126              		.loc 1 881 0
 1127 0008 034A     		ldr	r2, .L72
 1128 000a 7B68     		ldr	r3, [r7, #4]
 1129 000c D318     		add	r3, r2, r3
 1130 000e 1B78     		ldrb	r3, [r3]
 882:Generated_Source\PSoC4/CapSense_1_CSHL.c **** #else
 883:Generated_Source\PSoC4/CapSense_1_CSHL.c ****     return(CapSense_1_NEGATIVE_NOISE_THRESHOLD);
 884:Generated_Source\PSoC4/CapSense_1_CSHL.c **** #endif /* (CapSense_1_TUNING_METHOD != CapSense_1__TUNING_NONE) */
 885:Generated_Source\PSoC4/CapSense_1_CSHL.c **** }
 1131              		.loc 1 885 0
 1132 0010 181C     		mov	r0, r3
 1133 0012 BD46     		mov	sp, r7
 1134 0014 02B0     		add	sp, sp, #8
 1135              		@ sp needed
 1136 0016 80BD     		pop	{r7, pc}
 1137              	.L73:
 1138              		.align	2
 1139              	.L72:
 1140 0018 00000000 		.word	CapSense_1_negativeNoiseThreshold
 1141              		.cfi_endproc
 1142              	.LFE50:
 1143              		.size	CapSense_1_GetNegativeNoiseThreshold, .-CapSense_1_GetNegativeNoiseThreshold
 1144              		.section	.text.CapSense_1_SetFingerThreshold,"ax",%progbits
 1145              		.align	2
 1146              		.global	CapSense_1_SetFingerThreshold
 1147              		.code	16
 1148              		.thumb_func
 1149              		.type	CapSense_1_SetFingerThreshold, %function
 1150              	CapSense_1_SetFingerThreshold:
 1151              	.LFB51:
 886:Generated_Source\PSoC4/CapSense_1_CSHL.c **** 
 887:Generated_Source\PSoC4/CapSense_1_CSHL.c **** 
 888:Generated_Source\PSoC4/CapSense_1_CSHL.c **** #if(CapSense_1_TUNING_METHOD != CapSense_1__TUNING_NONE)
ARM GAS  C:\Users\IGOR~1.HOL\AppData\Local\Temp\cc8IZ2FY.s 			page 37


 889:Generated_Source\PSoC4/CapSense_1_CSHL.c ****     /*******************************************************************************
 890:Generated_Source\PSoC4/CapSense_1_CSHL.c ****     * Function Name: CapSense_1_SetFingerThreshold
 891:Generated_Source\PSoC4/CapSense_1_CSHL.c ****     ********************************************************************************
 892:Generated_Source\PSoC4/CapSense_1_CSHL.c ****     *
 893:Generated_Source\PSoC4/CapSense_1_CSHL.c ****     * Summary:
 894:Generated_Source\PSoC4/CapSense_1_CSHL.c ****     *  This API sets the finger threshold value for a widget.
 895:Generated_Source\PSoC4/CapSense_1_CSHL.c ****     *
 896:Generated_Source\PSoC4/CapSense_1_CSHL.c ****     * Parameters:
 897:Generated_Source\PSoC4/CapSense_1_CSHL.c ****     *  sensorNumber:  widget index.
 898:Generated_Source\PSoC4/CapSense_1_CSHL.c ****     *  value:  Finger threshold value for the widget.
 899:Generated_Source\PSoC4/CapSense_1_CSHL.c ****     *
 900:Generated_Source\PSoC4/CapSense_1_CSHL.c ****     * Return Value:
 901:Generated_Source\PSoC4/CapSense_1_CSHL.c ****     *  None
 902:Generated_Source\PSoC4/CapSense_1_CSHL.c ****     *
 903:Generated_Source\PSoC4/CapSense_1_CSHL.c ****     * Global Variables:
 904:Generated_Source\PSoC4/CapSense_1_CSHL.c ****     *  CapSense_1_fingerThreshold[] - This array contains the level of signal
 905:Generated_Source\PSoC4/CapSense_1_CSHL.c ****     *   for each widget that determines if a finger is present on the widget.
 906:Generated_Source\PSoC4/CapSense_1_CSHL.c ****     *
 907:Generated_Source\PSoC4/CapSense_1_CSHL.c ****     * Side Effects:
 908:Generated_Source\PSoC4/CapSense_1_CSHL.c ****     *  None
 909:Generated_Source\PSoC4/CapSense_1_CSHL.c ****     *
 910:Generated_Source\PSoC4/CapSense_1_CSHL.c ****     *******************************************************************************/
 911:Generated_Source\PSoC4/CapSense_1_CSHL.c ****     void CapSense_1_SetFingerThreshold(uint32 widget, uint8 value)
 912:Generated_Source\PSoC4/CapSense_1_CSHL.c ****     {
 1152              		.loc 1 912 0
 1153              		.cfi_startproc
 1154 0000 80B5     		push	{r7, lr}
 1155              		.cfi_def_cfa_offset 8
 1156              		.cfi_offset 7, -8
 1157              		.cfi_offset 14, -4
 1158 0002 82B0     		sub	sp, sp, #8
 1159              		.cfi_def_cfa_offset 16
 1160 0004 00AF     		add	r7, sp, #0
 1161              		.cfi_def_cfa_register 7
 1162 0006 7860     		str	r0, [r7, #4]
 1163 0008 0A1C     		mov	r2, r1
 1164 000a FB1C     		add	r3, r7, #3
 1165 000c 1A70     		strb	r2, [r3]
 913:Generated_Source\PSoC4/CapSense_1_CSHL.c ****         CapSense_1_fingerThreshold[widget] = value;
 1166              		.loc 1 913 0
 1167 000e 044A     		ldr	r2, .L75
 1168 0010 7B68     		ldr	r3, [r7, #4]
 1169 0012 D318     		add	r3, r2, r3
 1170 0014 FA1C     		add	r2, r7, #3
 1171 0016 1278     		ldrb	r2, [r2]
 1172 0018 1A70     		strb	r2, [r3]
 914:Generated_Source\PSoC4/CapSense_1_CSHL.c ****     }
 1173              		.loc 1 914 0
 1174 001a BD46     		mov	sp, r7
 1175 001c 02B0     		add	sp, sp, #8
 1176              		@ sp needed
 1177 001e 80BD     		pop	{r7, pc}
 1178              	.L76:
 1179              		.align	2
 1180              	.L75:
 1181 0020 00000000 		.word	CapSense_1_fingerThreshold
 1182              		.cfi_endproc
ARM GAS  C:\Users\IGOR~1.HOL\AppData\Local\Temp\cc8IZ2FY.s 			page 38


 1183              	.LFE51:
 1184              		.size	CapSense_1_SetFingerThreshold, .-CapSense_1_SetFingerThreshold
 1185              		.section	.text.CapSense_1_SetNoiseThreshold,"ax",%progbits
 1186              		.align	2
 1187              		.global	CapSense_1_SetNoiseThreshold
 1188              		.code	16
 1189              		.thumb_func
 1190              		.type	CapSense_1_SetNoiseThreshold, %function
 1191              	CapSense_1_SetNoiseThreshold:
 1192              	.LFB52:
 915:Generated_Source\PSoC4/CapSense_1_CSHL.c **** 
 916:Generated_Source\PSoC4/CapSense_1_CSHL.c **** 
 917:Generated_Source\PSoC4/CapSense_1_CSHL.c ****     /*******************************************************************************
 918:Generated_Source\PSoC4/CapSense_1_CSHL.c ****     * Function Name: CapSense_1_SetNoiseThreshold
 919:Generated_Source\PSoC4/CapSense_1_CSHL.c ****     ********************************************************************************
 920:Generated_Source\PSoC4/CapSense_1_CSHL.c ****     *
 921:Generated_Source\PSoC4/CapSense_1_CSHL.c ****     * Summary:
 922:Generated_Source\PSoC4/CapSense_1_CSHL.c ****     *  This API sets the Noise Threshold value for each widget.
 923:Generated_Source\PSoC4/CapSense_1_CSHL.c ****     *
 924:Generated_Source\PSoC4/CapSense_1_CSHL.c ****     * Parameters:
 925:Generated_Source\PSoC4/CapSense_1_CSHL.c ****     *  widget:  Sensor index number.
 926:Generated_Source\PSoC4/CapSense_1_CSHL.c ****     *  value:   Noise Threshold value for widget.
 927:Generated_Source\PSoC4/CapSense_1_CSHL.c ****     *
 928:Generated_Source\PSoC4/CapSense_1_CSHL.c ****     * Return Value:
 929:Generated_Source\PSoC4/CapSense_1_CSHL.c ****     *  None
 930:Generated_Source\PSoC4/CapSense_1_CSHL.c ****     *
 931:Generated_Source\PSoC4/CapSense_1_CSHL.c ****     * Global Variables:
 932:Generated_Source\PSoC4/CapSense_1_CSHL.c ****     *  CapSense_1_noiseThreshold[] - This array contains the level of signal
 933:Generated_Source\PSoC4/CapSense_1_CSHL.c ****     *   for each widget that determines the level of noise in the capacitive scan.
 934:Generated_Source\PSoC4/CapSense_1_CSHL.c ****     *
 935:Generated_Source\PSoC4/CapSense_1_CSHL.c ****     * Side Effects:
 936:Generated_Source\PSoC4/CapSense_1_CSHL.c ****     *  None
 937:Generated_Source\PSoC4/CapSense_1_CSHL.c ****     *
 938:Generated_Source\PSoC4/CapSense_1_CSHL.c ****     *******************************************************************************/
 939:Generated_Source\PSoC4/CapSense_1_CSHL.c ****     void CapSense_1_SetNoiseThreshold(uint32 widget, uint8 value)
 940:Generated_Source\PSoC4/CapSense_1_CSHL.c ****     {
 1193              		.loc 1 940 0
 1194              		.cfi_startproc
 1195 0000 80B5     		push	{r7, lr}
 1196              		.cfi_def_cfa_offset 8
 1197              		.cfi_offset 7, -8
 1198              		.cfi_offset 14, -4
 1199 0002 82B0     		sub	sp, sp, #8
 1200              		.cfi_def_cfa_offset 16
 1201 0004 00AF     		add	r7, sp, #0
 1202              		.cfi_def_cfa_register 7
 1203 0006 7860     		str	r0, [r7, #4]
 1204 0008 0A1C     		mov	r2, r1
 1205 000a FB1C     		add	r3, r7, #3
 1206 000c 1A70     		strb	r2, [r3]
 941:Generated_Source\PSoC4/CapSense_1_CSHL.c ****         CapSense_1_noiseThreshold[widget] = value;
 1207              		.loc 1 941 0
 1208 000e 044A     		ldr	r2, .L78
 1209 0010 7B68     		ldr	r3, [r7, #4]
 1210 0012 D318     		add	r3, r2, r3
 1211 0014 FA1C     		add	r2, r7, #3
 1212 0016 1278     		ldrb	r2, [r2]
ARM GAS  C:\Users\IGOR~1.HOL\AppData\Local\Temp\cc8IZ2FY.s 			page 39


 1213 0018 1A70     		strb	r2, [r3]
 942:Generated_Source\PSoC4/CapSense_1_CSHL.c ****     }
 1214              		.loc 1 942 0
 1215 001a BD46     		mov	sp, r7
 1216 001c 02B0     		add	sp, sp, #8
 1217              		@ sp needed
 1218 001e 80BD     		pop	{r7, pc}
 1219              	.L79:
 1220              		.align	2
 1221              	.L78:
 1222 0020 00000000 		.word	CapSense_1_noiseThreshold
 1223              		.cfi_endproc
 1224              	.LFE52:
 1225              		.size	CapSense_1_SetNoiseThreshold, .-CapSense_1_SetNoiseThreshold
 1226              		.section	.text.CapSense_1_SetFingerHysteresis,"ax",%progbits
 1227              		.align	2
 1228              		.global	CapSense_1_SetFingerHysteresis
 1229              		.code	16
 1230              		.thumb_func
 1231              		.type	CapSense_1_SetFingerHysteresis, %function
 1232              	CapSense_1_SetFingerHysteresis:
 1233              	.LFB53:
 943:Generated_Source\PSoC4/CapSense_1_CSHL.c **** 
 944:Generated_Source\PSoC4/CapSense_1_CSHL.c **** 
 945:Generated_Source\PSoC4/CapSense_1_CSHL.c ****     /*******************************************************************************
 946:Generated_Source\PSoC4/CapSense_1_CSHL.c ****     * Function Name: CapSense_1_SetFingerHysteresis
 947:Generated_Source\PSoC4/CapSense_1_CSHL.c ****     ********************************************************************************
 948:Generated_Source\PSoC4/CapSense_1_CSHL.c ****     *
 949:Generated_Source\PSoC4/CapSense_1_CSHL.c ****     * Summary:
 950:Generated_Source\PSoC4/CapSense_1_CSHL.c ****     *  This API sets the Hysteresis value of a widget
 951:Generated_Source\PSoC4/CapSense_1_CSHL.c ****     *
 952:Generated_Source\PSoC4/CapSense_1_CSHL.c ****     * Parameters:
 953:Generated_Source\PSoC4/CapSense_1_CSHL.c ****     *  value:  Hysteresis value for widgets.
 954:Generated_Source\PSoC4/CapSense_1_CSHL.c ****     *  widget:  widget number
 955:Generated_Source\PSoC4/CapSense_1_CSHL.c ****     *
 956:Generated_Source\PSoC4/CapSense_1_CSHL.c ****     * Return Value:
 957:Generated_Source\PSoC4/CapSense_1_CSHL.c ****     *  None
 958:Generated_Source\PSoC4/CapSense_1_CSHL.c ****     *
 959:Generated_Source\PSoC4/CapSense_1_CSHL.c ****     * Global Variables:
 960:Generated_Source\PSoC4/CapSense_1_CSHL.c ****     *  CapSense_1_hysteresis[] - This array contains the hysteresis value for each widget.
 961:Generated_Source\PSoC4/CapSense_1_CSHL.c ****     *  CapSense_1_widgetNumberSld - structure with dynamic sliders' parameters.
 962:Generated_Source\PSoC4/CapSense_1_CSHL.c ****     *
 963:Generated_Source\PSoC4/CapSense_1_CSHL.c ****     * Side Effects:
 964:Generated_Source\PSoC4/CapSense_1_CSHL.c ****     *  None
 965:Generated_Source\PSoC4/CapSense_1_CSHL.c ****     *
 966:Generated_Source\PSoC4/CapSense_1_CSHL.c ****     *******************************************************************************/
 967:Generated_Source\PSoC4/CapSense_1_CSHL.c ****     void CapSense_1_SetFingerHysteresis(uint32 widget, uint8 value)
 968:Generated_Source\PSoC4/CapSense_1_CSHL.c ****     {
 1234              		.loc 1 968 0
 1235              		.cfi_startproc
 1236 0000 80B5     		push	{r7, lr}
 1237              		.cfi_def_cfa_offset 8
 1238              		.cfi_offset 7, -8
 1239              		.cfi_offset 14, -4
 1240 0002 82B0     		sub	sp, sp, #8
 1241              		.cfi_def_cfa_offset 16
 1242 0004 00AF     		add	r7, sp, #0
ARM GAS  C:\Users\IGOR~1.HOL\AppData\Local\Temp\cc8IZ2FY.s 			page 40


 1243              		.cfi_def_cfa_register 7
 1244 0006 7860     		str	r0, [r7, #4]
 1245 0008 0A1C     		mov	r2, r1
 1246 000a FB1C     		add	r3, r7, #3
 1247 000c 1A70     		strb	r2, [r3]
 969:Generated_Source\PSoC4/CapSense_1_CSHL.c ****         CapSense_1_hysteresis[widget] = value;
 1248              		.loc 1 969 0
 1249 000e 044A     		ldr	r2, .L81
 1250 0010 7B68     		ldr	r3, [r7, #4]
 1251 0012 D318     		add	r3, r2, r3
 1252 0014 FA1C     		add	r2, r7, #3
 1253 0016 1278     		ldrb	r2, [r2]
 1254 0018 1A70     		strb	r2, [r3]
 970:Generated_Source\PSoC4/CapSense_1_CSHL.c ****     }
 1255              		.loc 1 970 0
 1256 001a BD46     		mov	sp, r7
 1257 001c 02B0     		add	sp, sp, #8
 1258              		@ sp needed
 1259 001e 80BD     		pop	{r7, pc}
 1260              	.L82:
 1261              		.align	2
 1262              	.L81:
 1263 0020 00000000 		.word	CapSense_1_hysteresis
 1264              		.cfi_endproc
 1265              	.LFE53:
 1266              		.size	CapSense_1_SetFingerHysteresis, .-CapSense_1_SetFingerHysteresis
 1267              		.section	.text.CapSense_1_SetNegativeNoiseThreshold,"ax",%progbits
 1268              		.align	2
 1269              		.global	CapSense_1_SetNegativeNoiseThreshold
 1270              		.code	16
 1271              		.thumb_func
 1272              		.type	CapSense_1_SetNegativeNoiseThreshold, %function
 1273              	CapSense_1_SetNegativeNoiseThreshold:
 1274              	.LFB54:
 971:Generated_Source\PSoC4/CapSense_1_CSHL.c **** 
 972:Generated_Source\PSoC4/CapSense_1_CSHL.c **** 
 973:Generated_Source\PSoC4/CapSense_1_CSHL.c ****     /*******************************************************************************
 974:Generated_Source\PSoC4/CapSense_1_CSHL.c ****     * Function Name: CapSense_1_SetNegativeNoiseThreshold
 975:Generated_Source\PSoC4/CapSense_1_CSHL.c ****     ********************************************************************************
 976:Generated_Source\PSoC4/CapSense_1_CSHL.c ****     *
 977:Generated_Source\PSoC4/CapSense_1_CSHL.c ****     * Summary:
 978:Generated_Source\PSoC4/CapSense_1_CSHL.c ****     *  This API sets the Negative Noise Threshold value of a widget
 979:Generated_Source\PSoC4/CapSense_1_CSHL.c ****     *
 980:Generated_Source\PSoC4/CapSense_1_CSHL.c ****     * Parameters:
 981:Generated_Source\PSoC4/CapSense_1_CSHL.c ****     *  value:  Negative Noise Threshold value for widgets.
 982:Generated_Source\PSoC4/CapSense_1_CSHL.c ****     *  widget: widget number
 983:Generated_Source\PSoC4/CapSense_1_CSHL.c ****     *
 984:Generated_Source\PSoC4/CapSense_1_CSHL.c ****     * Return Value:
 985:Generated_Source\PSoC4/CapSense_1_CSHL.c ****     *  None
 986:Generated_Source\PSoC4/CapSense_1_CSHL.c ****     *
 987:Generated_Source\PSoC4/CapSense_1_CSHL.c ****     * Global Variables:
 988:Generated_Source\PSoC4/CapSense_1_CSHL.c ****     *  CapSense_1_negativeNoiseThreshold  - This parameter specifies the negative
 989:Generated_Source\PSoC4/CapSense_1_CSHL.c ****     *   difference between the raw count and baseline levels for Baseline resetting to
 990:Generated_Source\PSoC4/CapSense_1_CSHL.c ****     *   the raw count level.
 991:Generated_Source\PSoC4/CapSense_1_CSHL.c ****     *
 992:Generated_Source\PSoC4/CapSense_1_CSHL.c ****     * Side Effects:
 993:Generated_Source\PSoC4/CapSense_1_CSHL.c ****     *  None
ARM GAS  C:\Users\IGOR~1.HOL\AppData\Local\Temp\cc8IZ2FY.s 			page 41


 994:Generated_Source\PSoC4/CapSense_1_CSHL.c ****     *
 995:Generated_Source\PSoC4/CapSense_1_CSHL.c ****     *******************************************************************************/
 996:Generated_Source\PSoC4/CapSense_1_CSHL.c ****     void CapSense_1_SetNegativeNoiseThreshold(uint32 widget, uint8 value)
 997:Generated_Source\PSoC4/CapSense_1_CSHL.c ****     {
 1275              		.loc 1 997 0
 1276              		.cfi_startproc
 1277 0000 80B5     		push	{r7, lr}
 1278              		.cfi_def_cfa_offset 8
 1279              		.cfi_offset 7, -8
 1280              		.cfi_offset 14, -4
 1281 0002 82B0     		sub	sp, sp, #8
 1282              		.cfi_def_cfa_offset 16
 1283 0004 00AF     		add	r7, sp, #0
 1284              		.cfi_def_cfa_register 7
 1285 0006 7860     		str	r0, [r7, #4]
 1286 0008 0A1C     		mov	r2, r1
 1287 000a FB1C     		add	r3, r7, #3
 1288 000c 1A70     		strb	r2, [r3]
 998:Generated_Source\PSoC4/CapSense_1_CSHL.c ****         CapSense_1_negativeNoiseThreshold[widget] = value;
 1289              		.loc 1 998 0
 1290 000e 044A     		ldr	r2, .L84
 1291 0010 7B68     		ldr	r3, [r7, #4]
 1292 0012 D318     		add	r3, r2, r3
 1293 0014 FA1C     		add	r2, r7, #3
 1294 0016 1278     		ldrb	r2, [r2]
 1295 0018 1A70     		strb	r2, [r3]
 999:Generated_Source\PSoC4/CapSense_1_CSHL.c ****     }
 1296              		.loc 1 999 0
 1297 001a BD46     		mov	sp, r7
 1298 001c 02B0     		add	sp, sp, #8
 1299              		@ sp needed
 1300 001e 80BD     		pop	{r7, pc}
 1301              	.L85:
 1302              		.align	2
 1303              	.L84:
 1304 0020 00000000 		.word	CapSense_1_negativeNoiseThreshold
 1305              		.cfi_endproc
 1306              	.LFE54:
 1307              		.size	CapSense_1_SetNegativeNoiseThreshold, .-CapSense_1_SetNegativeNoiseThreshold
 1308              		.section	.text.CapSense_1_SetDebounce,"ax",%progbits
 1309              		.align	2
 1310              		.global	CapSense_1_SetDebounce
 1311              		.code	16
 1312              		.thumb_func
 1313              		.type	CapSense_1_SetDebounce, %function
 1314              	CapSense_1_SetDebounce:
 1315              	.LFB55:
1000:Generated_Source\PSoC4/CapSense_1_CSHL.c **** 
1001:Generated_Source\PSoC4/CapSense_1_CSHL.c **** 
1002:Generated_Source\PSoC4/CapSense_1_CSHL.c ****     /*******************************************************************************
1003:Generated_Source\PSoC4/CapSense_1_CSHL.c ****     * Function Name: CapSense_1_SetDebounce
1004:Generated_Source\PSoC4/CapSense_1_CSHL.c ****     ********************************************************************************
1005:Generated_Source\PSoC4/CapSense_1_CSHL.c ****     *
1006:Generated_Source\PSoC4/CapSense_1_CSHL.c ****     * Summary:
1007:Generated_Source\PSoC4/CapSense_1_CSHL.c ****     *  This API sets the debounce value for a widget.
1008:Generated_Source\PSoC4/CapSense_1_CSHL.c ****     *
1009:Generated_Source\PSoC4/CapSense_1_CSHL.c ****     * Parameters:
ARM GAS  C:\Users\IGOR~1.HOL\AppData\Local\Temp\cc8IZ2FY.s 			page 42


1010:Generated_Source\PSoC4/CapSense_1_CSHL.c ****     *  value:  Debounce value for widget.
1011:Generated_Source\PSoC4/CapSense_1_CSHL.c ****     *  widget: widget index.
1012:Generated_Source\PSoC4/CapSense_1_CSHL.c ****     *
1013:Generated_Source\PSoC4/CapSense_1_CSHL.c ****     * Return Value:
1014:Generated_Source\PSoC4/CapSense_1_CSHL.c ****     *  None
1015:Generated_Source\PSoC4/CapSense_1_CSHL.c ****     *
1016:Generated_Source\PSoC4/CapSense_1_CSHL.c ****     * Global Variables:
1017:Generated_Source\PSoC4/CapSense_1_CSHL.c ****     *  CapSense_1_debounce[] - This array contains the debounce value for each widget.
1018:Generated_Source\PSoC4/CapSense_1_CSHL.c ****     *  CapSense_1_widgetNumberSld - structure with dynamic sliders' parameters.
1019:Generated_Source\PSoC4/CapSense_1_CSHL.c ****     *
1020:Generated_Source\PSoC4/CapSense_1_CSHL.c ****     * Side Effects:
1021:Generated_Source\PSoC4/CapSense_1_CSHL.c ****     *  None
1022:Generated_Source\PSoC4/CapSense_1_CSHL.c ****     *
1023:Generated_Source\PSoC4/CapSense_1_CSHL.c ****     *******************************************************************************/
1024:Generated_Source\PSoC4/CapSense_1_CSHL.c ****     void CapSense_1_SetDebounce(uint32 widget, uint8 value)
1025:Generated_Source\PSoC4/CapSense_1_CSHL.c ****     {
 1316              		.loc 1 1025 0
 1317              		.cfi_startproc
 1318 0000 80B5     		push	{r7, lr}
 1319              		.cfi_def_cfa_offset 8
 1320              		.cfi_offset 7, -8
 1321              		.cfi_offset 14, -4
 1322 0002 82B0     		sub	sp, sp, #8
 1323              		.cfi_def_cfa_offset 16
 1324 0004 00AF     		add	r7, sp, #0
 1325              		.cfi_def_cfa_register 7
 1326 0006 7860     		str	r0, [r7, #4]
 1327 0008 0A1C     		mov	r2, r1
 1328 000a FB1C     		add	r3, r7, #3
 1329 000c 1A70     		strb	r2, [r3]
1026:Generated_Source\PSoC4/CapSense_1_CSHL.c ****         CapSense_1_debounce[widget] = value;
 1330              		.loc 1 1026 0
 1331 000e 044A     		ldr	r2, .L87
 1332 0010 7B68     		ldr	r3, [r7, #4]
 1333 0012 D318     		add	r3, r2, r3
 1334 0014 FA1C     		add	r2, r7, #3
 1335 0016 1278     		ldrb	r2, [r2]
 1336 0018 1A70     		strb	r2, [r3]
1027:Generated_Source\PSoC4/CapSense_1_CSHL.c ****     }
 1337              		.loc 1 1027 0
 1338 001a BD46     		mov	sp, r7
 1339 001c 02B0     		add	sp, sp, #8
 1340              		@ sp needed
 1341 001e 80BD     		pop	{r7, pc}
 1342              	.L88:
 1343              		.align	2
 1344              	.L87:
 1345 0020 00000000 		.word	CapSense_1_debounce
 1346              		.cfi_endproc
 1347              	.LFE55:
 1348              		.size	CapSense_1_SetDebounce, .-CapSense_1_SetDebounce
 1349              		.section	.text.CapSense_1_SetLowBaselineReset,"ax",%progbits
 1350              		.align	2
 1351              		.global	CapSense_1_SetLowBaselineReset
 1352              		.code	16
 1353              		.thumb_func
 1354              		.type	CapSense_1_SetLowBaselineReset, %function
ARM GAS  C:\Users\IGOR~1.HOL\AppData\Local\Temp\cc8IZ2FY.s 			page 43


 1355              	CapSense_1_SetLowBaselineReset:
 1356              	.LFB56:
1028:Generated_Source\PSoC4/CapSense_1_CSHL.c **** 
1029:Generated_Source\PSoC4/CapSense_1_CSHL.c **** 
1030:Generated_Source\PSoC4/CapSense_1_CSHL.c ****     /*******************************************************************************
1031:Generated_Source\PSoC4/CapSense_1_CSHL.c ****     * Function Name: CapSense_1_SetLowBaselineReset
1032:Generated_Source\PSoC4/CapSense_1_CSHL.c ****     ********************************************************************************
1033:Generated_Source\PSoC4/CapSense_1_CSHL.c ****     *
1034:Generated_Source\PSoC4/CapSense_1_CSHL.c ****     * Summary:
1035:Generated_Source\PSoC4/CapSense_1_CSHL.c ****     *  This API sets the low baseline reset threshold value for the sensor.
1036:Generated_Source\PSoC4/CapSense_1_CSHL.c ****     *
1037:Generated_Source\PSoC4/CapSense_1_CSHL.c ****     * Parameters:
1038:Generated_Source\PSoC4/CapSense_1_CSHL.c ****     *  value: low baseline reset threshold value.
1039:Generated_Source\PSoC4/CapSense_1_CSHL.c ****     *  sensor: Sensor index.
1040:Generated_Source\PSoC4/CapSense_1_CSHL.c ****     *
1041:Generated_Source\PSoC4/CapSense_1_CSHL.c ****     * Return Value:
1042:Generated_Source\PSoC4/CapSense_1_CSHL.c ****     *  None
1043:Generated_Source\PSoC4/CapSense_1_CSHL.c ****     *
1044:Generated_Source\PSoC4/CapSense_1_CSHL.c ****     * Global Variables:
1045:Generated_Source\PSoC4/CapSense_1_CSHL.c ****     *  CapSense_1_lowBaselineReset[] - This array contains the Baseline update
1046:Generated_Source\PSoC4/CapSense_1_CSHL.c ****     *  threshold value for each sensor.
1047:Generated_Source\PSoC4/CapSense_1_CSHL.c ****     *
1048:Generated_Source\PSoC4/CapSense_1_CSHL.c ****     * Side Effects:
1049:Generated_Source\PSoC4/CapSense_1_CSHL.c ****     *  None
1050:Generated_Source\PSoC4/CapSense_1_CSHL.c ****     *
1051:Generated_Source\PSoC4/CapSense_1_CSHL.c ****     *******************************************************************************/
1052:Generated_Source\PSoC4/CapSense_1_CSHL.c ****     void CapSense_1_SetLowBaselineReset(uint32 sensor, uint8 value)
1053:Generated_Source\PSoC4/CapSense_1_CSHL.c ****     {
 1357              		.loc 1 1053 0
 1358              		.cfi_startproc
 1359 0000 80B5     		push	{r7, lr}
 1360              		.cfi_def_cfa_offset 8
 1361              		.cfi_offset 7, -8
 1362              		.cfi_offset 14, -4
 1363 0002 82B0     		sub	sp, sp, #8
 1364              		.cfi_def_cfa_offset 16
 1365 0004 00AF     		add	r7, sp, #0
 1366              		.cfi_def_cfa_register 7
 1367 0006 7860     		str	r0, [r7, #4]
 1368 0008 0A1C     		mov	r2, r1
 1369 000a FB1C     		add	r3, r7, #3
 1370 000c 1A70     		strb	r2, [r3]
1054:Generated_Source\PSoC4/CapSense_1_CSHL.c ****         CapSense_1_lowBaselineReset[sensor] = value;
 1371              		.loc 1 1054 0
 1372 000e 044A     		ldr	r2, .L90
 1373 0010 7B68     		ldr	r3, [r7, #4]
 1374 0012 D318     		add	r3, r2, r3
 1375 0014 FA1C     		add	r2, r7, #3
 1376 0016 1278     		ldrb	r2, [r2]
 1377 0018 1A70     		strb	r2, [r3]
1055:Generated_Source\PSoC4/CapSense_1_CSHL.c ****     }
 1378              		.loc 1 1055 0
 1379 001a BD46     		mov	sp, r7
 1380 001c 02B0     		add	sp, sp, #8
 1381              		@ sp needed
 1382 001e 80BD     		pop	{r7, pc}
 1383              	.L91:
ARM GAS  C:\Users\IGOR~1.HOL\AppData\Local\Temp\cc8IZ2FY.s 			page 44


 1384              		.align	2
 1385              	.L90:
 1386 0020 00000000 		.word	CapSense_1_lowBaselineReset
 1387              		.cfi_endproc
 1388              	.LFE56:
 1389              		.size	CapSense_1_SetLowBaselineReset, .-CapSense_1_SetLowBaselineReset
 1390              		.section	.text.CapSense_1_CheckIsSensorActive,"ax",%progbits
 1391              		.align	2
 1392              		.global	CapSense_1_CheckIsSensorActive
 1393              		.code	16
 1394              		.thumb_func
 1395              		.type	CapSense_1_CheckIsSensorActive, %function
 1396              	CapSense_1_CheckIsSensorActive:
 1397              	.LFB57:
1056:Generated_Source\PSoC4/CapSense_1_CSHL.c **** #endif /* (CapSense_1_TUNING_METHOD != CapSense_1__TUNING_NONE) */
1057:Generated_Source\PSoC4/CapSense_1_CSHL.c **** 
1058:Generated_Source\PSoC4/CapSense_1_CSHL.c **** 
1059:Generated_Source\PSoC4/CapSense_1_CSHL.c **** /*******************************************************************************
1060:Generated_Source\PSoC4/CapSense_1_CSHL.c **** * Function Name: CapSense_1_CheckIsSensorActive
1061:Generated_Source\PSoC4/CapSense_1_CSHL.c **** ********************************************************************************
1062:Generated_Source\PSoC4/CapSense_1_CSHL.c **** *
1063:Generated_Source\PSoC4/CapSense_1_CSHL.c **** * Summary:
1064:Generated_Source\PSoC4/CapSense_1_CSHL.c **** *  Compares the CapSense_1_sensorSignal[sensor] array element to the finger
1065:Generated_Source\PSoC4/CapSense_1_CSHL.c **** *  threshold of the widget it belongs to. The hysteresis and debounce are taken into
1066:Generated_Source\PSoC4/CapSense_1_CSHL.c **** *  account. The hysteresis is added or subtracted from the finger threshold
1067:Generated_Source\PSoC4/CapSense_1_CSHL.c **** *  based on whether the sensor is currently active.
1068:Generated_Source\PSoC4/CapSense_1_CSHL.c **** *  If the sensor is active, the threshold is lowered by the hysteresis amount.
1069:Generated_Source\PSoC4/CapSense_1_CSHL.c **** *  If the sensor is inactive, the threshold is raised by the hysteresis amount.
1070:Generated_Source\PSoC4/CapSense_1_CSHL.c **** *  The debounce counter is added to the sensor active transition.
1071:Generated_Source\PSoC4/CapSense_1_CSHL.c **** *  This function updates the CapSense_1_sensorOnMask[] array element.
1072:Generated_Source\PSoC4/CapSense_1_CSHL.c **** *
1073:Generated_Source\PSoC4/CapSense_1_CSHL.c **** * Parameters:
1074:Generated_Source\PSoC4/CapSense_1_CSHL.c **** *  sensor:  Sensor number.
1075:Generated_Source\PSoC4/CapSense_1_CSHL.c **** *
1076:Generated_Source\PSoC4/CapSense_1_CSHL.c **** * Return:
1077:Generated_Source\PSoC4/CapSense_1_CSHL.c **** *  Returns sensor state 1 if active, 0 if not active.
1078:Generated_Source\PSoC4/CapSense_1_CSHL.c **** *
1079:Generated_Source\PSoC4/CapSense_1_CSHL.c **** * Global Variables:
1080:Generated_Source\PSoC4/CapSense_1_CSHL.c **** *  CapSense_1_sensorSignal[] - used to store the difference between
1081:Generated_Source\PSoC4/CapSense_1_CSHL.c **** *  the current value of raw data and a previous value of the baseline.
1082:Generated_Source\PSoC4/CapSense_1_CSHL.c **** *  CapSense_1_debounceCounter[]   - used to store the current debounce
1083:Generated_Source\PSoC4/CapSense_1_CSHL.c **** *  counter of the sensor. the widget which have this parameter are buttons, matrix
1084:Generated_Source\PSoC4/CapSense_1_CSHL.c **** *  buttons, proximity, and guard. All other widgets don't have the  debounce parameter
1085:Generated_Source\PSoC4/CapSense_1_CSHL.c **** *  and use the last element of this array with value 0 (it means no debounce).
1086:Generated_Source\PSoC4/CapSense_1_CSHL.c **** *  CapSense_1_sensorOnMask[] - used to store the sensors on/off state.
1087:Generated_Source\PSoC4/CapSense_1_CSHL.c **** *  CapSense_1_sensorOnMask[0] contains the masked bits for sensors
1088:Generated_Source\PSoC4/CapSense_1_CSHL.c **** *   0 through 7 (sensor 0 is bit 0, sensor 1 is bit 1).
1089:Generated_Source\PSoC4/CapSense_1_CSHL.c **** *  CapSense_1_sensorEnableMask[1] contains the masked bits for
1090:Generated_Source\PSoC4/CapSense_1_CSHL.c **** *  sensors 8 through 15 (if needed), and so on.
1091:Generated_Source\PSoC4/CapSense_1_CSHL.c **** *  0 - sensor is inactive.
1092:Generated_Source\PSoC4/CapSense_1_CSHL.c **** *  1 - sensor is active.
1093:Generated_Source\PSoC4/CapSense_1_CSHL.c **** *
1094:Generated_Source\PSoC4/CapSense_1_CSHL.c **** * Side Effects:
1095:Generated_Source\PSoC4/CapSense_1_CSHL.c **** *  None
1096:Generated_Source\PSoC4/CapSense_1_CSHL.c **** *
1097:Generated_Source\PSoC4/CapSense_1_CSHL.c **** *******************************************************************************/
1098:Generated_Source\PSoC4/CapSense_1_CSHL.c **** uint32 CapSense_1_CheckIsSensorActive(uint32 sensor)
ARM GAS  C:\Users\IGOR~1.HOL\AppData\Local\Temp\cc8IZ2FY.s 			page 45


1099:Generated_Source\PSoC4/CapSense_1_CSHL.c **** {
 1398              		.loc 1 1099 0
 1399              		.cfi_startproc
 1400 0000 80B5     		push	{r7, lr}
 1401              		.cfi_def_cfa_offset 8
 1402              		.cfi_offset 7, -8
 1403              		.cfi_offset 14, -4
 1404 0002 84B0     		sub	sp, sp, #16
 1405              		.cfi_def_cfa_offset 24
 1406 0004 00AF     		add	r7, sp, #0
 1407              		.cfi_def_cfa_register 7
 1408 0006 7860     		str	r0, [r7, #4]
1100:Generated_Source\PSoC4/CapSense_1_CSHL.c ****     uint8 widget;
1101:Generated_Source\PSoC4/CapSense_1_CSHL.c ****     uint8 debounce;
1102:Generated_Source\PSoC4/CapSense_1_CSHL.c ****     uint8 debounceIndex;
1103:Generated_Source\PSoC4/CapSense_1_CSHL.c **** 
1104:Generated_Source\PSoC4/CapSense_1_CSHL.c ****     uint8 fingerThreshold;
1105:Generated_Source\PSoC4/CapSense_1_CSHL.c ****     uint8 hysteresis;
1106:Generated_Source\PSoC4/CapSense_1_CSHL.c ****     
1107:Generated_Source\PSoC4/CapSense_1_CSHL.c **** 
1108:Generated_Source\PSoC4/CapSense_1_CSHL.c ****     /* Prepare to find debounce counter index */
1109:Generated_Source\PSoC4/CapSense_1_CSHL.c ****     widget = CapSense_1_widgetNumber[sensor];
 1409              		.loc 1 1109 0
 1410 0008 0F23     		mov	r3, #15
 1411 000a FB18     		add	r3, r7, r3
 1412 000c 4249     		ldr	r1, .L101
 1413 000e 7A68     		ldr	r2, [r7, #4]
 1414 0010 8A18     		add	r2, r1, r2
 1415 0012 1278     		ldrb	r2, [r2]
 1416 0014 1A70     		strb	r2, [r3]
1110:Generated_Source\PSoC4/CapSense_1_CSHL.c **** 
1111:Generated_Source\PSoC4/CapSense_1_CSHL.c ****     fingerThreshold = CapSense_1_fingerThreshold[widget];
 1417              		.loc 1 1111 0
 1418 0016 0F23     		mov	r3, #15
 1419 0018 FB18     		add	r3, r7, r3
 1420 001a 1A78     		ldrb	r2, [r3]
 1421 001c 0E23     		mov	r3, #14
 1422 001e FB18     		add	r3, r7, r3
 1423 0020 3E49     		ldr	r1, .L101+4
 1424 0022 8A5C     		ldrb	r2, [r1, r2]
 1425 0024 1A70     		strb	r2, [r3]
1112:Generated_Source\PSoC4/CapSense_1_CSHL.c ****     hysteresis = CapSense_1_hysteresis[widget];
 1426              		.loc 1 1112 0
 1427 0026 0F23     		mov	r3, #15
 1428 0028 FB18     		add	r3, r7, r3
 1429 002a 1A78     		ldrb	r2, [r3]
 1430 002c 0D23     		mov	r3, #13
 1431 002e FB18     		add	r3, r7, r3
 1432 0030 3B49     		ldr	r1, .L101+8
 1433 0032 8A5C     		ldrb	r2, [r1, r2]
 1434 0034 1A70     		strb	r2, [r3]
1113:Generated_Source\PSoC4/CapSense_1_CSHL.c ****     debounce = CapSense_1_debounce[widget];
 1435              		.loc 1 1113 0
 1436 0036 0F23     		mov	r3, #15
 1437 0038 FB18     		add	r3, r7, r3
 1438 003a 1A78     		ldrb	r2, [r3]
 1439 003c 0C23     		mov	r3, #12
ARM GAS  C:\Users\IGOR~1.HOL\AppData\Local\Temp\cc8IZ2FY.s 			page 46


 1440 003e FB18     		add	r3, r7, r3
 1441 0040 3849     		ldr	r1, .L101+12
 1442 0042 8A5C     		ldrb	r2, [r1, r2]
 1443 0044 1A70     		strb	r2, [r3]
1114:Generated_Source\PSoC4/CapSense_1_CSHL.c **** 
1115:Generated_Source\PSoC4/CapSense_1_CSHL.c ****         debounceIndex = widget;
 1444              		.loc 1 1115 0
 1445 0046 0B23     		mov	r3, #11
 1446 0048 FB18     		add	r3, r7, r3
 1447 004a 0F22     		mov	r2, #15
 1448 004c BA18     		add	r2, r7, r2
 1449 004e 1278     		ldrb	r2, [r2]
 1450 0050 1A70     		strb	r2, [r3]
1116:Generated_Source\PSoC4/CapSense_1_CSHL.c **** 
1117:Generated_Source\PSoC4/CapSense_1_CSHL.c **** 
1118:Generated_Source\PSoC4/CapSense_1_CSHL.c ****     /* Was on */
1119:Generated_Source\PSoC4/CapSense_1_CSHL.c ****     if (0u != CapSense_1_GetBitValue(CapSense_1_sensorOnMask, sensor))
 1451              		.loc 1 1119 0
 1452 0052 354A     		ldr	r2, .L101+16
 1453 0054 7B68     		ldr	r3, [r7, #4]
 1454 0056 101C     		mov	r0, r2
 1455 0058 191C     		mov	r1, r3
 1456 005a FFF7FEFF 		bl	CapSense_1_GetBitValue
 1457 005e 031E     		sub	r3, r0, #0
 1458 0060 1DD0     		beq	.L93
1120:Generated_Source\PSoC4/CapSense_1_CSHL.c ****     {
1121:Generated_Source\PSoC4/CapSense_1_CSHL.c ****         /* Hysteresis minus */
1122:Generated_Source\PSoC4/CapSense_1_CSHL.c ****         if (CapSense_1_sensorSignal[sensor] < (fingerThreshold - hysteresis))
 1459              		.loc 1 1122 0
 1460 0062 324A     		ldr	r2, .L101+20
 1461 0064 7B68     		ldr	r3, [r7, #4]
 1462 0066 D318     		add	r3, r2, r3
 1463 0068 1B78     		ldrb	r3, [r3]
 1464 006a 191C     		mov	r1, r3
 1465 006c 0E23     		mov	r3, #14
 1466 006e FB18     		add	r3, r7, r3
 1467 0070 1A78     		ldrb	r2, [r3]
 1468 0072 0D23     		mov	r3, #13
 1469 0074 FB18     		add	r3, r7, r3
 1470 0076 1B78     		ldrb	r3, [r3]
 1471 0078 D31A     		sub	r3, r2, r3
 1472 007a 9942     		cmp	r1, r3
 1473 007c 3DDA     		bge	.L95
1123:Generated_Source\PSoC4/CapSense_1_CSHL.c ****         {
1124:Generated_Source\PSoC4/CapSense_1_CSHL.c ****             CapSense_1_SetBitValue(CapSense_1_sensorOnMask, sensor, 0u);
 1474              		.loc 1 1124 0
 1475 007e 2A4A     		ldr	r2, .L101+16
 1476 0080 7B68     		ldr	r3, [r7, #4]
 1477 0082 101C     		mov	r0, r2
 1478 0084 191C     		mov	r1, r3
 1479 0086 0022     		mov	r2, #0
 1480 0088 FFF7FEFF 		bl	CapSense_1_SetBitValue
1125:Generated_Source\PSoC4/CapSense_1_CSHL.c ****             /* Sensor inactive - reset Debounce counter */
1126:Generated_Source\PSoC4/CapSense_1_CSHL.c ****             CapSense_1_debounceCounter[debounceIndex] = debounce;
 1481              		.loc 1 1126 0
 1482 008c 0B23     		mov	r3, #11
 1483 008e FB18     		add	r3, r7, r3
ARM GAS  C:\Users\IGOR~1.HOL\AppData\Local\Temp\cc8IZ2FY.s 			page 47


 1484 0090 1B78     		ldrb	r3, [r3]
 1485 0092 274A     		ldr	r2, .L101+24
 1486 0094 0C21     		mov	r1, #12
 1487 0096 7918     		add	r1, r7, r1
 1488 0098 0978     		ldrb	r1, [r1]
 1489 009a D154     		strb	r1, [r2, r3]
 1490 009c 2DE0     		b	.L95
 1491              	.L93:
1127:Generated_Source\PSoC4/CapSense_1_CSHL.c ****         }
1128:Generated_Source\PSoC4/CapSense_1_CSHL.c ****     }
1129:Generated_Source\PSoC4/CapSense_1_CSHL.c ****     else    /* Was off */
1130:Generated_Source\PSoC4/CapSense_1_CSHL.c ****     {
1131:Generated_Source\PSoC4/CapSense_1_CSHL.c ****         /* Hysteresis plus */
1132:Generated_Source\PSoC4/CapSense_1_CSHL.c ****         if (CapSense_1_sensorSignal[sensor] >= (fingerThreshold + hysteresis))
 1492              		.loc 1 1132 0
 1493 009e 234A     		ldr	r2, .L101+20
 1494 00a0 7B68     		ldr	r3, [r7, #4]
 1495 00a2 D318     		add	r3, r2, r3
 1496 00a4 1B78     		ldrb	r3, [r3]
 1497 00a6 191C     		mov	r1, r3
 1498 00a8 0E23     		mov	r3, #14
 1499 00aa FB18     		add	r3, r7, r3
 1500 00ac 1A78     		ldrb	r2, [r3]
 1501 00ae 0D23     		mov	r3, #13
 1502 00b0 FB18     		add	r3, r7, r3
 1503 00b2 1B78     		ldrb	r3, [r3]
 1504 00b4 D318     		add	r3, r2, r3
 1505 00b6 9942     		cmp	r1, r3
 1506 00b8 17DB     		blt	.L96
1133:Generated_Source\PSoC4/CapSense_1_CSHL.c ****         {
1134:Generated_Source\PSoC4/CapSense_1_CSHL.c ****             CapSense_1_debounceCounter[debounceIndex]--;
 1507              		.loc 1 1134 0
 1508 00ba 0B23     		mov	r3, #11
 1509 00bc FB18     		add	r3, r7, r3
 1510 00be 1B78     		ldrb	r3, [r3]
 1511 00c0 1B4A     		ldr	r2, .L101+24
 1512 00c2 D25C     		ldrb	r2, [r2, r3]
 1513 00c4 013A     		sub	r2, r2, #1
 1514 00c6 D1B2     		uxtb	r1, r2
 1515 00c8 194A     		ldr	r2, .L101+24
 1516 00ca D154     		strb	r1, [r2, r3]
1135:Generated_Source\PSoC4/CapSense_1_CSHL.c ****             /* Sensor active, decrement debounce counter */
1136:Generated_Source\PSoC4/CapSense_1_CSHL.c ****             if(CapSense_1_debounceCounter[debounceIndex] == 0u)
 1517              		.loc 1 1136 0
 1518 00cc 0B23     		mov	r3, #11
 1519 00ce FB18     		add	r3, r7, r3
 1520 00d0 1B78     		ldrb	r3, [r3]
 1521 00d2 174A     		ldr	r2, .L101+24
 1522 00d4 D35C     		ldrb	r3, [r2, r3]
 1523 00d6 002B     		cmp	r3, #0
 1524 00d8 0FD1     		bne	.L95
1137:Generated_Source\PSoC4/CapSense_1_CSHL.c ****             {
1138:Generated_Source\PSoC4/CapSense_1_CSHL.c ****                 CapSense_1_SetBitValue(CapSense_1_sensorOnMask, sensor, 1u);
 1525              		.loc 1 1138 0
 1526 00da 134A     		ldr	r2, .L101+16
 1527 00dc 7B68     		ldr	r3, [r7, #4]
 1528 00de 101C     		mov	r0, r2
ARM GAS  C:\Users\IGOR~1.HOL\AppData\Local\Temp\cc8IZ2FY.s 			page 48


 1529 00e0 191C     		mov	r1, r3
 1530 00e2 0122     		mov	r2, #1
 1531 00e4 FFF7FEFF 		bl	CapSense_1_SetBitValue
 1532 00e8 07E0     		b	.L95
 1533              	.L96:
1139:Generated_Source\PSoC4/CapSense_1_CSHL.c ****             }
1140:Generated_Source\PSoC4/CapSense_1_CSHL.c ****         }
1141:Generated_Source\PSoC4/CapSense_1_CSHL.c ****         else
1142:Generated_Source\PSoC4/CapSense_1_CSHL.c ****         {
1143:Generated_Source\PSoC4/CapSense_1_CSHL.c ****             /* Sensor inactive - reset Debounce counter */
1144:Generated_Source\PSoC4/CapSense_1_CSHL.c ****             CapSense_1_debounceCounter[debounceIndex] = debounce;
 1534              		.loc 1 1144 0
 1535 00ea 0B23     		mov	r3, #11
 1536 00ec FB18     		add	r3, r7, r3
 1537 00ee 1B78     		ldrb	r3, [r3]
 1538 00f0 0F4A     		ldr	r2, .L101+24
 1539 00f2 0C21     		mov	r1, #12
 1540 00f4 7918     		add	r1, r7, r1
 1541 00f6 0978     		ldrb	r1, [r1]
 1542 00f8 D154     		strb	r1, [r2, r3]
 1543              	.L95:
1145:Generated_Source\PSoC4/CapSense_1_CSHL.c ****         }
1146:Generated_Source\PSoC4/CapSense_1_CSHL.c ****     }
1147:Generated_Source\PSoC4/CapSense_1_CSHL.c **** 
1148:Generated_Source\PSoC4/CapSense_1_CSHL.c ****     return ((uint32)((0u != CapSense_1_GetBitValue(CapSense_1_sensorOnMask, sensor)) ? 1u : 0u));
 1544              		.loc 1 1148 0
 1545 00fa 0B4A     		ldr	r2, .L101+16
 1546 00fc 7B68     		ldr	r3, [r7, #4]
 1547 00fe 101C     		mov	r0, r2
 1548 0100 191C     		mov	r1, r3
 1549 0102 FFF7FEFF 		bl	CapSense_1_GetBitValue
 1550 0106 031E     		sub	r3, r0, #0
 1551 0108 01D0     		beq	.L98
 1552              		.loc 1 1148 0 is_stmt 0 discriminator 1
 1553 010a 0123     		mov	r3, #1
 1554 010c 00E0     		b	.L99
 1555              	.L98:
 1556              		.loc 1 1148 0 discriminator 2
 1557 010e 0023     		mov	r3, #0
 1558              	.L99:
1149:Generated_Source\PSoC4/CapSense_1_CSHL.c **** }
 1559              		.loc 1 1149 0 is_stmt 1 discriminator 4
 1560 0110 181C     		mov	r0, r3
 1561 0112 BD46     		mov	sp, r7
 1562 0114 04B0     		add	sp, sp, #16
 1563              		@ sp needed
 1564 0116 80BD     		pop	{r7, pc}
 1565              	.L102:
 1566              		.align	2
 1567              	.L101:
 1568 0118 00000000 		.word	CapSense_1_widgetNumber
 1569 011c 00000000 		.word	CapSense_1_fingerThreshold
 1570 0120 00000000 		.word	CapSense_1_hysteresis
 1571 0124 00000000 		.word	CapSense_1_debounce
 1572 0128 00000000 		.word	CapSense_1_sensorOnMask
 1573 012c 00000000 		.word	CapSense_1_sensorSignal
 1574 0130 10000000 		.word	CapSense_1_debounceCounter
ARM GAS  C:\Users\IGOR~1.HOL\AppData\Local\Temp\cc8IZ2FY.s 			page 49


 1575              		.cfi_endproc
 1576              	.LFE57:
 1577              		.size	CapSense_1_CheckIsSensorActive, .-CapSense_1_CheckIsSensorActive
 1578              		.section	.text.CapSense_1_CheckIsWidgetActive,"ax",%progbits
 1579              		.align	2
 1580              		.global	CapSense_1_CheckIsWidgetActive
 1581              		.code	16
 1582              		.thumb_func
 1583              		.type	CapSense_1_CheckIsWidgetActive, %function
 1584              	CapSense_1_CheckIsWidgetActive:
 1585              	.LFB58:
1150:Generated_Source\PSoC4/CapSense_1_CSHL.c **** 
1151:Generated_Source\PSoC4/CapSense_1_CSHL.c **** 
1152:Generated_Source\PSoC4/CapSense_1_CSHL.c **** /*******************************************************************************
1153:Generated_Source\PSoC4/CapSense_1_CSHL.c **** * Function Name: CapSense_1_CheckIsWidgetActive
1154:Generated_Source\PSoC4/CapSense_1_CSHL.c **** ********************************************************************************
1155:Generated_Source\PSoC4/CapSense_1_CSHL.c **** *
1156:Generated_Source\PSoC4/CapSense_1_CSHL.c **** * Summary:
1157:Generated_Source\PSoC4/CapSense_1_CSHL.c **** *  Compares the CapSense_sensorSignal[] array element to the finger threshold of
1158:Generated_Source\PSoC4/CapSense_1_CSHL.c **** * the widget it belongs to. The hysteresis and debounce are taken into account.
1159:Generated_Source\PSoC4/CapSense_1_CSHL.c **** * The hysteresis is added or subtracted from the finger threshold based on whether
1160:Generated_Source\PSoC4/CapSense_1_CSHL.c **** *  the sensor is currently active. If the sensor is active, the threshold is
1161:Generated_Source\PSoC4/CapSense_1_CSHL.c **** *  lowered by the hysteresis amount. If the sensor is inactive, the threshold
1162:Generated_Source\PSoC4/CapSense_1_CSHL.c **** *  is raised by the hysteresis amount.
1163:Generated_Source\PSoC4/CapSense_1_CSHL.c **** * The debounce counter added to the sensor active transition.
1164:Generated_Source\PSoC4/CapSense_1_CSHL.c **** * This function updates CapSense_sensorOnMask[] array element
1165:Generated_Source\PSoC4/CapSense_1_CSHL.c **** *
1166:Generated_Source\PSoC4/CapSense_1_CSHL.c **** * Parameters:
1167:Generated_Source\PSoC4/CapSense_1_CSHL.c **** *  widget:  widget number.
1168:Generated_Source\PSoC4/CapSense_1_CSHL.c **** *
1169:Generated_Source\PSoC4/CapSense_1_CSHL.c **** * Return:
1170:Generated_Source\PSoC4/CapSense_1_CSHL.c **** *  Returns widget sensor state 1 if one or more sensors within widget is/are
1171:Generated_Source\PSoC4/CapSense_1_CSHL.c **** *  active, 0 if all sensors within widget are inactive.
1172:Generated_Source\PSoC4/CapSense_1_CSHL.c **** *
1173:Generated_Source\PSoC4/CapSense_1_CSHL.c **** * Global Variables:
1174:Generated_Source\PSoC4/CapSense_1_CSHL.c **** *  rawDataIndex[]: Contains the  1st sensor position in the widget
1175:Generated_Source\PSoC4/CapSense_1_CSHL.c **** *
1176:Generated_Source\PSoC4/CapSense_1_CSHL.c **** * Side Effects:
1177:Generated_Source\PSoC4/CapSense_1_CSHL.c **** *  None
1178:Generated_Source\PSoC4/CapSense_1_CSHL.c **** *
1179:Generated_Source\PSoC4/CapSense_1_CSHL.c **** *******************************************************************************/
1180:Generated_Source\PSoC4/CapSense_1_CSHL.c **** uint32 CapSense_1_CheckIsWidgetActive(uint32 widget)
1181:Generated_Source\PSoC4/CapSense_1_CSHL.c **** {
 1586              		.loc 1 1181 0
 1587              		.cfi_startproc
 1588 0000 80B5     		push	{r7, lr}
 1589              		.cfi_def_cfa_offset 8
 1590              		.cfi_offset 7, -8
 1591              		.cfi_offset 14, -4
 1592 0002 86B0     		sub	sp, sp, #24
 1593              		.cfi_def_cfa_offset 32
 1594 0004 00AF     		add	r7, sp, #0
 1595              		.cfi_def_cfa_register 7
 1596 0006 7860     		str	r0, [r7, #4]
1182:Generated_Source\PSoC4/CapSense_1_CSHL.c ****     uint32 rawIndex = (uint32)CapSense_1_rawDataIndex[widget];
 1597              		.loc 1 1182 0
 1598 0008 0023     		mov	r3, #0
ARM GAS  C:\Users\IGOR~1.HOL\AppData\Local\Temp\cc8IZ2FY.s 			page 50


 1599 000a 7B61     		str	r3, [r7, #20]
1183:Generated_Source\PSoC4/CapSense_1_CSHL.c ****     uint32 numOfSensors = (uint32)CapSense_1_numberOfSensors[widget] + rawIndex;
 1600              		.loc 1 1183 0
 1601 000c 0123     		mov	r3, #1
 1602 000e 1A1C     		mov	r2, r3
 1603 0010 7B69     		ldr	r3, [r7, #20]
 1604 0012 D318     		add	r3, r2, r3
 1605 0014 FB60     		str	r3, [r7, #12]
1184:Generated_Source\PSoC4/CapSense_1_CSHL.c ****     uint32 state = 0u;
 1606              		.loc 1 1184 0
 1607 0016 0023     		mov	r3, #0
 1608 0018 3B61     		str	r3, [r7, #16]
 1609              	.L105:
1185:Generated_Source\PSoC4/CapSense_1_CSHL.c **** 
1186:Generated_Source\PSoC4/CapSense_1_CSHL.c ****     /* Check all sensors of widget */
1187:Generated_Source\PSoC4/CapSense_1_CSHL.c ****     do
1188:Generated_Source\PSoC4/CapSense_1_CSHL.c ****     {
1189:Generated_Source\PSoC4/CapSense_1_CSHL.c ****         if(CapSense_1_CheckIsSensorActive((uint32)rawIndex) != 0u)
 1610              		.loc 1 1189 0
 1611 001a 7B69     		ldr	r3, [r7, #20]
 1612 001c 181C     		mov	r0, r3
 1613 001e FFF7FEFF 		bl	CapSense_1_CheckIsSensorActive
 1614 0022 031E     		sub	r3, r0, #0
 1615 0024 01D0     		beq	.L104
1190:Generated_Source\PSoC4/CapSense_1_CSHL.c ****         {
1191:Generated_Source\PSoC4/CapSense_1_CSHL.c ****             state = CapSense_1_SENSOR_IS_ACTIVE;
 1616              		.loc 1 1191 0
 1617 0026 0123     		mov	r3, #1
 1618 0028 3B61     		str	r3, [r7, #16]
 1619              	.L104:
1192:Generated_Source\PSoC4/CapSense_1_CSHL.c ****         }
1193:Generated_Source\PSoC4/CapSense_1_CSHL.c ****         rawIndex++;
 1620              		.loc 1 1193 0
 1621 002a 7B69     		ldr	r3, [r7, #20]
 1622 002c 0133     		add	r3, r3, #1
 1623 002e 7B61     		str	r3, [r7, #20]
1194:Generated_Source\PSoC4/CapSense_1_CSHL.c ****     }
1195:Generated_Source\PSoC4/CapSense_1_CSHL.c ****     while(rawIndex < numOfSensors);
 1624              		.loc 1 1195 0
 1625 0030 7A69     		ldr	r2, [r7, #20]
 1626 0032 FB68     		ldr	r3, [r7, #12]
 1627 0034 9A42     		cmp	r2, r3
 1628 0036 F0D3     		bcc	.L105
1196:Generated_Source\PSoC4/CapSense_1_CSHL.c **** 
1197:Generated_Source\PSoC4/CapSense_1_CSHL.c **** 
1198:Generated_Source\PSoC4/CapSense_1_CSHL.c **** 
1199:Generated_Source\PSoC4/CapSense_1_CSHL.c ****     return state;
 1629              		.loc 1 1199 0
 1630 0038 3B69     		ldr	r3, [r7, #16]
1200:Generated_Source\PSoC4/CapSense_1_CSHL.c **** }
 1631              		.loc 1 1200 0
 1632 003a 181C     		mov	r0, r3
 1633 003c BD46     		mov	sp, r7
 1634 003e 06B0     		add	sp, sp, #24
 1635              		@ sp needed
 1636 0040 80BD     		pop	{r7, pc}
 1637              		.cfi_endproc
ARM GAS  C:\Users\IGOR~1.HOL\AppData\Local\Temp\cc8IZ2FY.s 			page 51


 1638              	.LFE58:
 1639              		.size	CapSense_1_CheckIsWidgetActive, .-CapSense_1_CheckIsWidgetActive
 1640 0042 C046     		.section	.text.CapSense_1_CheckIsAnyWidgetActive,"ax",%progbits
 1641              		.align	2
 1642              		.global	CapSense_1_CheckIsAnyWidgetActive
 1643              		.code	16
 1644              		.thumb_func
 1645              		.type	CapSense_1_CheckIsAnyWidgetActive, %function
 1646              	CapSense_1_CheckIsAnyWidgetActive:
 1647              	.LFB59:
1201:Generated_Source\PSoC4/CapSense_1_CSHL.c **** 
1202:Generated_Source\PSoC4/CapSense_1_CSHL.c **** 
1203:Generated_Source\PSoC4/CapSense_1_CSHL.c **** /*******************************************************************************
1204:Generated_Source\PSoC4/CapSense_1_CSHL.c **** * Function Name: CapSense_1_CheckIsAnyWidgetActive
1205:Generated_Source\PSoC4/CapSense_1_CSHL.c **** ********************************************************************************
1206:Generated_Source\PSoC4/CapSense_1_CSHL.c **** *
1207:Generated_Source\PSoC4/CapSense_1_CSHL.c **** * Summary:
1208:Generated_Source\PSoC4/CapSense_1_CSHL.c **** *  Compares all the sensors of the CapSense_1_Signal[] array to their finger
1209:Generated_Source\PSoC4/CapSense_1_CSHL.c **** *  threshold. Calls CapSense_1_CheckIsWidgetActive() for each widget so
1210:Generated_Source\PSoC4/CapSense_1_CSHL.c **** *  the CapSense_1_sensorOnMask[] array is up to date after calling this
1211:Generated_Source\PSoC4/CapSense_1_CSHL.c **** *  function.
1212:Generated_Source\PSoC4/CapSense_1_CSHL.c **** *
1213:Generated_Source\PSoC4/CapSense_1_CSHL.c **** * Parameters:
1214:Generated_Source\PSoC4/CapSense_1_CSHL.c **** *  widget:  widget number.
1215:Generated_Source\PSoC4/CapSense_1_CSHL.c **** *
1216:Generated_Source\PSoC4/CapSense_1_CSHL.c **** * Return:
1217:Generated_Source\PSoC4/CapSense_1_CSHL.c **** *  Returns 1 if any widget is active, 0 none of widgets are active.
1218:Generated_Source\PSoC4/CapSense_1_CSHL.c **** *
1219:Generated_Source\PSoC4/CapSense_1_CSHL.c **** * Global Variables:
1220:Generated_Source\PSoC4/CapSense_1_CSHL.c **** *  None
1221:Generated_Source\PSoC4/CapSense_1_CSHL.c **** *
1222:Generated_Source\PSoC4/CapSense_1_CSHL.c **** * Side Effects:
1223:Generated_Source\PSoC4/CapSense_1_CSHL.c **** *  None
1224:Generated_Source\PSoC4/CapSense_1_CSHL.c **** *
1225:Generated_Source\PSoC4/CapSense_1_CSHL.c **** *******************************************************************************/
1226:Generated_Source\PSoC4/CapSense_1_CSHL.c **** uint32 CapSense_1_CheckIsAnyWidgetActive(void)
1227:Generated_Source\PSoC4/CapSense_1_CSHL.c **** {
 1648              		.loc 1 1227 0
 1649              		.cfi_startproc
 1650 0000 80B5     		push	{r7, lr}
 1651              		.cfi_def_cfa_offset 8
 1652              		.cfi_offset 7, -8
 1653              		.cfi_offset 14, -4
 1654 0002 82B0     		sub	sp, sp, #8
 1655              		.cfi_def_cfa_offset 16
 1656 0004 00AF     		add	r7, sp, #0
 1657              		.cfi_def_cfa_register 7
1228:Generated_Source\PSoC4/CapSense_1_CSHL.c **** 
1229:Generated_Source\PSoC4/CapSense_1_CSHL.c ****         uint32 i;
1230:Generated_Source\PSoC4/CapSense_1_CSHL.c ****     uint32 state = 0u;
 1658              		.loc 1 1230 0
 1659 0006 0023     		mov	r3, #0
 1660 0008 3B60     		str	r3, [r7]
1231:Generated_Source\PSoC4/CapSense_1_CSHL.c ****     
1232:Generated_Source\PSoC4/CapSense_1_CSHL.c ****     for(i = 0u; i < CapSense_1_TOTAL_WIDGET_COUNT; i++)
 1661              		.loc 1 1232 0
 1662 000a 0023     		mov	r3, #0
ARM GAS  C:\Users\IGOR~1.HOL\AppData\Local\Temp\cc8IZ2FY.s 			page 52


 1663 000c 7B60     		str	r3, [r7, #4]
 1664 000e 0AE0     		b	.L108
 1665              	.L110:
1233:Generated_Source\PSoC4/CapSense_1_CSHL.c ****     {
1234:Generated_Source\PSoC4/CapSense_1_CSHL.c ****         if (CapSense_1_CheckIsWidgetActive(i) != 0u)
 1666              		.loc 1 1234 0
 1667 0010 7B68     		ldr	r3, [r7, #4]
 1668 0012 181C     		mov	r0, r3
 1669 0014 FFF7FEFF 		bl	CapSense_1_CheckIsWidgetActive
 1670 0018 031E     		sub	r3, r0, #0
 1671 001a 01D0     		beq	.L109
1235:Generated_Source\PSoC4/CapSense_1_CSHL.c ****         {
1236:Generated_Source\PSoC4/CapSense_1_CSHL.c ****             state = CapSense_1_WIDGET_IS_ACTIVE;
 1672              		.loc 1 1236 0
 1673 001c 0123     		mov	r3, #1
 1674 001e 3B60     		str	r3, [r7]
 1675              	.L109:
1232:Generated_Source\PSoC4/CapSense_1_CSHL.c ****     {
 1676              		.loc 1 1232 0 discriminator 2
 1677 0020 7B68     		ldr	r3, [r7, #4]
 1678 0022 0133     		add	r3, r3, #1
 1679 0024 7B60     		str	r3, [r7, #4]
 1680              	.L108:
1232:Generated_Source\PSoC4/CapSense_1_CSHL.c ****     {
 1681              		.loc 1 1232 0 is_stmt 0 discriminator 1
 1682 0026 7B68     		ldr	r3, [r7, #4]
 1683 0028 002B     		cmp	r3, #0
 1684 002a F1D0     		beq	.L110
1237:Generated_Source\PSoC4/CapSense_1_CSHL.c ****         }
1238:Generated_Source\PSoC4/CapSense_1_CSHL.c ****     }
1239:Generated_Source\PSoC4/CapSense_1_CSHL.c ****     
1240:Generated_Source\PSoC4/CapSense_1_CSHL.c **** 
1241:Generated_Source\PSoC4/CapSense_1_CSHL.c **** 
1242:Generated_Source\PSoC4/CapSense_1_CSHL.c ****     return state;
 1685              		.loc 1 1242 0 is_stmt 1
 1686 002c 3B68     		ldr	r3, [r7]
1243:Generated_Source\PSoC4/CapSense_1_CSHL.c **** }
 1687              		.loc 1 1243 0
 1688 002e 181C     		mov	r0, r3
 1689 0030 BD46     		mov	sp, r7
 1690 0032 02B0     		add	sp, sp, #8
 1691              		@ sp needed
 1692 0034 80BD     		pop	{r7, pc}
 1693              		.cfi_endproc
 1694              	.LFE59:
 1695              		.size	CapSense_1_CheckIsAnyWidgetActive, .-CapSense_1_CheckIsAnyWidgetActive
 1696 0036 C046     		.section	.text.CapSense_1_EnableWidget,"ax",%progbits
 1697              		.align	2
 1698              		.global	CapSense_1_EnableWidget
 1699              		.code	16
 1700              		.thumb_func
 1701              		.type	CapSense_1_EnableWidget, %function
 1702              	CapSense_1_EnableWidget:
 1703              	.LFB60:
1244:Generated_Source\PSoC4/CapSense_1_CSHL.c **** 
1245:Generated_Source\PSoC4/CapSense_1_CSHL.c **** 
1246:Generated_Source\PSoC4/CapSense_1_CSHL.c **** /*******************************************************************************
ARM GAS  C:\Users\IGOR~1.HOL\AppData\Local\Temp\cc8IZ2FY.s 			page 53


1247:Generated_Source\PSoC4/CapSense_1_CSHL.c **** * Function Name: CapSense_1_EnableWidget
1248:Generated_Source\PSoC4/CapSense_1_CSHL.c **** ********************************************************************************
1249:Generated_Source\PSoC4/CapSense_1_CSHL.c **** *
1250:Generated_Source\PSoC4/CapSense_1_CSHL.c **** * Summary:
1251:Generated_Source\PSoC4/CapSense_1_CSHL.c **** *  Enables all the widget elements (sensors) to the scanning process.
1252:Generated_Source\PSoC4/CapSense_1_CSHL.c **** *
1253:Generated_Source\PSoC4/CapSense_1_CSHL.c **** * Parameters:
1254:Generated_Source\PSoC4/CapSense_1_CSHL.c **** *  widget:  widget number.
1255:Generated_Source\PSoC4/CapSense_1_CSHL.c **** *
1256:Generated_Source\PSoC4/CapSense_1_CSHL.c **** * Return:
1257:Generated_Source\PSoC4/CapSense_1_CSHL.c **** *  None
1258:Generated_Source\PSoC4/CapSense_1_CSHL.c **** *
1259:Generated_Source\PSoC4/CapSense_1_CSHL.c **** * Global Variables:
1260:Generated_Source\PSoC4/CapSense_1_CSHL.c **** *  CapSense_1_sensorEnableMask[] - used to store the sensor scanning
1261:Generated_Source\PSoC4/CapSense_1_CSHL.c **** *  state.
1262:Generated_Source\PSoC4/CapSense_1_CSHL.c **** *  CapSense_1_sensorEnableMask[0] contains the masked bits for sensors
1263:Generated_Source\PSoC4/CapSense_1_CSHL.c **** *  0 through 7 (sensor 0 is bit 0, sensor 1 is bit 1).
1264:Generated_Source\PSoC4/CapSense_1_CSHL.c **** *  CapSense_1_sensorEnableMask[1] contains the masked bits for
1265:Generated_Source\PSoC4/CapSense_1_CSHL.c **** *  sensors 8 through 15 (if needed), and so on.
1266:Generated_Source\PSoC4/CapSense_1_CSHL.c **** *  0 - sensor doesn't scan by CapSense_1_ScanEnabledWidgets().
1267:Generated_Source\PSoC4/CapSense_1_CSHL.c **** *  1 - sensor scans by CapSense_1_ScanEnabledWidgets().
1268:Generated_Source\PSoC4/CapSense_1_CSHL.c **** *
1269:Generated_Source\PSoC4/CapSense_1_CSHL.c **** * Side Effects:
1270:Generated_Source\PSoC4/CapSense_1_CSHL.c **** *  None
1271:Generated_Source\PSoC4/CapSense_1_CSHL.c **** *
1272:Generated_Source\PSoC4/CapSense_1_CSHL.c **** *******************************************************************************/
1273:Generated_Source\PSoC4/CapSense_1_CSHL.c **** void CapSense_1_EnableWidget(uint32 widget)
1274:Generated_Source\PSoC4/CapSense_1_CSHL.c **** {
 1704              		.loc 1 1274 0
 1705              		.cfi_startproc
 1706 0000 80B5     		push	{r7, lr}
 1707              		.cfi_def_cfa_offset 8
 1708              		.cfi_offset 7, -8
 1709              		.cfi_offset 14, -4
 1710 0002 84B0     		sub	sp, sp, #16
 1711              		.cfi_def_cfa_offset 24
 1712 0004 00AF     		add	r7, sp, #0
 1713              		.cfi_def_cfa_register 7
 1714 0006 7860     		str	r0, [r7, #4]
1275:Generated_Source\PSoC4/CapSense_1_CSHL.c **** 
1276:Generated_Source\PSoC4/CapSense_1_CSHL.c ****     uint8 rawIndex = CapSense_1_rawDataIndex[widget];
 1715              		.loc 1 1276 0
 1716 0008 0F23     		mov	r3, #15
 1717 000a FB18     		add	r3, r7, r3
 1718 000c 0022     		mov	r2, #0
 1719 000e 1A70     		strb	r2, [r3]
1277:Generated_Source\PSoC4/CapSense_1_CSHL.c ****     uint8 numOfSensors = CapSense_1_numberOfSensors[widget] + rawIndex;
 1720              		.loc 1 1277 0
 1721 0010 0121     		mov	r1, #1
 1722 0012 0E23     		mov	r3, #14
 1723 0014 FB18     		add	r3, r7, r3
 1724 0016 0F22     		mov	r2, #15
 1725 0018 BA18     		add	r2, r7, r2
 1726 001a 1278     		ldrb	r2, [r2]
 1727 001c 8A18     		add	r2, r1, r2
 1728 001e 1A70     		strb	r2, [r3]
 1729              	.L113:
ARM GAS  C:\Users\IGOR~1.HOL\AppData\Local\Temp\cc8IZ2FY.s 			page 54


1278:Generated_Source\PSoC4/CapSense_1_CSHL.c **** 
1279:Generated_Source\PSoC4/CapSense_1_CSHL.c ****     /* Enable all sensors of widget */
1280:Generated_Source\PSoC4/CapSense_1_CSHL.c ****     do
1281:Generated_Source\PSoC4/CapSense_1_CSHL.c ****     {
1282:Generated_Source\PSoC4/CapSense_1_CSHL.c ****         CapSense_1_SetBitValue(CapSense_1_sensorEnableMask, (uint32)rawIndex, 1u);
 1730              		.loc 1 1282 0 discriminator 1
 1731 0020 0F23     		mov	r3, #15
 1732 0022 FB18     		add	r3, r7, r3
 1733 0024 1B78     		ldrb	r3, [r3]
 1734 0026 0C4A     		ldr	r2, .L114
 1735 0028 101C     		mov	r0, r2
 1736 002a 191C     		mov	r1, r3
 1737 002c 0122     		mov	r2, #1
 1738 002e FFF7FEFF 		bl	CapSense_1_SetBitValue
1283:Generated_Source\PSoC4/CapSense_1_CSHL.c ****         rawIndex++;
 1739              		.loc 1 1283 0 discriminator 1
 1740 0032 0F23     		mov	r3, #15
 1741 0034 FB18     		add	r3, r7, r3
 1742 0036 1A78     		ldrb	r2, [r3]
 1743 0038 0F23     		mov	r3, #15
 1744 003a FB18     		add	r3, r7, r3
 1745 003c 0132     		add	r2, r2, #1
 1746 003e 1A70     		strb	r2, [r3]
1284:Generated_Source\PSoC4/CapSense_1_CSHL.c ****     }
1285:Generated_Source\PSoC4/CapSense_1_CSHL.c ****     while(rawIndex < numOfSensors);
 1747              		.loc 1 1285 0 discriminator 1
 1748 0040 0F23     		mov	r3, #15
 1749 0042 FA18     		add	r2, r7, r3
 1750 0044 0E23     		mov	r3, #14
 1751 0046 FB18     		add	r3, r7, r3
 1752 0048 1278     		ldrb	r2, [r2]
 1753 004a 1B78     		ldrb	r3, [r3]
 1754 004c 9A42     		cmp	r2, r3
 1755 004e E7D3     		bcc	.L113
1286:Generated_Source\PSoC4/CapSense_1_CSHL.c **** }
 1756              		.loc 1 1286 0
 1757 0050 BD46     		mov	sp, r7
 1758 0052 04B0     		add	sp, sp, #16
 1759              		@ sp needed
 1760 0054 80BD     		pop	{r7, pc}
 1761              	.L115:
 1762 0056 C046     		.align	2
 1763              	.L114:
 1764 0058 00000000 		.word	CapSense_1_sensorEnableMask
 1765              		.cfi_endproc
 1766              	.LFE60:
 1767              		.size	CapSense_1_EnableWidget, .-CapSense_1_EnableWidget
 1768              		.section	.text.CapSense_1_DisableWidget,"ax",%progbits
 1769              		.align	2
 1770              		.global	CapSense_1_DisableWidget
 1771              		.code	16
 1772              		.thumb_func
 1773              		.type	CapSense_1_DisableWidget, %function
 1774              	CapSense_1_DisableWidget:
 1775              	.LFB61:
1287:Generated_Source\PSoC4/CapSense_1_CSHL.c **** 
1288:Generated_Source\PSoC4/CapSense_1_CSHL.c **** 
ARM GAS  C:\Users\IGOR~1.HOL\AppData\Local\Temp\cc8IZ2FY.s 			page 55


1289:Generated_Source\PSoC4/CapSense_1_CSHL.c **** /*******************************************************************************
1290:Generated_Source\PSoC4/CapSense_1_CSHL.c **** * Function Name: CapSense_1_DisableWidget
1291:Generated_Source\PSoC4/CapSense_1_CSHL.c **** ********************************************************************************
1292:Generated_Source\PSoC4/CapSense_1_CSHL.c **** *
1293:Generated_Source\PSoC4/CapSense_1_CSHL.c **** * Summary:
1294:Generated_Source\PSoC4/CapSense_1_CSHL.c **** *  Disables all the widget elements (sensors) from the scanning process.
1295:Generated_Source\PSoC4/CapSense_1_CSHL.c **** *
1296:Generated_Source\PSoC4/CapSense_1_CSHL.c **** * Parameters:
1297:Generated_Source\PSoC4/CapSense_1_CSHL.c **** *  widget:  widget number.
1298:Generated_Source\PSoC4/CapSense_1_CSHL.c **** *
1299:Generated_Source\PSoC4/CapSense_1_CSHL.c **** * Return:
1300:Generated_Source\PSoC4/CapSense_1_CSHL.c **** *  None
1301:Generated_Source\PSoC4/CapSense_1_CSHL.c **** *
1302:Generated_Source\PSoC4/CapSense_1_CSHL.c **** * Global Variables:
1303:Generated_Source\PSoC4/CapSense_1_CSHL.c **** *  CapSense_1_sensorEnableMask[] - used to store the sensor scanning
1304:Generated_Source\PSoC4/CapSense_1_CSHL.c **** *  state.
1305:Generated_Source\PSoC4/CapSense_1_CSHL.c **** *  CapSense_1_sensorEnableMask[0] contains the masked bits for sensors
1306:Generated_Source\PSoC4/CapSense_1_CSHL.c **** *  0 through 7 (sensor 0 is bit 0, sensor 1 is bit 1).
1307:Generated_Source\PSoC4/CapSense_1_CSHL.c **** *  CapSense_1_sensorEnableMask[1] contains the masked bits for
1308:Generated_Source\PSoC4/CapSense_1_CSHL.c **** *  sensors 8 through 15 (if needed), and so on.
1309:Generated_Source\PSoC4/CapSense_1_CSHL.c **** *  0 - sensor isn't scanned by CapSense_1_ScanEnabledWidgets().
1310:Generated_Source\PSoC4/CapSense_1_CSHL.c **** *  1 - sensor is scanned by CapSense_1_ScanEnabledWidgets().
1311:Generated_Source\PSoC4/CapSense_1_CSHL.c **** *
1312:Generated_Source\PSoC4/CapSense_1_CSHL.c **** * Side Effects:
1313:Generated_Source\PSoC4/CapSense_1_CSHL.c **** *  None
1314:Generated_Source\PSoC4/CapSense_1_CSHL.c **** *
1315:Generated_Source\PSoC4/CapSense_1_CSHL.c **** *******************************************************************************/
1316:Generated_Source\PSoC4/CapSense_1_CSHL.c **** void CapSense_1_DisableWidget(uint32 widget)
1317:Generated_Source\PSoC4/CapSense_1_CSHL.c **** {
 1776              		.loc 1 1317 0
 1777              		.cfi_startproc
 1778 0000 80B5     		push	{r7, lr}
 1779              		.cfi_def_cfa_offset 8
 1780              		.cfi_offset 7, -8
 1781              		.cfi_offset 14, -4
 1782 0002 84B0     		sub	sp, sp, #16
 1783              		.cfi_def_cfa_offset 24
 1784 0004 00AF     		add	r7, sp, #0
 1785              		.cfi_def_cfa_register 7
 1786 0006 7860     		str	r0, [r7, #4]
1318:Generated_Source\PSoC4/CapSense_1_CSHL.c ****     uint8 rawIndex = CapSense_1_rawDataIndex[widget];
 1787              		.loc 1 1318 0
 1788 0008 0F23     		mov	r3, #15
 1789 000a FB18     		add	r3, r7, r3
 1790 000c 0022     		mov	r2, #0
 1791 000e 1A70     		strb	r2, [r3]
1319:Generated_Source\PSoC4/CapSense_1_CSHL.c ****     uint8 numOfSensors = CapSense_1_numberOfSensors[widget] + rawIndex;
 1792              		.loc 1 1319 0
 1793 0010 0121     		mov	r1, #1
 1794 0012 0E23     		mov	r3, #14
 1795 0014 FB18     		add	r3, r7, r3
 1796 0016 0F22     		mov	r2, #15
 1797 0018 BA18     		add	r2, r7, r2
 1798 001a 1278     		ldrb	r2, [r2]
 1799 001c 8A18     		add	r2, r1, r2
 1800 001e 1A70     		strb	r2, [r3]
 1801              	.L117:
ARM GAS  C:\Users\IGOR~1.HOL\AppData\Local\Temp\cc8IZ2FY.s 			page 56


1320:Generated_Source\PSoC4/CapSense_1_CSHL.c **** 
1321:Generated_Source\PSoC4/CapSense_1_CSHL.c ****     /* Disable all sensors of widget */
1322:Generated_Source\PSoC4/CapSense_1_CSHL.c ****     do
1323:Generated_Source\PSoC4/CapSense_1_CSHL.c ****     {
1324:Generated_Source\PSoC4/CapSense_1_CSHL.c **** 
1325:Generated_Source\PSoC4/CapSense_1_CSHL.c ****         CapSense_1_SetBitValue(CapSense_1_sensorEnableMask, (uint32)rawIndex, 0u);
 1802              		.loc 1 1325 0 discriminator 1
 1803 0020 0F23     		mov	r3, #15
 1804 0022 FB18     		add	r3, r7, r3
 1805 0024 1B78     		ldrb	r3, [r3]
 1806 0026 0C4A     		ldr	r2, .L118
 1807 0028 101C     		mov	r0, r2
 1808 002a 191C     		mov	r1, r3
 1809 002c 0022     		mov	r2, #0
 1810 002e FFF7FEFF 		bl	CapSense_1_SetBitValue
1326:Generated_Source\PSoC4/CapSense_1_CSHL.c ****         rawIndex++;
 1811              		.loc 1 1326 0 discriminator 1
 1812 0032 0F23     		mov	r3, #15
 1813 0034 FB18     		add	r3, r7, r3
 1814 0036 1A78     		ldrb	r2, [r3]
 1815 0038 0F23     		mov	r3, #15
 1816 003a FB18     		add	r3, r7, r3
 1817 003c 0132     		add	r2, r2, #1
 1818 003e 1A70     		strb	r2, [r3]
1327:Generated_Source\PSoC4/CapSense_1_CSHL.c ****     }
1328:Generated_Source\PSoC4/CapSense_1_CSHL.c ****     while(rawIndex < numOfSensors);
 1819              		.loc 1 1328 0 discriminator 1
 1820 0040 0F23     		mov	r3, #15
 1821 0042 FA18     		add	r2, r7, r3
 1822 0044 0E23     		mov	r3, #14
 1823 0046 FB18     		add	r3, r7, r3
 1824 0048 1278     		ldrb	r2, [r2]
 1825 004a 1B78     		ldrb	r3, [r3]
 1826 004c 9A42     		cmp	r2, r3
 1827 004e E7D3     		bcc	.L117
1329:Generated_Source\PSoC4/CapSense_1_CSHL.c **** }
 1828              		.loc 1 1329 0
 1829 0050 BD46     		mov	sp, r7
 1830 0052 04B0     		add	sp, sp, #16
 1831              		@ sp needed
 1832 0054 80BD     		pop	{r7, pc}
 1833              	.L119:
 1834 0056 C046     		.align	2
 1835              	.L118:
 1836 0058 00000000 		.word	CapSense_1_sensorEnableMask
 1837              		.cfi_endproc
 1838              	.LFE61:
 1839              		.size	CapSense_1_DisableWidget, .-CapSense_1_DisableWidget
 1840              		.section	.text.CapSense_1_MedianFilter,"ax",%progbits
 1841              		.align	2
 1842              		.global	CapSense_1_MedianFilter
 1843              		.code	16
 1844              		.thumb_func
 1845              		.type	CapSense_1_MedianFilter, %function
 1846              	CapSense_1_MedianFilter:
 1847              	.LFB62:
1330:Generated_Source\PSoC4/CapSense_1_CSHL.c **** 
ARM GAS  C:\Users\IGOR~1.HOL\AppData\Local\Temp\cc8IZ2FY.s 			page 57


1331:Generated_Source\PSoC4/CapSense_1_CSHL.c **** 
1332:Generated_Source\PSoC4/CapSense_1_CSHL.c **** #if(CapSense_1_TOTAL_CENTROIDS_BASIC_COUNT)
1333:Generated_Source\PSoC4/CapSense_1_CSHL.c ****     /*******************************************************************************
1334:Generated_Source\PSoC4/CapSense_1_CSHL.c ****     * Function Name: CapSense_1_FindMaximum
1335:Generated_Source\PSoC4/CapSense_1_CSHL.c ****     ********************************************************************************
1336:Generated_Source\PSoC4/CapSense_1_CSHL.c ****     *
1337:Generated_Source\PSoC4/CapSense_1_CSHL.c ****     * Summary:
1338:Generated_Source\PSoC4/CapSense_1_CSHL.c ****     *  Finds the index of the maximum element within a defined centroid. Checks
1339:Generated_Source\PSoC4/CapSense_1_CSHL.c ****     *  CapSense_1_sensorSignal[] within a defined centroid and
1340:Generated_Source\PSoC4/CapSense_1_CSHL.c ****     *  returns the index of the maximum element. The values below the finger threshold are
1341:Generated_Source\PSoC4/CapSense_1_CSHL.c ****     *  ignored.
1342:Generated_Source\PSoC4/CapSense_1_CSHL.c ****     *  The centroid is defined by offset of the first element and a number of elements - count.
1343:Generated_Source\PSoC4/CapSense_1_CSHL.c ****     *  The diplexed centroid requires at least two consecutive elements above
1344:Generated_Source\PSoC4/CapSense_1_CSHL.c ****     *  FingerThreshold to find the index of the maximum element.
1345:Generated_Source\PSoC4/CapSense_1_CSHL.c ****     *
1346:Generated_Source\PSoC4/CapSense_1_CSHL.c ****     * Parameters:
1347:Generated_Source\PSoC4/CapSense_1_CSHL.c ****     *  offset:  Start index of centroid in CapSense_1_sensorSignal[] array.
1348:Generated_Source\PSoC4/CapSense_1_CSHL.c ****     *  count:   number of elements within centroid.
1349:Generated_Source\PSoC4/CapSense_1_CSHL.c ****     *  fingerThreshold:  Finger threshold.
1350:Generated_Source\PSoC4/CapSense_1_CSHL.c ****     *  diplex:   pointer to diplex table.
1351:Generated_Source\PSoC4/CapSense_1_CSHL.c ****     *
1352:Generated_Source\PSoC4/CapSense_1_CSHL.c ****     * Return:
1353:Generated_Source\PSoC4/CapSense_1_CSHL.c ****     *  Returns the index of the maximum element within a defined centroid.
1354:Generated_Source\PSoC4/CapSense_1_CSHL.c ****     *  If the index of the maximum element isn't found it returns 0xFF.
1355:Generated_Source\PSoC4/CapSense_1_CSHL.c ****     *
1356:Generated_Source\PSoC4/CapSense_1_CSHL.c ****     * Global Variables:
1357:Generated_Source\PSoC4/CapSense_1_CSHL.c ****     *  CapSense_1_startOfSlider[] - contains the index of the first slider element
1358:Generated_Source\PSoC4/CapSense_1_CSHL.c ****     *
1359:Generated_Source\PSoC4/CapSense_1_CSHL.c ****     * Side Effects:
1360:Generated_Source\PSoC4/CapSense_1_CSHL.c ****     *  None
1361:Generated_Source\PSoC4/CapSense_1_CSHL.c ****     *
1362:Generated_Source\PSoC4/CapSense_1_CSHL.c ****     *******************************************************************************/
1363:Generated_Source\PSoC4/CapSense_1_CSHL.c ****     #if (CapSense_1_IS_DIPLEX_SLIDER)
1364:Generated_Source\PSoC4/CapSense_1_CSHL.c ****         uint8 CapSense_1_FindMaximum(uint8 offset, uint8 count, uint8 fingerThreshold, const uint8 
1365:Generated_Source\PSoC4/CapSense_1_CSHL.c ****     #else
1366:Generated_Source\PSoC4/CapSense_1_CSHL.c ****         uint8 CapSense_1_FindMaximum(uint8 offset, uint8 count, uint8 fingerThreshold)
1367:Generated_Source\PSoC4/CapSense_1_CSHL.c ****     #endif /* (CapSense_1_IS_DIPLEX_SLIDER) */
1368:Generated_Source\PSoC4/CapSense_1_CSHL.c ****     {
1369:Generated_Source\PSoC4/CapSense_1_CSHL.c ****         uint8 i;
1370:Generated_Source\PSoC4/CapSense_1_CSHL.c ****         #if (CapSense_1_IS_DIPLEX_SLIDER)
1371:Generated_Source\PSoC4/CapSense_1_CSHL.c ****             uint8 curPos = 0u;
1372:Generated_Source\PSoC4/CapSense_1_CSHL.c ****             /* No centroid at Start */
1373:Generated_Source\PSoC4/CapSense_1_CSHL.c ****             uint8 curCntrdSize = 0u;
1374:Generated_Source\PSoC4/CapSense_1_CSHL.c ****             uint8 curCtrdStartPos = CapSense_1_MAXIMUM_CENTROID;
1375:Generated_Source\PSoC4/CapSense_1_CSHL.c ****             /* Biggest centroid is zero */
1376:Generated_Source\PSoC4/CapSense_1_CSHL.c ****             uint8 biggestCtrdSize = 0u;
1377:Generated_Source\PSoC4/CapSense_1_CSHL.c ****             uint8 biggestCtrdStartPos = 0u;
1378:Generated_Source\PSoC4/CapSense_1_CSHL.c ****         #endif /* (CapSense_1_IS_DIPLEX_SLIDER) */
1379:Generated_Source\PSoC4/CapSense_1_CSHL.c ****         uint8 maximum = CapSense_1_MAXIMUM_CENTROID;
1380:Generated_Source\PSoC4/CapSense_1_CSHL.c **** 
1381:Generated_Source\PSoC4/CapSense_1_CSHL.c ****         uint8 temp = 0u;
1382:Generated_Source\PSoC4/CapSense_1_CSHL.c ****         uint8 *startOfSlider = &CapSense_1_sensorSignal[offset];
1383:Generated_Source\PSoC4/CapSense_1_CSHL.c **** 
1384:Generated_Source\PSoC4/CapSense_1_CSHL.c ****         #if (CapSense_1_IS_DIPLEX_SLIDER)
1385:Generated_Source\PSoC4/CapSense_1_CSHL.c ****             if(diplex != 0u)
1386:Generated_Source\PSoC4/CapSense_1_CSHL.c ****             {
1387:Generated_Source\PSoC4/CapSense_1_CSHL.c ****                 /* Initialize */
ARM GAS  C:\Users\IGOR~1.HOL\AppData\Local\Temp\cc8IZ2FY.s 			page 58


1388:Generated_Source\PSoC4/CapSense_1_CSHL.c ****                 i = 0u;
1389:Generated_Source\PSoC4/CapSense_1_CSHL.c **** 
1390:Generated_Source\PSoC4/CapSense_1_CSHL.c ****                 /* Make slider x2 as Diplexed */
1391:Generated_Source\PSoC4/CapSense_1_CSHL.c ****                 count <<= 1u;
1392:Generated_Source\PSoC4/CapSense_1_CSHL.c ****                 while(1u)
1393:Generated_Source\PSoC4/CapSense_1_CSHL.c ****                 {
1394:Generated_Source\PSoC4/CapSense_1_CSHL.c ****                     if (startOfSlider[curPos] > 0u)    /* Looking for centroids */
1395:Generated_Source\PSoC4/CapSense_1_CSHL.c ****                     {
1396:Generated_Source\PSoC4/CapSense_1_CSHL.c ****                         if (curCtrdStartPos == CapSense_1_MAXIMUM_CENTROID)
1397:Generated_Source\PSoC4/CapSense_1_CSHL.c ****                         {
1398:Generated_Source\PSoC4/CapSense_1_CSHL.c ****                             /* Start of centroid */
1399:Generated_Source\PSoC4/CapSense_1_CSHL.c ****                             curCtrdStartPos = i;
1400:Generated_Source\PSoC4/CapSense_1_CSHL.c ****                             curCntrdSize++;
1401:Generated_Source\PSoC4/CapSense_1_CSHL.c ****                         }
1402:Generated_Source\PSoC4/CapSense_1_CSHL.c ****                         else
1403:Generated_Source\PSoC4/CapSense_1_CSHL.c ****                         {
1404:Generated_Source\PSoC4/CapSense_1_CSHL.c ****                             curCntrdSize++;
1405:Generated_Source\PSoC4/CapSense_1_CSHL.c ****                         }
1406:Generated_Source\PSoC4/CapSense_1_CSHL.c ****                     }
1407:Generated_Source\PSoC4/CapSense_1_CSHL.c ****                     else   /* Select biggest and indicate zero start */
1408:Generated_Source\PSoC4/CapSense_1_CSHL.c ****                     {
1409:Generated_Source\PSoC4/CapSense_1_CSHL.c ****                         if(curCntrdSize > 0u)
1410:Generated_Source\PSoC4/CapSense_1_CSHL.c ****                         {
1411:Generated_Source\PSoC4/CapSense_1_CSHL.c ****                             /* We are at the end of current */
1412:Generated_Source\PSoC4/CapSense_1_CSHL.c ****                             if(curCntrdSize > biggestCtrdSize)
1413:Generated_Source\PSoC4/CapSense_1_CSHL.c ****                             {
1414:Generated_Source\PSoC4/CapSense_1_CSHL.c ****                                 biggestCtrdSize = curCntrdSize;
1415:Generated_Source\PSoC4/CapSense_1_CSHL.c ****                                 biggestCtrdStartPos = curCtrdStartPos;
1416:Generated_Source\PSoC4/CapSense_1_CSHL.c ****                             }
1417:Generated_Source\PSoC4/CapSense_1_CSHL.c **** 
1418:Generated_Source\PSoC4/CapSense_1_CSHL.c ****                             curCntrdSize = 0u;
1419:Generated_Source\PSoC4/CapSense_1_CSHL.c ****                             curCtrdStartPos = CapSense_1_MAXIMUM_CENTROID;
1420:Generated_Source\PSoC4/CapSense_1_CSHL.c ****                         }
1421:Generated_Source\PSoC4/CapSense_1_CSHL.c ****                     }
1422:Generated_Source\PSoC4/CapSense_1_CSHL.c **** 
1423:Generated_Source\PSoC4/CapSense_1_CSHL.c ****                     i++;
1424:Generated_Source\PSoC4/CapSense_1_CSHL.c ****                     curPos = diplex[i];
1425:Generated_Source\PSoC4/CapSense_1_CSHL.c ****                     if(i == count)
1426:Generated_Source\PSoC4/CapSense_1_CSHL.c ****                     {
1427:Generated_Source\PSoC4/CapSense_1_CSHL.c ****                         break;
1428:Generated_Source\PSoC4/CapSense_1_CSHL.c ****                     }
1429:Generated_Source\PSoC4/CapSense_1_CSHL.c ****                 }
1430:Generated_Source\PSoC4/CapSense_1_CSHL.c **** 
1431:Generated_Source\PSoC4/CapSense_1_CSHL.c ****                     /* Find biggest centroid if two are same size, last one wins
1432:Generated_Source\PSoC4/CapSense_1_CSHL.c ****                        We are at the end of current */
1433:Generated_Source\PSoC4/CapSense_1_CSHL.c ****                 if (curCntrdSize >= biggestCtrdSize)
1434:Generated_Source\PSoC4/CapSense_1_CSHL.c ****                 {
1435:Generated_Source\PSoC4/CapSense_1_CSHL.c ****                     biggestCtrdSize = curCntrdSize;
1436:Generated_Source\PSoC4/CapSense_1_CSHL.c ****                     biggestCtrdStartPos = curCtrdStartPos;
1437:Generated_Source\PSoC4/CapSense_1_CSHL.c ****                 }
1438:Generated_Source\PSoC4/CapSense_1_CSHL.c ****             }
1439:Generated_Source\PSoC4/CapSense_1_CSHL.c ****             else
1440:Generated_Source\PSoC4/CapSense_1_CSHL.c ****             {
1441:Generated_Source\PSoC4/CapSense_1_CSHL.c ****                 /* Without diplexing */
1442:Generated_Source\PSoC4/CapSense_1_CSHL.c ****                 biggestCtrdSize = count;
1443:Generated_Source\PSoC4/CapSense_1_CSHL.c ****             }
1444:Generated_Source\PSoC4/CapSense_1_CSHL.c **** 
ARM GAS  C:\Users\IGOR~1.HOL\AppData\Local\Temp\cc8IZ2FY.s 			page 59


1445:Generated_Source\PSoC4/CapSense_1_CSHL.c **** 
1446:Generated_Source\PSoC4/CapSense_1_CSHL.c ****             /* Check centroid size */
1447:Generated_Source\PSoC4/CapSense_1_CSHL.c ****             #if (CapSense_1_IS_NON_DIPLEX_SLIDER)
1448:Generated_Source\PSoC4/CapSense_1_CSHL.c ****                 if((biggestCtrdSize >= 2u) || ((biggestCtrdSize == 1u) && (diplex == 0u)))
1449:Generated_Source\PSoC4/CapSense_1_CSHL.c ****             #else
1450:Generated_Source\PSoC4/CapSense_1_CSHL.c ****                 if(biggestCtrdSize >= 2u)
1451:Generated_Source\PSoC4/CapSense_1_CSHL.c ****             #endif /* (CapSense_1_IS_NON_DIPLEX_SLIDER) */
1452:Generated_Source\PSoC4/CapSense_1_CSHL.c ****                 {
1453:Generated_Source\PSoC4/CapSense_1_CSHL.c ****                     for (i = biggestCtrdStartPos; i < (biggestCtrdStartPos + biggestCtrdSize); i++)
1454:Generated_Source\PSoC4/CapSense_1_CSHL.c ****                     {
1455:Generated_Source\PSoC4/CapSense_1_CSHL.c ****                         #if (CapSense_1_IS_DIPLEX_SLIDER && CapSense_1_IS_NON_DIPLEX_SLIDER)
1456:Generated_Source\PSoC4/CapSense_1_CSHL.c ****                             if (diplex == 0u)
1457:Generated_Source\PSoC4/CapSense_1_CSHL.c ****                             {
1458:Generated_Source\PSoC4/CapSense_1_CSHL.c ****                                 curPos = i;
1459:Generated_Source\PSoC4/CapSense_1_CSHL.c ****                             }
1460:Generated_Source\PSoC4/CapSense_1_CSHL.c ****                             else
1461:Generated_Source\PSoC4/CapSense_1_CSHL.c ****                             {
1462:Generated_Source\PSoC4/CapSense_1_CSHL.c ****                                 curPos = diplex[i];
1463:Generated_Source\PSoC4/CapSense_1_CSHL.c ****                             }
1464:Generated_Source\PSoC4/CapSense_1_CSHL.c ****                         #elif (CapSense_1_IS_DIPLEX_SLIDER)
1465:Generated_Source\PSoC4/CapSense_1_CSHL.c ****                             curPos = diplex[i];
1466:Generated_Source\PSoC4/CapSense_1_CSHL.c ****                         #endif /* (CapSense_1_IS_DIPLEX_SLIDER && CapSense_1_IS_NON_DIPLEX_SLIDER) 
1467:Generated_Source\PSoC4/CapSense_1_CSHL.c ****                         /* Looking for greater element within centroid */
1468:Generated_Source\PSoC4/CapSense_1_CSHL.c ****                         if(startOfSlider[curPos] > fingerThreshold)
1469:Generated_Source\PSoC4/CapSense_1_CSHL.c ****                         {
1470:Generated_Source\PSoC4/CapSense_1_CSHL.c ****                             if(startOfSlider[curPos] > temp)
1471:Generated_Source\PSoC4/CapSense_1_CSHL.c ****                             {
1472:Generated_Source\PSoC4/CapSense_1_CSHL.c ****                                 maximum = i;
1473:Generated_Source\PSoC4/CapSense_1_CSHL.c ****                                 temp = startOfSlider[curPos];
1474:Generated_Source\PSoC4/CapSense_1_CSHL.c ****                             }
1475:Generated_Source\PSoC4/CapSense_1_CSHL.c ****                         }
1476:Generated_Source\PSoC4/CapSense_1_CSHL.c ****                     }
1477:Generated_Source\PSoC4/CapSense_1_CSHL.c ****                 }
1478:Generated_Source\PSoC4/CapSense_1_CSHL.c ****         #else
1479:Generated_Source\PSoC4/CapSense_1_CSHL.c ****             for (i = 0u; i < count; i++)
1480:Generated_Source\PSoC4/CapSense_1_CSHL.c ****             {
1481:Generated_Source\PSoC4/CapSense_1_CSHL.c ****                 /* Looking for greater element within centroid */
1482:Generated_Source\PSoC4/CapSense_1_CSHL.c ****                 if(startOfSlider[i] > fingerThreshold)
1483:Generated_Source\PSoC4/CapSense_1_CSHL.c ****                 {
1484:Generated_Source\PSoC4/CapSense_1_CSHL.c ****                     if(startOfSlider[i] > temp)
1485:Generated_Source\PSoC4/CapSense_1_CSHL.c ****                     {
1486:Generated_Source\PSoC4/CapSense_1_CSHL.c ****                         maximum = i;
1487:Generated_Source\PSoC4/CapSense_1_CSHL.c ****                         temp = startOfSlider[i];
1488:Generated_Source\PSoC4/CapSense_1_CSHL.c ****                     }
1489:Generated_Source\PSoC4/CapSense_1_CSHL.c ****                 }
1490:Generated_Source\PSoC4/CapSense_1_CSHL.c ****             }
1491:Generated_Source\PSoC4/CapSense_1_CSHL.c ****         #endif /* (CapSense_1_IS_DIPLEX_SLIDER) */
1492:Generated_Source\PSoC4/CapSense_1_CSHL.c ****         return (maximum);
1493:Generated_Source\PSoC4/CapSense_1_CSHL.c ****     }
1494:Generated_Source\PSoC4/CapSense_1_CSHL.c **** 
1495:Generated_Source\PSoC4/CapSense_1_CSHL.c **** 
1496:Generated_Source\PSoC4/CapSense_1_CSHL.c ****     /*******************************************************************************
1497:Generated_Source\PSoC4/CapSense_1_CSHL.c ****     * Function Name: CapSense_1_CalcCentroid
1498:Generated_Source\PSoC4/CapSense_1_CSHL.c ****     ********************************************************************************
1499:Generated_Source\PSoC4/CapSense_1_CSHL.c ****     *
1500:Generated_Source\PSoC4/CapSense_1_CSHL.c ****     * Summary:
1501:Generated_Source\PSoC4/CapSense_1_CSHL.c ****     *  Returns a position value calculated according to the index of the maximum element and API
ARM GAS  C:\Users\IGOR~1.HOL\AppData\Local\Temp\cc8IZ2FY.s 			page 60


1502:Generated_Source\PSoC4/CapSense_1_CSHL.c ****     *  resolution.
1503:Generated_Source\PSoC4/CapSense_1_CSHL.c ****     *
1504:Generated_Source\PSoC4/CapSense_1_CSHL.c ****     * Parameters:
1505:Generated_Source\PSoC4/CapSense_1_CSHL.c ****     *  type:  widget type.
1506:Generated_Source\PSoC4/CapSense_1_CSHL.c ****     *  diplex:  pointer to diplex table.
1507:Generated_Source\PSoC4/CapSense_1_CSHL.c ****     *  maximum:  Index of maximum element within centroid.
1508:Generated_Source\PSoC4/CapSense_1_CSHL.c ****     *  offset:   Start index of centroid in CapSense_1_sensorSignal[] array.
1509:Generated_Source\PSoC4/CapSense_1_CSHL.c ****     *  count:    Number of elements within centroid.
1510:Generated_Source\PSoC4/CapSense_1_CSHL.c ****     *  resolution:  multiplicator calculated according to centroid type and
1511:Generated_Source\PSoC4/CapSense_1_CSHL.c ****     *  API resolution.
1512:Generated_Source\PSoC4/CapSense_1_CSHL.c ****     *  noiseThreshold:  Noise threshold.
1513:Generated_Source\PSoC4/CapSense_1_CSHL.c ****     *
1514:Generated_Source\PSoC4/CapSense_1_CSHL.c ****     * Return:
1515:Generated_Source\PSoC4/CapSense_1_CSHL.c ****     *  Returns a position value of the slider.
1516:Generated_Source\PSoC4/CapSense_1_CSHL.c ****     *
1517:Generated_Source\PSoC4/CapSense_1_CSHL.c ****     * Side Effects:
1518:Generated_Source\PSoC4/CapSense_1_CSHL.c ****     *  None
1519:Generated_Source\PSoC4/CapSense_1_CSHL.c ****     *
1520:Generated_Source\PSoC4/CapSense_1_CSHL.c ****     *******************************************************************************/
1521:Generated_Source\PSoC4/CapSense_1_CSHL.c **** #if (CapSense_1_TOTAL_TRACKPAD_GESTURES_COUNT > 0u)
1522:Generated_Source\PSoC4/CapSense_1_CSHL.c ****     uint8 CapSense_1_CalcCentroid(uint8 maximum, uint8 offset,
1523:Generated_Source\PSoC4/CapSense_1_CSHL.c ****                                         uint8 count, uint32 resolution, uint8 noiseThreshold)
1524:Generated_Source\PSoC4/CapSense_1_CSHL.c **** #else
1525:Generated_Source\PSoC4/CapSense_1_CSHL.c ****     uint8 CapSense_1_CalcCentroid(uint8 maximum, uint8 offset,
1526:Generated_Source\PSoC4/CapSense_1_CSHL.c ****                                         uint8 count, uint16 resolution, uint8 noiseThreshold)
1527:Generated_Source\PSoC4/CapSense_1_CSHL.c **** #endif /* (CapSense_1_TOTAL_TRACKPAD_GESTURES_COUNT > 0u) */
1528:Generated_Source\PSoC4/CapSense_1_CSHL.c ****     {
1529:Generated_Source\PSoC4/CapSense_1_CSHL.c ****         #if ((CapSense_1_TOTAL_LINEAR_SLIDERS_COUNT > 0u) || (CapSense_1_TOTAL_TOUCH_PADS_BASIC_COU
1530:Generated_Source\PSoC4/CapSense_1_CSHL.c ****             uint8 posPrev;
1531:Generated_Source\PSoC4/CapSense_1_CSHL.c ****             uint8 posNext;
1532:Generated_Source\PSoC4/CapSense_1_CSHL.c ****         #endif /* ((CapSense_1_TOTAL_LINEAR_SLIDERS_COUNT>0u) || (CapSense_1_TOTAL_TOUCH_PADS_BASIC
1533:Generated_Source\PSoC4/CapSense_1_CSHL.c **** 
1534:Generated_Source\PSoC4/CapSense_1_CSHL.c ****         /* Helps during centroid calculation */
1535:Generated_Source\PSoC4/CapSense_1_CSHL.c ****         #if (CapSense_1_TOTAL_CENTROIDS_BASIC_COUNT)
1536:Generated_Source\PSoC4/CapSense_1_CSHL.c ****             static uint8 CapSense_1_centroid[3u];
1537:Generated_Source\PSoC4/CapSense_1_CSHL.c ****         #endif  /* (CapSense_1_TOTAL_CENTROIDS_BASIC_COUNT) */
1538:Generated_Source\PSoC4/CapSense_1_CSHL.c **** 
1539:Generated_Source\PSoC4/CapSense_1_CSHL.c ****         #if (CapSense_1_IS_DIPLEX_SLIDER)
1540:Generated_Source\PSoC4/CapSense_1_CSHL.c ****             uint8 pos;
1541:Generated_Source\PSoC4/CapSense_1_CSHL.c ****         #endif /* (CapSense_1_IS_DIPLEX_SLIDER) */
1542:Generated_Source\PSoC4/CapSense_1_CSHL.c **** 
1543:Generated_Source\PSoC4/CapSense_1_CSHL.c ****         uint8 position;
1544:Generated_Source\PSoC4/CapSense_1_CSHL.c ****         uint32 numerator;
1545:Generated_Source\PSoC4/CapSense_1_CSHL.c ****         int32 denominator;
1546:Generated_Source\PSoC4/CapSense_1_CSHL.c **** 
1547:Generated_Source\PSoC4/CapSense_1_CSHL.c ****         uint8  *startOfSlider = &CapSense_1_sensorSignal[offset];
1548:Generated_Source\PSoC4/CapSense_1_CSHL.c **** 
1549:Generated_Source\PSoC4/CapSense_1_CSHL.c ****         #if ((CapSense_1_TOTAL_LINEAR_SLIDERS_COUNT > 0u) || (CapSense_1_TOTAL_TOUCH_PADS_BASIC_COU
1550:Generated_Source\PSoC4/CapSense_1_CSHL.c ****             posPrev = 0u;
1551:Generated_Source\PSoC4/CapSense_1_CSHL.c ****         #endif /* ((CapSense_1_TOTAL_LINEAR_SLIDERS_COUNT>0u) || (CapSense_1_TOTAL_TOUCH_PADS_BASIC
1552:Generated_Source\PSoC4/CapSense_1_CSHL.c **** 
1553:Generated_Source\PSoC4/CapSense_1_CSHL.c ****         #if (CapSense_1_ADD_SLIDER_TYPE)
1554:Generated_Source\PSoC4/CapSense_1_CSHL.c ****             if(type == CapSense_1_TYPE_RADIAL_SLIDER)
1555:Generated_Source\PSoC4/CapSense_1_CSHL.c ****             {
1556:Generated_Source\PSoC4/CapSense_1_CSHL.c ****         #endif /* (CapSense_1_ADD_SLIDER_TYPE) */
1557:Generated_Source\PSoC4/CapSense_1_CSHL.c **** 
1558:Generated_Source\PSoC4/CapSense_1_CSHL.c ****             #if (CapSense_1_TOTAL_RADIAL_SLIDERS_COUNT > 0u)
ARM GAS  C:\Users\IGOR~1.HOL\AppData\Local\Temp\cc8IZ2FY.s 			page 61


1559:Generated_Source\PSoC4/CapSense_1_CSHL.c ****                 /* Copy Signal to the centroid array */
1560:Generated_Source\PSoC4/CapSense_1_CSHL.c ****                 CapSense_1_centroid[CapSense_1_POS] = startOfSlider[maximum];
1561:Generated_Source\PSoC4/CapSense_1_CSHL.c **** 
1562:Generated_Source\PSoC4/CapSense_1_CSHL.c ****                 /* Check borders for ROTARY Slider */
1563:Generated_Source\PSoC4/CapSense_1_CSHL.c ****                 if (maximum == 0u)                   /* Start of centroid */
1564:Generated_Source\PSoC4/CapSense_1_CSHL.c ****                 {
1565:Generated_Source\PSoC4/CapSense_1_CSHL.c ****                     CapSense_1_centroid[CapSense_1_POS_PREV] = startOfSlider[count - 1u];
1566:Generated_Source\PSoC4/CapSense_1_CSHL.c ****                     CapSense_1_centroid[CapSense_1_POS_NEXT] = startOfSlider[1u];
1567:Generated_Source\PSoC4/CapSense_1_CSHL.c ****                 }
1568:Generated_Source\PSoC4/CapSense_1_CSHL.c ****                 else if (maximum == (count - 1u))    /* End of centroid */
1569:Generated_Source\PSoC4/CapSense_1_CSHL.c ****                 {
1570:Generated_Source\PSoC4/CapSense_1_CSHL.c ****                     CapSense_1_centroid[CapSense_1_POS_PREV] = startOfSlider[maximum - 1u];
1571:Generated_Source\PSoC4/CapSense_1_CSHL.c ****                     CapSense_1_centroid[CapSense_1_POS_NEXT] = startOfSlider[0u];
1572:Generated_Source\PSoC4/CapSense_1_CSHL.c ****                 }
1573:Generated_Source\PSoC4/CapSense_1_CSHL.c ****                 else                                /* Not first Not last */
1574:Generated_Source\PSoC4/CapSense_1_CSHL.c ****                 {
1575:Generated_Source\PSoC4/CapSense_1_CSHL.c ****                     CapSense_1_centroid[CapSense_1_POS_PREV] = startOfSlider[maximum - 1u];
1576:Generated_Source\PSoC4/CapSense_1_CSHL.c ****                     CapSense_1_centroid[CapSense_1_POS_NEXT] = startOfSlider[maximum + 1u];
1577:Generated_Source\PSoC4/CapSense_1_CSHL.c ****                 }
1578:Generated_Source\PSoC4/CapSense_1_CSHL.c ****             #endif /* (CapSense_1_TOTAL_RADIAL_SLIDERS_COUNT > 0u) */
1579:Generated_Source\PSoC4/CapSense_1_CSHL.c **** 
1580:Generated_Source\PSoC4/CapSense_1_CSHL.c ****         #if (CapSense_1_ADD_SLIDER_TYPE)
1581:Generated_Source\PSoC4/CapSense_1_CSHL.c ****             }
1582:Generated_Source\PSoC4/CapSense_1_CSHL.c ****             else
1583:Generated_Source\PSoC4/CapSense_1_CSHL.c ****             {
1584:Generated_Source\PSoC4/CapSense_1_CSHL.c ****         #endif /* (CapSense_1_ADD_SLIDER_TYPE) */
1585:Generated_Source\PSoC4/CapSense_1_CSHL.c **** 
1586:Generated_Source\PSoC4/CapSense_1_CSHL.c ****             #if ((CapSense_1_TOTAL_LINEAR_SLIDERS_COUNT > 0u) || (CapSense_1_TOTAL_TOUCH_PADS_BASIC
1587:Generated_Source\PSoC4/CapSense_1_CSHL.c ****                 #if (CapSense_1_IS_DIPLEX_SLIDER && CapSense_1_IS_NON_DIPLEX_SLIDER)
1588:Generated_Source\PSoC4/CapSense_1_CSHL.c ****                     /* Calculate next and previous near to maximum */
1589:Generated_Source\PSoC4/CapSense_1_CSHL.c ****                     if(diplex == 0u)
1590:Generated_Source\PSoC4/CapSense_1_CSHL.c ****                     {
1591:Generated_Source\PSoC4/CapSense_1_CSHL.c ****                         pos     = maximum;
1592:Generated_Source\PSoC4/CapSense_1_CSHL.c ****                         posPrev = maximum - 1u;
1593:Generated_Source\PSoC4/CapSense_1_CSHL.c ****                         posNext = maximum + 1u;
1594:Generated_Source\PSoC4/CapSense_1_CSHL.c ****                     }
1595:Generated_Source\PSoC4/CapSense_1_CSHL.c ****                     else
1596:Generated_Source\PSoC4/CapSense_1_CSHL.c ****                     {
1597:Generated_Source\PSoC4/CapSense_1_CSHL.c ****                         pos     = diplex[maximum];
1598:Generated_Source\PSoC4/CapSense_1_CSHL.c ****                         posPrev = diplex[maximum - 1u];
1599:Generated_Source\PSoC4/CapSense_1_CSHL.c ****                         posNext = diplex[maximum + 1u];
1600:Generated_Source\PSoC4/CapSense_1_CSHL.c ****                         count <<= 1u;
1601:Generated_Source\PSoC4/CapSense_1_CSHL.c ****                     }
1602:Generated_Source\PSoC4/CapSense_1_CSHL.c ****                 #elif (CapSense_1_IS_DIPLEX_SLIDER)
1603:Generated_Source\PSoC4/CapSense_1_CSHL.c ****                     /* Calculate next and previous near to maximum */
1604:Generated_Source\PSoC4/CapSense_1_CSHL.c ****                     pos     = diplex[maximum];
1605:Generated_Source\PSoC4/CapSense_1_CSHL.c ****                     posPrev = diplex[maximum - 1u];
1606:Generated_Source\PSoC4/CapSense_1_CSHL.c ****                     posNext = diplex[maximum + 1u];
1607:Generated_Source\PSoC4/CapSense_1_CSHL.c ****                     count <<= 1u;
1608:Generated_Source\PSoC4/CapSense_1_CSHL.c ****                 #else
1609:Generated_Source\PSoC4/CapSense_1_CSHL.c ****                     /* Calculate next and previous near to maximum */
1610:Generated_Source\PSoC4/CapSense_1_CSHL.c ****                     if (maximum >= 1u)
1611:Generated_Source\PSoC4/CapSense_1_CSHL.c ****                     {
1612:Generated_Source\PSoC4/CapSense_1_CSHL.c ****                         posPrev = maximum - 1u;
1613:Generated_Source\PSoC4/CapSense_1_CSHL.c ****                     }
1614:Generated_Source\PSoC4/CapSense_1_CSHL.c ****                     posNext = maximum + 1u;
1615:Generated_Source\PSoC4/CapSense_1_CSHL.c ****                 #endif /* (CapSense_1_IS_DIPLEX_SLIDER && CapSense_1_IS_NON_DIPLEX_SLIDER) */
ARM GAS  C:\Users\IGOR~1.HOL\AppData\Local\Temp\cc8IZ2FY.s 			page 62


1616:Generated_Source\PSoC4/CapSense_1_CSHL.c **** 
1617:Generated_Source\PSoC4/CapSense_1_CSHL.c ****                 /* Copy Signal to the centroid array */
1618:Generated_Source\PSoC4/CapSense_1_CSHL.c ****                 #if (CapSense_1_IS_DIPLEX_SLIDER)
1619:Generated_Source\PSoC4/CapSense_1_CSHL.c ****                     CapSense_1_centroid[CapSense_1_POS] = startOfSlider[pos];
1620:Generated_Source\PSoC4/CapSense_1_CSHL.c ****                 #else
1621:Generated_Source\PSoC4/CapSense_1_CSHL.c ****                     CapSense_1_centroid[CapSense_1_POS] = startOfSlider[maximum];
1622:Generated_Source\PSoC4/CapSense_1_CSHL.c ****                 #endif /* (CapSense_1_IS_DIPLEX_SLIDER) */
1623:Generated_Source\PSoC4/CapSense_1_CSHL.c **** 
1624:Generated_Source\PSoC4/CapSense_1_CSHL.c ****                 /* Check borders for LINEAR Slider */
1625:Generated_Source\PSoC4/CapSense_1_CSHL.c ****                 if (maximum == 0u)                   /* Start of centroid */
1626:Generated_Source\PSoC4/CapSense_1_CSHL.c ****                 {
1627:Generated_Source\PSoC4/CapSense_1_CSHL.c ****                     CapSense_1_centroid[CapSense_1_POS_PREV] = 0u;
1628:Generated_Source\PSoC4/CapSense_1_CSHL.c ****                     CapSense_1_centroid[CapSense_1_POS_NEXT] = startOfSlider[posNext];
1629:Generated_Source\PSoC4/CapSense_1_CSHL.c ****                 }
1630:Generated_Source\PSoC4/CapSense_1_CSHL.c ****                 else if (maximum == ((count) - 1u)) /* End of centroid */
1631:Generated_Source\PSoC4/CapSense_1_CSHL.c ****                 {
1632:Generated_Source\PSoC4/CapSense_1_CSHL.c ****                     CapSense_1_centroid[CapSense_1_POS_PREV] = startOfSlider[posPrev];
1633:Generated_Source\PSoC4/CapSense_1_CSHL.c ****                     CapSense_1_centroid[CapSense_1_POS_NEXT] = 0u;
1634:Generated_Source\PSoC4/CapSense_1_CSHL.c ****                 }
1635:Generated_Source\PSoC4/CapSense_1_CSHL.c ****                 else                                /* Not first Not last */
1636:Generated_Source\PSoC4/CapSense_1_CSHL.c ****                 {
1637:Generated_Source\PSoC4/CapSense_1_CSHL.c ****                     CapSense_1_centroid[CapSense_1_POS_PREV] = startOfSlider[posPrev];
1638:Generated_Source\PSoC4/CapSense_1_CSHL.c ****                     CapSense_1_centroid[CapSense_1_POS_NEXT] = startOfSlider[posNext];
1639:Generated_Source\PSoC4/CapSense_1_CSHL.c ****                 }
1640:Generated_Source\PSoC4/CapSense_1_CSHL.c ****             #endif /* ((CapSense_1_TOTAL_LINEAR_SLIDERS_COUNT>0u)||(CapSense_1_TOTAL_TOUCH_PADS_BAS
1641:Generated_Source\PSoC4/CapSense_1_CSHL.c **** 
1642:Generated_Source\PSoC4/CapSense_1_CSHL.c ****         #if (CapSense_1_ADD_SLIDER_TYPE)
1643:Generated_Source\PSoC4/CapSense_1_CSHL.c ****             }
1644:Generated_Source\PSoC4/CapSense_1_CSHL.c ****         #endif /* (CapSense_1_ADD_SLIDER_TYPE) */
1645:Generated_Source\PSoC4/CapSense_1_CSHL.c **** 
1646:Generated_Source\PSoC4/CapSense_1_CSHL.c ****         /* Subtract noiseThreshold */
1647:Generated_Source\PSoC4/CapSense_1_CSHL.c ****         if(CapSense_1_centroid[CapSense_1_POS_PREV] > noiseThreshold)
1648:Generated_Source\PSoC4/CapSense_1_CSHL.c ****         {
1649:Generated_Source\PSoC4/CapSense_1_CSHL.c ****             CapSense_1_centroid[CapSense_1_POS_PREV] -= noiseThreshold;
1650:Generated_Source\PSoC4/CapSense_1_CSHL.c ****         }
1651:Generated_Source\PSoC4/CapSense_1_CSHL.c ****         else
1652:Generated_Source\PSoC4/CapSense_1_CSHL.c ****         {
1653:Generated_Source\PSoC4/CapSense_1_CSHL.c ****             CapSense_1_centroid[CapSense_1_POS_PREV] = 0u;
1654:Generated_Source\PSoC4/CapSense_1_CSHL.c ****         }
1655:Generated_Source\PSoC4/CapSense_1_CSHL.c **** 
1656:Generated_Source\PSoC4/CapSense_1_CSHL.c ****         /* Maximum always greater than fingerThreshold, so greater than noiseThreshold */
1657:Generated_Source\PSoC4/CapSense_1_CSHL.c ****         CapSense_1_centroid[CapSense_1_POS] -= noiseThreshold;
1658:Generated_Source\PSoC4/CapSense_1_CSHL.c **** 
1659:Generated_Source\PSoC4/CapSense_1_CSHL.c ****         /* Subtract noiseThreshold */
1660:Generated_Source\PSoC4/CapSense_1_CSHL.c ****         if(CapSense_1_centroid[CapSense_1_POS_NEXT] > noiseThreshold)
1661:Generated_Source\PSoC4/CapSense_1_CSHL.c ****         {
1662:Generated_Source\PSoC4/CapSense_1_CSHL.c ****             CapSense_1_centroid[CapSense_1_POS_NEXT] -= noiseThreshold;
1663:Generated_Source\PSoC4/CapSense_1_CSHL.c ****         }
1664:Generated_Source\PSoC4/CapSense_1_CSHL.c ****         else
1665:Generated_Source\PSoC4/CapSense_1_CSHL.c ****         {
1666:Generated_Source\PSoC4/CapSense_1_CSHL.c ****             CapSense_1_centroid[CapSense_1_POS_NEXT] = 0u;
1667:Generated_Source\PSoC4/CapSense_1_CSHL.c ****         }
1668:Generated_Source\PSoC4/CapSense_1_CSHL.c **** 
1669:Generated_Source\PSoC4/CapSense_1_CSHL.c **** 
1670:Generated_Source\PSoC4/CapSense_1_CSHL.c ****         /* Si+1 - Si-1 */
1671:Generated_Source\PSoC4/CapSense_1_CSHL.c ****         numerator = (uint32) CapSense_1_centroid[CapSense_1_POS_NEXT] -
1672:Generated_Source\PSoC4/CapSense_1_CSHL.c ****                     (uint32) CapSense_1_centroid[CapSense_1_POS_PREV];
ARM GAS  C:\Users\IGOR~1.HOL\AppData\Local\Temp\cc8IZ2FY.s 			page 63


1673:Generated_Source\PSoC4/CapSense_1_CSHL.c **** 
1674:Generated_Source\PSoC4/CapSense_1_CSHL.c ****         /* Si+1 + Si + Si-1 */
1675:Generated_Source\PSoC4/CapSense_1_CSHL.c ****         denominator = (int32) CapSense_1_centroid[CapSense_1_POS_PREV] +
1676:Generated_Source\PSoC4/CapSense_1_CSHL.c ****                       (int32) CapSense_1_centroid[CapSense_1_POS] +
1677:Generated_Source\PSoC4/CapSense_1_CSHL.c ****                       (int32) CapSense_1_centroid[CapSense_1_POS_NEXT];
1678:Generated_Source\PSoC4/CapSense_1_CSHL.c **** 
1679:Generated_Source\PSoC4/CapSense_1_CSHL.c ****         /* (numerator/denominator) + maximum */
1680:Generated_Source\PSoC4/CapSense_1_CSHL.c ****         denominator = (((int32)(uint32)((uint32)numerator << 8u)/denominator) + (int32)(uint32)((ui
1681:Generated_Source\PSoC4/CapSense_1_CSHL.c **** 
1682:Generated_Source\PSoC4/CapSense_1_CSHL.c ****         #if(CapSense_1_TOTAL_RADIAL_SLIDERS_COUNT > 0u)
1683:Generated_Source\PSoC4/CapSense_1_CSHL.c ****             /* Only required for RADIAL Slider */
1684:Generated_Source\PSoC4/CapSense_1_CSHL.c ****             if(denominator < 0)
1685:Generated_Source\PSoC4/CapSense_1_CSHL.c ****             {
1686:Generated_Source\PSoC4/CapSense_1_CSHL.c ****                 denominator += (int32)((uint16)((uint16) count << 8u));
1687:Generated_Source\PSoC4/CapSense_1_CSHL.c ****             }
1688:Generated_Source\PSoC4/CapSense_1_CSHL.c ****         #endif /* (CapSense_1_TOTAL_RADIAL_SLIDERS_COUNT > 0u) */
1689:Generated_Source\PSoC4/CapSense_1_CSHL.c **** 
1690:Generated_Source\PSoC4/CapSense_1_CSHL.c ****         denominator *= (int16)resolution;
1691:Generated_Source\PSoC4/CapSense_1_CSHL.c **** 
1692:Generated_Source\PSoC4/CapSense_1_CSHL.c ****         /* Round result and put it to uint8 */
1693:Generated_Source\PSoC4/CapSense_1_CSHL.c ****         position = ((uint8) HI16((uint32)denominator + CapSense_1_CENTROID_ROUND_VALUE));
1694:Generated_Source\PSoC4/CapSense_1_CSHL.c **** 
1695:Generated_Source\PSoC4/CapSense_1_CSHL.c ****         return (position);
1696:Generated_Source\PSoC4/CapSense_1_CSHL.c ****     }
1697:Generated_Source\PSoC4/CapSense_1_CSHL.c **** #endif /* (CapSense_1_TOTAL_CENTROIDS_BASIC_COUNT) */
1698:Generated_Source\PSoC4/CapSense_1_CSHL.c **** 
1699:Generated_Source\PSoC4/CapSense_1_CSHL.c **** 
1700:Generated_Source\PSoC4/CapSense_1_CSHL.c **** #if((CapSense_1_TOTAL_RADIAL_SLIDERS_COUNT > 0u) || (CapSense_1_TOTAL_LINEAR_SLIDERS_COUNT > 0u))
1701:Generated_Source\PSoC4/CapSense_1_CSHL.c ****     /*******************************************************************************
1702:Generated_Source\PSoC4/CapSense_1_CSHL.c ****     * Function Name: CapSense_1_GetCentroidPos
1703:Generated_Source\PSoC4/CapSense_1_CSHL.c ****     ********************************************************************************
1704:Generated_Source\PSoC4/CapSense_1_CSHL.c ****     *
1705:Generated_Source\PSoC4/CapSense_1_CSHL.c ****     * Summary:
1706:Generated_Source\PSoC4/CapSense_1_CSHL.c ****     *  Checks the CapSense_1_Signal[ ] array for a centroid within
1707:Generated_Source\PSoC4/CapSense_1_CSHL.c ****     *  a slider specified range. The centroid position is calculated according to the resolution
1708:Generated_Source\PSoC4/CapSense_1_CSHL.c ****     *  specified in the CapSense customizer. The position filters are applied to the
1709:Generated_Source\PSoC4/CapSense_1_CSHL.c ****     *  result if enabled.
1710:Generated_Source\PSoC4/CapSense_1_CSHL.c ****     *
1711:Generated_Source\PSoC4/CapSense_1_CSHL.c ****     * Parameters:
1712:Generated_Source\PSoC4/CapSense_1_CSHL.c ****     *  widget:  Widget number.
1713:Generated_Source\PSoC4/CapSense_1_CSHL.c ****     *  For every linear slider widget there are defines in this format:
1714:Generated_Source\PSoC4/CapSense_1_CSHL.c ****     *  #define CapSense_1_"widget_name"__LS           5
1715:Generated_Source\PSoC4/CapSense_1_CSHL.c ****     *
1716:Generated_Source\PSoC4/CapSense_1_CSHL.c ****     * Return:
1717:Generated_Source\PSoC4/CapSense_1_CSHL.c ****     *  Returns a position value of the linear slider.
1718:Generated_Source\PSoC4/CapSense_1_CSHL.c ****     *
1719:Generated_Source\PSoC4/CapSense_1_CSHL.c ****     * Global Variables:
1720:Generated_Source\PSoC4/CapSense_1_CSHL.c ****     *  None
1721:Generated_Source\PSoC4/CapSense_1_CSHL.c ****     *
1722:Generated_Source\PSoC4/CapSense_1_CSHL.c ****     * Side Effects:
1723:Generated_Source\PSoC4/CapSense_1_CSHL.c ****     *  If any sensor within the slider widget is active, the function returns values
1724:Generated_Source\PSoC4/CapSense_1_CSHL.c ****     *  from zero to the API resolution value set in the CapSense customizer. If no
1725:Generated_Source\PSoC4/CapSense_1_CSHL.c ****     *  sensors are active, the function returns 0xFFFF. If an error occurs during
1726:Generated_Source\PSoC4/CapSense_1_CSHL.c ****     *  execution of the centroid/diplexing algorithm, the function returns 0xFFFF.
1727:Generated_Source\PSoC4/CapSense_1_CSHL.c ****     *  There are no checks of the widget type argument provided to this function.
1728:Generated_Source\PSoC4/CapSense_1_CSHL.c ****     *  The unproper widget type provided will cause unexpected position calculations.
1729:Generated_Source\PSoC4/CapSense_1_CSHL.c ****     *
ARM GAS  C:\Users\IGOR~1.HOL\AppData\Local\Temp\cc8IZ2FY.s 			page 64


1730:Generated_Source\PSoC4/CapSense_1_CSHL.c ****     * Note:
1731:Generated_Source\PSoC4/CapSense_1_CSHL.c ****     *  If noise counts on the slider segments are greater than the noise
1732:Generated_Source\PSoC4/CapSense_1_CSHL.c ****     *  threshold, this subroutine may generate a false centroid result. The noise
1733:Generated_Source\PSoC4/CapSense_1_CSHL.c ****     *  threshold should be set carefully (high enough above the noise level) so
1734:Generated_Source\PSoC4/CapSense_1_CSHL.c ****     *  that noise will not generate a false centroid.
1735:Generated_Source\PSoC4/CapSense_1_CSHL.c ****     *******************************************************************************/
1736:Generated_Source\PSoC4/CapSense_1_CSHL.c ****     uint16 CapSense_1_GetCentroidPos(uint32 widget)
1737:Generated_Source\PSoC4/CapSense_1_CSHL.c ****     {
1738:Generated_Source\PSoC4/CapSense_1_CSHL.c ****         #if (CapSense_1_IS_DIPLEX_SLIDER)
1739:Generated_Source\PSoC4/CapSense_1_CSHL.c ****             const uint8 *diplex;
1740:Generated_Source\PSoC4/CapSense_1_CSHL.c ****         #endif /* (CapSense_1_IS_DIPLEX_SLIDER) */
1741:Generated_Source\PSoC4/CapSense_1_CSHL.c **** 
1742:Generated_Source\PSoC4/CapSense_1_CSHL.c ****         #if (0u != CapSense_1_LINEAR_SLIDERS_POS_FILTERS_MASK)
1743:Generated_Source\PSoC4/CapSense_1_CSHL.c ****             uint8 posIndex;
1744:Generated_Source\PSoC4/CapSense_1_CSHL.c ****             uint8 firstTimeIndex = CapSense_1_posFiltersData[widget];
1745:Generated_Source\PSoC4/CapSense_1_CSHL.c ****             uint8 posFiltersMask = CapSense_1_posFiltersMask[widget];
1746:Generated_Source\PSoC4/CapSense_1_CSHL.c ****         #endif /* (0u != CapSense_1_LINEAR_SLIDERS_POS_FILTERS_MASK) */
1747:Generated_Source\PSoC4/CapSense_1_CSHL.c **** 
1748:Generated_Source\PSoC4/CapSense_1_CSHL.c ****         #if ((0u != (CapSense_1_MEDIAN_FILTER & CapSense_1_LINEAR_SLIDERS_POS_FILTERS_MASK)) || \
1749:Generated_Source\PSoC4/CapSense_1_CSHL.c ****              (0u != (CapSense_1_AVERAGING_FILTER & CapSense_1_LINEAR_SLIDERS_POS_FILTERS_MASK)))
1750:Generated_Source\PSoC4/CapSense_1_CSHL.c ****             uint8 tempPos;
1751:Generated_Source\PSoC4/CapSense_1_CSHL.c ****         #endif /* ((0u != (CapSense_1_MEDIAN_FILTER & CapSense_1_LINEAR_SLIDERS_POS_FILTERS_MASK)) 
1752:Generated_Source\PSoC4/CapSense_1_CSHL.c ****                *   (0u != (CapSense_1_AVERAGING_FILTER & CapSense_1_LINEAR_SLIDERS_POS_FILTERS_MASK
1753:Generated_Source\PSoC4/CapSense_1_CSHL.c ****                */
1754:Generated_Source\PSoC4/CapSense_1_CSHL.c **** 
1755:Generated_Source\PSoC4/CapSense_1_CSHL.c ****         uint8 maximum;
1756:Generated_Source\PSoC4/CapSense_1_CSHL.c ****         uint16 position;
1757:Generated_Source\PSoC4/CapSense_1_CSHL.c ****         uint8 offset = CapSense_1_rawDataIndex[widget];
1758:Generated_Source\PSoC4/CapSense_1_CSHL.c ****         uint8 count = CapSense_1_numberOfSensors[widget];
1759:Generated_Source\PSoC4/CapSense_1_CSHL.c **** 
1760:Generated_Source\PSoC4/CapSense_1_CSHL.c ****         #if (CapSense_1_IS_DIPLEX_SLIDER)
1761:Generated_Source\PSoC4/CapSense_1_CSHL.c ****             if(widget < CapSense_1_TOTAL_DIPLEXED_SLIDERS_COUNT)
1762:Generated_Source\PSoC4/CapSense_1_CSHL.c ****             {
1763:Generated_Source\PSoC4/CapSense_1_CSHL.c ****                 maximum = CapSense_1_diplexTable[widget];
1764:Generated_Source\PSoC4/CapSense_1_CSHL.c ****                 diplex = &CapSense_1_diplexTable[maximum];
1765:Generated_Source\PSoC4/CapSense_1_CSHL.c ****             }
1766:Generated_Source\PSoC4/CapSense_1_CSHL.c ****             else
1767:Generated_Source\PSoC4/CapSense_1_CSHL.c ****             {
1768:Generated_Source\PSoC4/CapSense_1_CSHL.c ****                 diplex = 0u;
1769:Generated_Source\PSoC4/CapSense_1_CSHL.c ****             }
1770:Generated_Source\PSoC4/CapSense_1_CSHL.c ****         #endif /* (CapSense_1_IS_DIPLEX_SLIDER) */
1771:Generated_Source\PSoC4/CapSense_1_CSHL.c **** 
1772:Generated_Source\PSoC4/CapSense_1_CSHL.c ****         /* Find Maximum within centroid */
1773:Generated_Source\PSoC4/CapSense_1_CSHL.c ****         #if (CapSense_1_IS_DIPLEX_SLIDER)
1774:Generated_Source\PSoC4/CapSense_1_CSHL.c ****             maximum = CapSense_1_FindMaximum(offset, count, (uint8)CapSense_1_fingerThreshold[widge
1775:Generated_Source\PSoC4/CapSense_1_CSHL.c ****         #else
1776:Generated_Source\PSoC4/CapSense_1_CSHL.c ****             maximum = CapSense_1_FindMaximum(offset, count, (uint8)CapSense_1_fingerThreshold[widge
1777:Generated_Source\PSoC4/CapSense_1_CSHL.c ****         #endif /* (CapSense_1_IS_DIPLEX_SLIDER) */
1778:Generated_Source\PSoC4/CapSense_1_CSHL.c **** 
1779:Generated_Source\PSoC4/CapSense_1_CSHL.c ****         if (maximum != 0xFFu)
1780:Generated_Source\PSoC4/CapSense_1_CSHL.c ****         {
1781:Generated_Source\PSoC4/CapSense_1_CSHL.c ****             /* Calculate centroid */
1782:Generated_Source\PSoC4/CapSense_1_CSHL.c ****             position = (uint16) CapSense_1_CalcCentroid(maximum,
1783:Generated_Source\PSoC4/CapSense_1_CSHL.c ****                          offset, count, CapSense_1_centroidMult[widget], CapSense_1_noiseThreshold[
1784:Generated_Source\PSoC4/CapSense_1_CSHL.c **** 
1785:Generated_Source\PSoC4/CapSense_1_CSHL.c ****             #if (0u != CapSense_1_LINEAR_SLIDERS_POS_FILTERS_MASK)
1786:Generated_Source\PSoC4/CapSense_1_CSHL.c ****                 /* Check if this linear slider has enabled filters */
ARM GAS  C:\Users\IGOR~1.HOL\AppData\Local\Temp\cc8IZ2FY.s 			page 65


1787:Generated_Source\PSoC4/CapSense_1_CSHL.c ****                 if (0u != (posFiltersMask & CapSense_1_ANY_POS_FILTER))
1788:Generated_Source\PSoC4/CapSense_1_CSHL.c ****                 {
1789:Generated_Source\PSoC4/CapSense_1_CSHL.c ****                     /* Calculate position to store filters data */
1790:Generated_Source\PSoC4/CapSense_1_CSHL.c ****                     posIndex  = firstTimeIndex + 1u;
1791:Generated_Source\PSoC4/CapSense_1_CSHL.c **** 
1792:Generated_Source\PSoC4/CapSense_1_CSHL.c ****                     if (0u == CapSense_1_posFiltersData[firstTimeIndex])
1793:Generated_Source\PSoC4/CapSense_1_CSHL.c ****                     {
1794:Generated_Source\PSoC4/CapSense_1_CSHL.c ****                         /* Init filters */
1795:Generated_Source\PSoC4/CapSense_1_CSHL.c ****                         CapSense_1_posFiltersData[posIndex] = (uint8) position;
1796:Generated_Source\PSoC4/CapSense_1_CSHL.c ****                         #if ((0u != (CapSense_1_MEDIAN_FILTER & \
1797:Generated_Source\PSoC4/CapSense_1_CSHL.c ****                                      CapSense_1_LINEAR_SLIDERS_POS_FILTERS_MASK)) || \
1798:Generated_Source\PSoC4/CapSense_1_CSHL.c ****                              (0u != (CapSense_1_AVERAGING_FILTER & \
1799:Generated_Source\PSoC4/CapSense_1_CSHL.c ****                                      CapSense_1_LINEAR_SLIDERS_POS_FILTERS_MASK)))
1800:Generated_Source\PSoC4/CapSense_1_CSHL.c **** 
1801:Generated_Source\PSoC4/CapSense_1_CSHL.c ****                             if ( (0u != (posFiltersMask & CapSense_1_MEDIAN_FILTER)) ||
1802:Generated_Source\PSoC4/CapSense_1_CSHL.c ****                                  (0u != (posFiltersMask & CapSense_1_AVERAGING_FILTER)) )
1803:Generated_Source\PSoC4/CapSense_1_CSHL.c ****                             {
1804:Generated_Source\PSoC4/CapSense_1_CSHL.c ****                                 CapSense_1_posFiltersData[posIndex + 1u] = (uint8) position;
1805:Generated_Source\PSoC4/CapSense_1_CSHL.c ****                             }
1806:Generated_Source\PSoC4/CapSense_1_CSHL.c ****                         #endif /* ((0u != (CapSense_1_MEDIAN_FILTER & \
1807:Generated_Source\PSoC4/CapSense_1_CSHL.c ****                                *           CapSense_1_LINEAR_SLIDERS_POS_FILTERS_MASK)) || \
1808:Generated_Source\PSoC4/CapSense_1_CSHL.c ****                                *   (0u != (CapSense_1_AVERAGING_FILTER & \
1809:Generated_Source\PSoC4/CapSense_1_CSHL.c ****                                *           CapSense_1_LINEAR_SLIDERS_POS_FILTERS_MASK)))
1810:Generated_Source\PSoC4/CapSense_1_CSHL.c ****                                */
1811:Generated_Source\PSoC4/CapSense_1_CSHL.c **** 
1812:Generated_Source\PSoC4/CapSense_1_CSHL.c ****                         CapSense_1_posFiltersData[firstTimeIndex] = 1u;
1813:Generated_Source\PSoC4/CapSense_1_CSHL.c ****                     }
1814:Generated_Source\PSoC4/CapSense_1_CSHL.c ****                     else
1815:Generated_Source\PSoC4/CapSense_1_CSHL.c ****                     {
1816:Generated_Source\PSoC4/CapSense_1_CSHL.c ****                         /* Do filtering */
1817:Generated_Source\PSoC4/CapSense_1_CSHL.c ****                         #if (0u != (CapSense_1_MEDIAN_FILTER & CapSense_1_LINEAR_SLIDERS_POS_FILTER
1818:Generated_Source\PSoC4/CapSense_1_CSHL.c ****                             if (0u != (posFiltersMask & CapSense_1_MEDIAN_FILTER))
1819:Generated_Source\PSoC4/CapSense_1_CSHL.c ****                             {
1820:Generated_Source\PSoC4/CapSense_1_CSHL.c ****                                 tempPos = (uint8) position;
1821:Generated_Source\PSoC4/CapSense_1_CSHL.c ****                                 position = CapSense_1_MedianFilter(position,
1822:Generated_Source\PSoC4/CapSense_1_CSHL.c ****                                                                 (uint16)CapSense_1_posFiltersData[p
1823:Generated_Source\PSoC4/CapSense_1_CSHL.c ****                                                                 (uint16)CapSense_1_posFiltersData[p
1824:Generated_Source\PSoC4/CapSense_1_CSHL.c ****                                 CapSense_1_posFiltersData[posIndex + 1u] =
1825:Generated_Source\PSoC4/CapSense_1_CSHL.c ****                                                                              CapSense_1_posFiltersD
1826:Generated_Source\PSoC4/CapSense_1_CSHL.c ****                                 CapSense_1_posFiltersData[posIndex] = tempPos;
1827:Generated_Source\PSoC4/CapSense_1_CSHL.c ****                             }
1828:Generated_Source\PSoC4/CapSense_1_CSHL.c ****                         #endif /*(0u != (CapSense_1_MEDIAN_FILTER &
1829:Generated_Source\PSoC4/CapSense_1_CSHL.c ****                                *         CapSense_1_LINEAR_SLIDERS_POS_FILTERS_MASK))
1830:Generated_Source\PSoC4/CapSense_1_CSHL.c ****                                */
1831:Generated_Source\PSoC4/CapSense_1_CSHL.c **** 
1832:Generated_Source\PSoC4/CapSense_1_CSHL.c ****                         #if(0u!=(CapSense_1_AVERAGING_FILTER & CapSense_1_LINEAR_SLIDERS_POS_FILTER
1833:Generated_Source\PSoC4/CapSense_1_CSHL.c ****                             if (0u != (posFiltersMask & CapSense_1_AVERAGING_FILTER))
1834:Generated_Source\PSoC4/CapSense_1_CSHL.c ****                             {
1835:Generated_Source\PSoC4/CapSense_1_CSHL.c ****                                 tempPos = (uint8) position;
1836:Generated_Source\PSoC4/CapSense_1_CSHL.c ****                                 position = CapSense_1_AveragingFilter(position,
1837:Generated_Source\PSoC4/CapSense_1_CSHL.c ****                                                                 (uint16)CapSense_1_posFiltersData[p
1838:Generated_Source\PSoC4/CapSense_1_CSHL.c ****                                                                 (uint16)CapSense_1_posFiltersData[p
1839:Generated_Source\PSoC4/CapSense_1_CSHL.c ****                                 CapSense_1_posFiltersData[posIndex+1u]=CapSense_1_posFiltersData[po
1840:Generated_Source\PSoC4/CapSense_1_CSHL.c ****                                 CapSense_1_posFiltersData[posIndex] = tempPos;
1841:Generated_Source\PSoC4/CapSense_1_CSHL.c ****                             }
1842:Generated_Source\PSoC4/CapSense_1_CSHL.c ****                         #endif /* (0u != (CapSense_1_AVERAGING_FILTER & \
1843:Generated_Source\PSoC4/CapSense_1_CSHL.c ****                                *           CapSense_1_LINEAR_SLIDERS_POS_FILTERS_MASK))
ARM GAS  C:\Users\IGOR~1.HOL\AppData\Local\Temp\cc8IZ2FY.s 			page 66


1844:Generated_Source\PSoC4/CapSense_1_CSHL.c ****                                */
1845:Generated_Source\PSoC4/CapSense_1_CSHL.c **** 
1846:Generated_Source\PSoC4/CapSense_1_CSHL.c ****                         #if (0u != (CapSense_1_IIR2_FILTER & CapSense_1_LINEAR_SLIDERS_POS_FILTERS_
1847:Generated_Source\PSoC4/CapSense_1_CSHL.c ****                             if (0u != (posFiltersMask & CapSense_1_IIR2_FILTER))
1848:Generated_Source\PSoC4/CapSense_1_CSHL.c ****                             {
1849:Generated_Source\PSoC4/CapSense_1_CSHL.c ****                                 position = CapSense_1_IIR2Filter(position,
1850:Generated_Source\PSoC4/CapSense_1_CSHL.c ****                                                                     (uint16)CapSense_1_posFiltersDa
1851:Generated_Source\PSoC4/CapSense_1_CSHL.c ****                                 CapSense_1_posFiltersData[posIndex] = (uint8) position;
1852:Generated_Source\PSoC4/CapSense_1_CSHL.c ****                             }
1853:Generated_Source\PSoC4/CapSense_1_CSHL.c ****                         #endif /* (0u != (CapSense_1_IIR2_FILTER & \
1854:Generated_Source\PSoC4/CapSense_1_CSHL.c ****                                *          CapSense_1_LINEAR_SLIDERS_POS_FILTERS_MASK))
1855:Generated_Source\PSoC4/CapSense_1_CSHL.c ****                                */
1856:Generated_Source\PSoC4/CapSense_1_CSHL.c **** 
1857:Generated_Source\PSoC4/CapSense_1_CSHL.c ****                         #if (0u != (CapSense_1_IIR4_FILTER & CapSense_1_LINEAR_SLIDERS_POS_FILTERS_
1858:Generated_Source\PSoC4/CapSense_1_CSHL.c ****                             if (0u != (posFiltersMask & CapSense_1_IIR4_FILTER))
1859:Generated_Source\PSoC4/CapSense_1_CSHL.c ****                             {
1860:Generated_Source\PSoC4/CapSense_1_CSHL.c ****                                 position = CapSense_1_IIR4Filter(position,
1861:Generated_Source\PSoC4/CapSense_1_CSHL.c ****                                                                     (uint16)CapSense_1_posFiltersDa
1862:Generated_Source\PSoC4/CapSense_1_CSHL.c ****                                 CapSense_1_posFiltersData[posIndex] = (uint8) position;
1863:Generated_Source\PSoC4/CapSense_1_CSHL.c ****                             }
1864:Generated_Source\PSoC4/CapSense_1_CSHL.c ****                         #endif /* (0u != (CapSense_1_IIR4_FILTER & \
1865:Generated_Source\PSoC4/CapSense_1_CSHL.c ****                                *          CapSense_1_LINEAR_SLIDERS_POS_FILTERS_MASK))
1866:Generated_Source\PSoC4/CapSense_1_CSHL.c ****                                */
1867:Generated_Source\PSoC4/CapSense_1_CSHL.c **** 
1868:Generated_Source\PSoC4/CapSense_1_CSHL.c ****                         #if (0u != (CapSense_1_JITTER_FILTER & CapSense_1_LINEAR_SLIDERS_POS_FILTER
1869:Generated_Source\PSoC4/CapSense_1_CSHL.c ****                             if (0u != (posFiltersMask & CapSense_1_JITTER_FILTER))
1870:Generated_Source\PSoC4/CapSense_1_CSHL.c ****                             {
1871:Generated_Source\PSoC4/CapSense_1_CSHL.c ****                                 position = CapSense_1_JitterFilter(position,
1872:Generated_Source\PSoC4/CapSense_1_CSHL.c ****                                                                     (uint16)CapSense_1_posFiltersDa
1873:Generated_Source\PSoC4/CapSense_1_CSHL.c ****                                 CapSense_1_posFiltersData[posIndex] = (uint8) position;
1874:Generated_Source\PSoC4/CapSense_1_CSHL.c ****                             }
1875:Generated_Source\PSoC4/CapSense_1_CSHL.c ****                         #endif /* (0u != (CapSense_1_JITTER_FILTER & \
1876:Generated_Source\PSoC4/CapSense_1_CSHL.c ****                                *           CapSense_1_LINEAR_SLIDERS_POS_FILTERS_MASK))
1877:Generated_Source\PSoC4/CapSense_1_CSHL.c ****                                */
1878:Generated_Source\PSoC4/CapSense_1_CSHL.c ****                     }
1879:Generated_Source\PSoC4/CapSense_1_CSHL.c ****                 }
1880:Generated_Source\PSoC4/CapSense_1_CSHL.c ****             #endif /* (0u != CapSense_1_LINEAR_SLIDERS_POS_FILTERS_MASK) */
1881:Generated_Source\PSoC4/CapSense_1_CSHL.c **** 
1882:Generated_Source\PSoC4/CapSense_1_CSHL.c ****         }
1883:Generated_Source\PSoC4/CapSense_1_CSHL.c ****         else
1884:Generated_Source\PSoC4/CapSense_1_CSHL.c ****         {
1885:Generated_Source\PSoC4/CapSense_1_CSHL.c ****             /* Maximum wasn't found */
1886:Generated_Source\PSoC4/CapSense_1_CSHL.c ****             position = 0xFFFFu;
1887:Generated_Source\PSoC4/CapSense_1_CSHL.c **** 
1888:Generated_Source\PSoC4/CapSense_1_CSHL.c ****             #if(0u != CapSense_1_LINEAR_SLIDERS_POS_FILTERS_MASK)
1889:Generated_Source\PSoC4/CapSense_1_CSHL.c ****                 /* Reset filters */
1890:Generated_Source\PSoC4/CapSense_1_CSHL.c ****                 if(0u != (posFiltersMask & CapSense_1_ANY_POS_FILTER))
1891:Generated_Source\PSoC4/CapSense_1_CSHL.c ****                 {
1892:Generated_Source\PSoC4/CapSense_1_CSHL.c ****                     CapSense_1_posFiltersData[firstTimeIndex] = 0u;
1893:Generated_Source\PSoC4/CapSense_1_CSHL.c ****                 }
1894:Generated_Source\PSoC4/CapSense_1_CSHL.c ****             #endif /* (0u != CapSense_1_LINEAR_SLIDERS_POS_FILTERS_MASK) */
1895:Generated_Source\PSoC4/CapSense_1_CSHL.c ****         }
1896:Generated_Source\PSoC4/CapSense_1_CSHL.c **** 
1897:Generated_Source\PSoC4/CapSense_1_CSHL.c **** 
1898:Generated_Source\PSoC4/CapSense_1_CSHL.c ****         return (position);
1899:Generated_Source\PSoC4/CapSense_1_CSHL.c ****     }
1900:Generated_Source\PSoC4/CapSense_1_CSHL.c **** #endif /* ((CapSense_1_TOTAL_RADIAL_SLIDERS_COUNT > 0u) || (CapSense_1_TOTAL_LINEAR_SLIDERS_COUNT >
ARM GAS  C:\Users\IGOR~1.HOL\AppData\Local\Temp\cc8IZ2FY.s 			page 67


1901:Generated_Source\PSoC4/CapSense_1_CSHL.c **** 
1902:Generated_Source\PSoC4/CapSense_1_CSHL.c **** 
1903:Generated_Source\PSoC4/CapSense_1_CSHL.c **** #if((CapSense_1_TOTAL_RADIAL_SLIDERS_COUNT > 0u) || (CapSense_1_TOTAL_LINEAR_SLIDERS_COUNT > 0u))
1904:Generated_Source\PSoC4/CapSense_1_CSHL.c ****     /*******************************************************************************
1905:Generated_Source\PSoC4/CapSense_1_CSHL.c ****     * Function Name: CapSense_1_GetRadialCentroidPos
1906:Generated_Source\PSoC4/CapSense_1_CSHL.c ****     ********************************************************************************
1907:Generated_Source\PSoC4/CapSense_1_CSHL.c ****     *
1908:Generated_Source\PSoC4/CapSense_1_CSHL.c ****     * Summary:
1909:Generated_Source\PSoC4/CapSense_1_CSHL.c ****     *  Checks the CapSense_1_Signal[ ] array for a centroid within
1910:Generated_Source\PSoC4/CapSense_1_CSHL.c ****     *  a slider specified range. The centroid position is calculated according to the resolution
1911:Generated_Source\PSoC4/CapSense_1_CSHL.c ****     *  specified in the CapSense customizer. The position filters are applied to the
1912:Generated_Source\PSoC4/CapSense_1_CSHL.c ****     *  result if enabled.
1913:Generated_Source\PSoC4/CapSense_1_CSHL.c ****     *
1914:Generated_Source\PSoC4/CapSense_1_CSHL.c ****     * Parameters:
1915:Generated_Source\PSoC4/CapSense_1_CSHL.c ****     *  widget:  Widget number.
1916:Generated_Source\PSoC4/CapSense_1_CSHL.c ****     *  For every radial slider widget there are defines in this format:
1917:Generated_Source\PSoC4/CapSense_1_CSHL.c ****     *  #define CapSense_1_"widget_name"__RS           5
1918:Generated_Source\PSoC4/CapSense_1_CSHL.c ****     *
1919:Generated_Source\PSoC4/CapSense_1_CSHL.c ****     * Return:
1920:Generated_Source\PSoC4/CapSense_1_CSHL.c ****     *  Returns a position value of the radial slider.
1921:Generated_Source\PSoC4/CapSense_1_CSHL.c ****     *
1922:Generated_Source\PSoC4/CapSense_1_CSHL.c ****     * Global Variables:
1923:Generated_Source\PSoC4/CapSense_1_CSHL.c ****     *  None.
1924:Generated_Source\PSoC4/CapSense_1_CSHL.c ****     *
1925:Generated_Source\PSoC4/CapSense_1_CSHL.c ****     * Side Effects:
1926:Generated_Source\PSoC4/CapSense_1_CSHL.c ****     *  If any sensor within the slider widget is active, the function returns values
1927:Generated_Source\PSoC4/CapSense_1_CSHL.c ****     *  from zero to the API resolution value set in the CapSense customizer. If no
1928:Generated_Source\PSoC4/CapSense_1_CSHL.c ****     *  sensors are active, the function returns 0xFFFF.
1929:Generated_Source\PSoC4/CapSense_1_CSHL.c ****     *  There are no checks of the widget type argument provided to this function.
1930:Generated_Source\PSoC4/CapSense_1_CSHL.c ****     *  The unproper widget type provided will cause unexpected position calculations.
1931:Generated_Source\PSoC4/CapSense_1_CSHL.c ****     *
1932:Generated_Source\PSoC4/CapSense_1_CSHL.c ****     * Note:
1933:Generated_Source\PSoC4/CapSense_1_CSHL.c ****     *  If noise counts on the slider segments are greater than the noise
1934:Generated_Source\PSoC4/CapSense_1_CSHL.c ****     *  threshold, this subroutine may generate a false centroid result. The noise
1935:Generated_Source\PSoC4/CapSense_1_CSHL.c ****     *  threshold should be set carefully (high enough above the noise level) so
1936:Generated_Source\PSoC4/CapSense_1_CSHL.c ****     *  that noise will not generate a false centroid.
1937:Generated_Source\PSoC4/CapSense_1_CSHL.c ****     *
1938:Generated_Source\PSoC4/CapSense_1_CSHL.c ****     *******************************************************************************/
1939:Generated_Source\PSoC4/CapSense_1_CSHL.c ****      uint16 CapSense_1_GetRadialCentroidPos(uint32 widget)
1940:Generated_Source\PSoC4/CapSense_1_CSHL.c ****     {
1941:Generated_Source\PSoC4/CapSense_1_CSHL.c ****         #if (0u != CapSense_1_RADIAL_SLIDERS_POS_FILTERS_MASK)
1942:Generated_Source\PSoC4/CapSense_1_CSHL.c ****             uint8 posIndex;
1943:Generated_Source\PSoC4/CapSense_1_CSHL.c ****             uint8 firstTimeIndex = CapSense_1_posFiltersData[widget];
1944:Generated_Source\PSoC4/CapSense_1_CSHL.c ****             uint8 posFiltersMask = CapSense_1_posFiltersMask[widget];
1945:Generated_Source\PSoC4/CapSense_1_CSHL.c ****         #endif /* (0u != CapSense_1_RADIAL_SLIDERS_POS_FILTERS_MASK) */
1946:Generated_Source\PSoC4/CapSense_1_CSHL.c **** 
1947:Generated_Source\PSoC4/CapSense_1_CSHL.c ****         #if ((0u != (CapSense_1_MEDIAN_FILTER & CapSense_1_RADIAL_SLIDERS_POS_FILTERS_MASK)) || \
1948:Generated_Source\PSoC4/CapSense_1_CSHL.c ****              (0u != (CapSense_1_AVERAGING_FILTER & CapSense_1_RADIAL_SLIDERS_POS_FILTERS_MASK)))
1949:Generated_Source\PSoC4/CapSense_1_CSHL.c ****             uint8 tempPos;
1950:Generated_Source\PSoC4/CapSense_1_CSHL.c ****         #endif /* ((0u != (CapSense_1_MEDIAN_FILTER & CapSense_1_RADIAL_SLIDERS_POS_FILTERS_MASK)) 
1951:Generated_Source\PSoC4/CapSense_1_CSHL.c ****                *   (0u != (CapSense_1_AVERAGING_FILTER & CapSense_1_RADIAL_SLIDERS_POS_FILTERS_MASK
1952:Generated_Source\PSoC4/CapSense_1_CSHL.c ****                */
1953:Generated_Source\PSoC4/CapSense_1_CSHL.c **** 
1954:Generated_Source\PSoC4/CapSense_1_CSHL.c ****         uint8 maximum;
1955:Generated_Source\PSoC4/CapSense_1_CSHL.c ****         uint16 position;
1956:Generated_Source\PSoC4/CapSense_1_CSHL.c ****         uint8 offset = CapSense_1_rawDataIndex[widget];
1957:Generated_Source\PSoC4/CapSense_1_CSHL.c ****         uint8 count = CapSense_1_numberOfSensors[widget];
ARM GAS  C:\Users\IGOR~1.HOL\AppData\Local\Temp\cc8IZ2FY.s 			page 68


1958:Generated_Source\PSoC4/CapSense_1_CSHL.c **** 
1959:Generated_Source\PSoC4/CapSense_1_CSHL.c ****         /* Find Maximum within centroid */
