ARM GAS  C:\Users\IGOR~1.HOL\AppData\Local\Temp\cchTEJnV.s 			page 1


   1              		.cpu cortex-m0
   2              		.fpu softvfp
   3              		.eabi_attribute 20, 1
   4              		.eabi_attribute 21, 1
   5              		.eabi_attribute 23, 3
   6              		.eabi_attribute 24, 1
   7              		.eabi_attribute 25, 1
   8              		.eabi_attribute 26, 1
   9              		.eabi_attribute 30, 6
  10              		.eabi_attribute 34, 0
  11              		.eabi_attribute 18, 4
  12              		.code	16
  13              		.file	"CapSense_1_SMS.c"
  14              		.text
  15              	.Ltext0:
  16              		.cfi_sections	.debug_frame
  17              		.global	CapSense_1_prescalerTable
  18              		.section	.rodata
  19              		.align	2
  20              		.type	CapSense_1_prescalerTable, %object
  21              		.size	CapSense_1_prescalerTable, 16
  22              	CapSense_1_prescalerTable:
  23 0000 02       		.byte	2
  24 0001 02       		.byte	2
  25 0002 02       		.byte	2
  26 0003 04       		.byte	4
  27 0004 04       		.byte	4
  28 0005 04       		.byte	4
  29 0006 04       		.byte	4
  30 0007 08       		.byte	8
  31 0008 08       		.byte	8
  32 0009 08       		.byte	8
  33 000a 08       		.byte	8
  34 000b 08       		.byte	8
  35 000c 08       		.byte	8
  36 000d 08       		.byte	8
  37 000e 08       		.byte	8
  38 000f 08       		.byte	8
  39              		.comm	CapSense_1_noiseEnvelopeTbl,1,4
  40              		.comm	CapSense_1_runningDifferenceTbl,1,4
  41              		.comm	CapSense_1_signRegisterTbl,1,4
  42              		.comm	CapSense_1_sampleMinTbl,2,4
  43              		.comm	CapSense_1_sampleMaxTbl,2,4
  44              		.comm	CapSense_1_previousSampleTbl,2,4
  45              		.comm	CapSense_1_kValueTbl,1,4
  46              		.global	CapSense_1_sensorSensitivity
  47              		.data
  48              		.align	2
  49              		.type	CapSense_1_sensorSensitivity, %object
  50              		.size	CapSense_1_sensorSensitivity, 1
  51              	CapSense_1_sensorSensitivity:
  52 0000 02       		.byte	2
  53              		.comm	CapSense_1_config,12,4
  54              		.global	CapSense_1_configPointers
  55 0001 000000   		.section	.rodata
  56              		.align	2
  57              		.type	CapSense_1_configPointers, %object
ARM GAS  C:\Users\IGOR~1.HOL\AppData\Local\Temp\cchTEJnV.s 			page 2


  58              		.size	CapSense_1_configPointers, 92
  59              	CapSense_1_configPointers:
  60 0010 00000000 		.word	CapSense_1_modulationIDAC
  61 0014 00000000 		.word	CapSense_1_compensationIDAC
  62 0018 00000000 		.word	CapSense_1_sensorSensitivity
  63 001c 00000000 		.word	CapSense_1_senseClkDividerVal
  64 0020 00000000 		.word	CapSense_1_sampleClkDividerVal
  65 0024 00000000 		.word	CapSense_1_widgetNumber
  66 0028 00000000 		.word	CapSense_1_widgetResolution
  67 002c 00000000 		.word	CapSense_1_noiseEnvelopeTbl
  68 0030 00000000 		.word	CapSense_1_runningDifferenceTbl
  69 0034 00000000 		.word	CapSense_1_signRegisterTbl
  70 0038 00000000 		.word	CapSense_1_sampleMinTbl
  71 003c 00000000 		.word	CapSense_1_sampleMaxTbl
  72 0040 00000000 		.word	CapSense_1_previousSampleTbl
  73 0044 00000000 		.word	CapSense_1_kValueTbl
  74 0048 00000000 		.word	CapSense_1_scanSpeedTbl
  75 004c 00000000 		.word	CapSense_1_prescalerTable
  76 0050 00000000 		.word	CapSense_1_rawDataIndex
  77 0054 00000000 		.word	CapSense_1_numberOfSensors
  78 0058 00000000 		.word	CapSense_1_GetSensorRaw
  79 005c 00000000 		.word	CapSense_1_PreScan
  80 0060 00000000 		.word	CapSense_1_ReadSensorRaw
  81 0064 00000000 		.word	CapSense_1_GetBitValue
  82 0068 00000000 		.word	CapSense_1_SetBitValue
  83              		.section	.text.CapSense_1_AutoTune,"ax",%progbits
  84              		.align	2
  85              		.global	CapSense_1_AutoTune
  86              		.code	16
  87              		.thumb_func
  88              		.type	CapSense_1_AutoTune, %function
  89              	CapSense_1_AutoTune:
  90              	.LFB35:
  91              		.file 1 "Generated_Source\\PSoC4\\CapSense_1_SMS.c"
   1:Generated_Source\PSoC4/CapSense_1_SMS.c **** /*******************************************************************************
   2:Generated_Source\PSoC4/CapSense_1_SMS.c **** * File Name: CapSense_1_SMS.c
   3:Generated_Source\PSoC4/CapSense_1_SMS.c **** * Version 2.60
   4:Generated_Source\PSoC4/CapSense_1_SMS.c **** *
   5:Generated_Source\PSoC4/CapSense_1_SMS.c **** * Description:
   6:Generated_Source\PSoC4/CapSense_1_SMS.c **** *  This file provides the source code of wrapper between CapSense CSD component
   7:Generated_Source\PSoC4/CapSense_1_SMS.c **** *  and Auto Tuning library.
   8:Generated_Source\PSoC4/CapSense_1_SMS.c **** *
   9:Generated_Source\PSoC4/CapSense_1_SMS.c **** * Note:
  10:Generated_Source\PSoC4/CapSense_1_SMS.c **** *
  11:Generated_Source\PSoC4/CapSense_1_SMS.c **** ********************************************************************************
  12:Generated_Source\PSoC4/CapSense_1_SMS.c **** * Copyright 2013-2016, Cypress Semiconductor Corporation.  All rights reserved.
  13:Generated_Source\PSoC4/CapSense_1_SMS.c **** * You may use this file only in accordance with the license, terms, conditions,
  14:Generated_Source\PSoC4/CapSense_1_SMS.c **** * disclaimers, and limitations in the end user license agreement accompanying
  15:Generated_Source\PSoC4/CapSense_1_SMS.c **** * the software package with which this file was provided.
  16:Generated_Source\PSoC4/CapSense_1_SMS.c **** *******************************************************************************/
  17:Generated_Source\PSoC4/CapSense_1_SMS.c **** 
  18:Generated_Source\PSoC4/CapSense_1_SMS.c **** #include "CapSense_1_SMS.h"
  19:Generated_Source\PSoC4/CapSense_1_SMS.c **** #include "CapSense_1_PVT.h"
  20:Generated_Source\PSoC4/CapSense_1_SMS.c **** 
  21:Generated_Source\PSoC4/CapSense_1_SMS.c **** #include "cytypes.h"
  22:Generated_Source\PSoC4/CapSense_1_SMS.c **** 
  23:Generated_Source\PSoC4/CapSense_1_SMS.c **** #if (CapSense_1_TUNING_METHOD == CapSense_1__TUNING_AUTO)
ARM GAS  C:\Users\IGOR~1.HOL\AppData\Local\Temp\cchTEJnV.s 			page 3


  24:Generated_Source\PSoC4/CapSense_1_SMS.c **** 
  25:Generated_Source\PSoC4/CapSense_1_SMS.c **** 
  26:Generated_Source\PSoC4/CapSense_1_SMS.c **** /*  Real Charge Divider values */
  27:Generated_Source\PSoC4/CapSense_1_SMS.c **** #if ((0u != CapSense_1_IS_M0S8PERI_BLOCK) && (0u == CY_PSOC4_4000))
  28:Generated_Source\PSoC4/CapSense_1_SMS.c ****     /*  Dividers are not chained */
  29:Generated_Source\PSoC4/CapSense_1_SMS.c ****     #if (CYDEV_BCLK__HFCLK__MHZ > 24u)
  30:Generated_Source\PSoC4/CapSense_1_SMS.c ****         const uint8 CapSense_1_prescalerTable[CapSense_1_PRESCALERS_TBL_SIZE] = {
  31:Generated_Source\PSoC4/CapSense_1_SMS.c ****             4u,     4u,     4u,    8u,    8u,    8u,    8u,    16u,    16u,    16u,    16u,    16u,
  32:Generated_Source\PSoC4/CapSense_1_SMS.c ****         };
  33:Generated_Source\PSoC4/CapSense_1_SMS.c ****     #elif (CYDEV_BCLK__HFCLK__MHZ >12u)
  34:Generated_Source\PSoC4/CapSense_1_SMS.c ****         const uint8 CapSense_1_prescalerTable[CapSense_1_PRESCALERS_TBL_SIZE] = {
  35:Generated_Source\PSoC4/CapSense_1_SMS.c ****             2u,     2u,     2u,    4u,    4u,    4u,    4u,    8u,    8u,    8u,    8u,    8u,    8
  36:Generated_Source\PSoC4/CapSense_1_SMS.c ****         };
  37:Generated_Source\PSoC4/CapSense_1_SMS.c ****     #else   /* (CYDEV_BCLK__HFCLK__MHZ > 12u) */
  38:Generated_Source\PSoC4/CapSense_1_SMS.c ****         const uint8 CapSense_1_prescalerTable[CapSense_1_PRESCALERS_TBL_SIZE] = {
  39:Generated_Source\PSoC4/CapSense_1_SMS.c ****             1u,     1u,     1u,    2u,    2u,    2u,    2u,    4u,    4u,    4u,    4u,    4u,    4
  40:Generated_Source\PSoC4/CapSense_1_SMS.c ****         };
  41:Generated_Source\PSoC4/CapSense_1_SMS.c ****     #endif /* (CYDEV_BCLK__HFCLK__MHZ > 24u) */
  42:Generated_Source\PSoC4/CapSense_1_SMS.c **** 
  43:Generated_Source\PSoC4/CapSense_1_SMS.c **** #elif (0u != CapSense_1_IS_M0S8PERI_BLOCK)
  44:Generated_Source\PSoC4/CapSense_1_SMS.c ****     /*  Dividers are not chained (PSoC 4000) */
  45:Generated_Source\PSoC4/CapSense_1_SMS.c ****     #if (CYDEV_BCLK__HFCLK__MHZ >= 12u)
  46:Generated_Source\PSoC4/CapSense_1_SMS.c ****         const uint8 CapSense_1_prescalerTable[CapSense_1_PRESCALERS_TBL_SIZE] = {
  47:Generated_Source\PSoC4/CapSense_1_SMS.c ****             1u,     1u,     1u,    2u,    2u,    2u,    2u,    4u,    4u,    4u,    4u,    4u,    4
  48:Generated_Source\PSoC4/CapSense_1_SMS.c ****         };
  49:Generated_Source\PSoC4/CapSense_1_SMS.c **** 
  50:Generated_Source\PSoC4/CapSense_1_SMS.c ****     #elif (CYDEV_BCLK__HFCLK__MHZ >= 6u)
  51:Generated_Source\PSoC4/CapSense_1_SMS.c ****         const uint8 CapSense_1_prescalerTable[CapSense_1_PRESCALERS_TBL_SIZE] = {
  52:Generated_Source\PSoC4/CapSense_1_SMS.c ****             1u,     1u,     1u,    1u,    1u,    1u,    1u,    2u,    2u,    2u,    2u,    2u,    2
  53:Generated_Source\PSoC4/CapSense_1_SMS.c ****         };
  54:Generated_Source\PSoC4/CapSense_1_SMS.c ****     #else
  55:Generated_Source\PSoC4/CapSense_1_SMS.c ****         const uint8 CapSense_1_prescalerTable[CapSense_1_PRESCALERS_TBL_SIZE] = {
  56:Generated_Source\PSoC4/CapSense_1_SMS.c ****             1u,     1u,     1u,    1u,    1u,    1u,    1u,    1u,    1u,    1u,    1u,    1u,    1
  57:Generated_Source\PSoC4/CapSense_1_SMS.c ****         };
  58:Generated_Source\PSoC4/CapSense_1_SMS.c ****     #endif /* (CYDEV_BCLK__HFCLK__MHZ > 12u) */
  59:Generated_Source\PSoC4/CapSense_1_SMS.c **** 
  60:Generated_Source\PSoC4/CapSense_1_SMS.c **** #else
  61:Generated_Source\PSoC4/CapSense_1_SMS.c ****     /*  Dividers are chained (PSoC 4100, PSoC 4200) */
  62:Generated_Source\PSoC4/CapSense_1_SMS.c ****     #if (CYDEV_BCLK__HFCLK__MHZ > 24u)
  63:Generated_Source\PSoC4/CapSense_1_SMS.c ****         const uint8 CapSense_1_prescalerTable[CapSense_1_PRESCALERS_TBL_SIZE] = {
  64:Generated_Source\PSoC4/CapSense_1_SMS.c ****             2u,     2u,     2u,    4u,    4u,    4u,    4u,    8u,    8u,    8u,    8u,    8u,    8
  65:Generated_Source\PSoC4/CapSense_1_SMS.c ****         };
  66:Generated_Source\PSoC4/CapSense_1_SMS.c **** 
  67:Generated_Source\PSoC4/CapSense_1_SMS.c ****     #elif (CYDEV_BCLK__HFCLK__MHZ >12u)
  68:Generated_Source\PSoC4/CapSense_1_SMS.c ****         const uint8 CapSense_1_prescalerTable[CapSense_1_PRESCALERS_TBL_SIZE] = {
  69:Generated_Source\PSoC4/CapSense_1_SMS.c ****             1u,     1u,     1u,    2u,    2u,    2u,    2u,    4u,    4u,    4u,    4u,    4u,    4
  70:Generated_Source\PSoC4/CapSense_1_SMS.c ****         };
  71:Generated_Source\PSoC4/CapSense_1_SMS.c ****     #else   /* (CYDEV_BCLK__HFCLK__MHZ > 12u) */
  72:Generated_Source\PSoC4/CapSense_1_SMS.c ****         const uint8 CapSense_1_prescalerTable[CapSense_1_PRESCALERS_TBL_SIZE] = {
  73:Generated_Source\PSoC4/CapSense_1_SMS.c ****             1u,     1u,     1u,    1u,    1u,    1u,    1u,    2u,    2u,    2u,    2u,    2u,    2
  74:Generated_Source\PSoC4/CapSense_1_SMS.c ****         };
  75:Generated_Source\PSoC4/CapSense_1_SMS.c ****     #endif /* (CYDEV_BCLK__HFCLK__MHZ > 24u) */
  76:Generated_Source\PSoC4/CapSense_1_SMS.c **** #endif /* ((0u != CapSense_1_IS_M0S8PERI_BLOCK) && (0u == CY_PSOC4_4000)) */
  77:Generated_Source\PSoC4/CapSense_1_SMS.c **** 
  78:Generated_Source\PSoC4/CapSense_1_SMS.c **** 
  79:Generated_Source\PSoC4/CapSense_1_SMS.c **** uint8 CapSense_1_noiseEnvelopeTbl[CapSense_1_TOTAL_SENSOR_COUNT];
  80:Generated_Source\PSoC4/CapSense_1_SMS.c **** uint8 CapSense_1_runningDifferenceTbl[CapSense_1_TOTAL_SENSOR_COUNT];
ARM GAS  C:\Users\IGOR~1.HOL\AppData\Local\Temp\cchTEJnV.s 			page 4


  81:Generated_Source\PSoC4/CapSense_1_SMS.c **** uint8 CapSense_1_signRegisterTbl[CapSense_1_TOTAL_SENSOR_COUNT];
  82:Generated_Source\PSoC4/CapSense_1_SMS.c **** uint16 CapSense_1_sampleMinTbl[CapSense_1_TOTAL_SENSOR_COUNT];
  83:Generated_Source\PSoC4/CapSense_1_SMS.c **** uint16 CapSense_1_sampleMaxTbl[CapSense_1_TOTAL_SENSOR_COUNT];
  84:Generated_Source\PSoC4/CapSense_1_SMS.c **** uint16 CapSense_1_previousSampleTbl[CapSense_1_TOTAL_SENSOR_COUNT];
  85:Generated_Source\PSoC4/CapSense_1_SMS.c **** uint8 CapSense_1_kValueTbl[CapSense_1_TOTAL_SENSOR_COUNT];
  86:Generated_Source\PSoC4/CapSense_1_SMS.c **** 
  87:Generated_Source\PSoC4/CapSense_1_SMS.c **** uint8 CapSense_1_sensorSensitivity[] = {
  88:Generated_Source\PSoC4/CapSense_1_SMS.c ****     2u, 
  89:Generated_Source\PSoC4/CapSense_1_SMS.c **** };
  90:Generated_Source\PSoC4/CapSense_1_SMS.c **** 
  91:Generated_Source\PSoC4/CapSense_1_SMS.c **** CapSense_1_CONFIG_TYPE_P4_v2_60 CapSense_1_config;
  92:Generated_Source\PSoC4/CapSense_1_SMS.c **** CapSense_1_CONFIG_TYPE_POINTERS_P4_v2_60 const CapSense_1_configPointers = {
  93:Generated_Source\PSoC4/CapSense_1_SMS.c ****     CapSense_1_modulationIDAC,
  94:Generated_Source\PSoC4/CapSense_1_SMS.c ****     CapSense_1_compensationIDAC,
  95:Generated_Source\PSoC4/CapSense_1_SMS.c ****     CapSense_1_sensorSensitivity,
  96:Generated_Source\PSoC4/CapSense_1_SMS.c ****     CapSense_1_senseClkDividerVal,
  97:Generated_Source\PSoC4/CapSense_1_SMS.c ****     CapSense_1_sampleClkDividerVal,
  98:Generated_Source\PSoC4/CapSense_1_SMS.c ****     CapSense_1_widgetNumber,
  99:Generated_Source\PSoC4/CapSense_1_SMS.c ****     CapSense_1_widgetResolution,
 100:Generated_Source\PSoC4/CapSense_1_SMS.c ****     CapSense_1_noiseEnvelopeTbl,
 101:Generated_Source\PSoC4/CapSense_1_SMS.c ****     CapSense_1_runningDifferenceTbl,
 102:Generated_Source\PSoC4/CapSense_1_SMS.c ****     CapSense_1_signRegisterTbl,
 103:Generated_Source\PSoC4/CapSense_1_SMS.c ****     CapSense_1_sampleMinTbl,
 104:Generated_Source\PSoC4/CapSense_1_SMS.c ****     CapSense_1_sampleMaxTbl,
 105:Generated_Source\PSoC4/CapSense_1_SMS.c ****     CapSense_1_previousSampleTbl,
 106:Generated_Source\PSoC4/CapSense_1_SMS.c ****     CapSense_1_kValueTbl,
 107:Generated_Source\PSoC4/CapSense_1_SMS.c ****     CapSense_1_scanSpeedTbl,
 108:Generated_Source\PSoC4/CapSense_1_SMS.c ****     CapSense_1_prescalerTable,
 109:Generated_Source\PSoC4/CapSense_1_SMS.c ****     (const uint8  *)CapSense_1_rawDataIndex,
 110:Generated_Source\PSoC4/CapSense_1_SMS.c ****     (const uint8  *)CapSense_1_numberOfSensors,
 111:Generated_Source\PSoC4/CapSense_1_SMS.c ****     &CapSense_1_GetSensorRaw,
 112:Generated_Source\PSoC4/CapSense_1_SMS.c ****     &CapSense_1_PreScan,
 113:Generated_Source\PSoC4/CapSense_1_SMS.c ****     &CapSense_1_ReadSensorRaw,
 114:Generated_Source\PSoC4/CapSense_1_SMS.c ****     &CapSense_1_GetBitValue,
 115:Generated_Source\PSoC4/CapSense_1_SMS.c ****     &CapSense_1_SetBitValue
 116:Generated_Source\PSoC4/CapSense_1_SMS.c **** };
 117:Generated_Source\PSoC4/CapSense_1_SMS.c **** 
 118:Generated_Source\PSoC4/CapSense_1_SMS.c **** 
 119:Generated_Source\PSoC4/CapSense_1_SMS.c **** /*******************************************************************************
 120:Generated_Source\PSoC4/CapSense_1_SMS.c **** * Function Name: CapSense_1_AutoTune
 121:Generated_Source\PSoC4/CapSense_1_SMS.c **** ********************************************************************************
 122:Generated_Source\PSoC4/CapSense_1_SMS.c **** *
 123:Generated_Source\PSoC4/CapSense_1_SMS.c **** * Summary:
 124:Generated_Source\PSoC4/CapSense_1_SMS.c **** *  Provides the tuning procedure for all sensors.
 125:Generated_Source\PSoC4/CapSense_1_SMS.c **** *
 126:Generated_Source\PSoC4/CapSense_1_SMS.c **** * Parameters:
 127:Generated_Source\PSoC4/CapSense_1_SMS.c **** *  None
 128:Generated_Source\PSoC4/CapSense_1_SMS.c **** *
 129:Generated_Source\PSoC4/CapSense_1_SMS.c **** * Return:
 130:Generated_Source\PSoC4/CapSense_1_SMS.c **** *  None
 131:Generated_Source\PSoC4/CapSense_1_SMS.c **** *
 132:Generated_Source\PSoC4/CapSense_1_SMS.c **** * Global Variables:
 133:Generated_Source\PSoC4/CapSense_1_SMS.c **** *   CapSense_1_config: the structure which contains configuration parameters
 134:Generated_Source\PSoC4/CapSense_1_SMS.c **** *   CapSense_1_senseClkDividerVal[]: used to store the Analog Switch
 135:Generated_Source\PSoC4/CapSense_1_SMS.c **** *   dividers for each sensor.
 136:Generated_Source\PSoC4/CapSense_1_SMS.c **** *   CapSense_1_senseClkDividerVal[]: used to store the
 137:Generated_Source\PSoC4/CapSense_1_SMS.c **** *    Analog Switch divider for all sensors.
ARM GAS  C:\Users\IGOR~1.HOL\AppData\Local\Temp\cchTEJnV.s 			page 5


 138:Generated_Source\PSoC4/CapSense_1_SMS.c **** *   CapSense_1_prescalersTuningDone - used to notify the Tuner GUI that
 139:Generated_Source\PSoC4/CapSense_1_SMS.c **** *   the pre-scalers tuning  is done.
 140:Generated_Source\PSoC4/CapSense_1_SMS.c **** *
 141:Generated_Source\PSoC4/CapSense_1_SMS.c **** * Side Effects:
 142:Generated_Source\PSoC4/CapSense_1_SMS.c **** *  None
 143:Generated_Source\PSoC4/CapSense_1_SMS.c **** *
 144:Generated_Source\PSoC4/CapSense_1_SMS.c **** *******************************************************************************/
 145:Generated_Source\PSoC4/CapSense_1_SMS.c **** void CapSense_1_AutoTune(void)
 146:Generated_Source\PSoC4/CapSense_1_SMS.c **** {
  92              		.loc 1 146 0
  93              		.cfi_startproc
  94 0000 80B5     		push	{r7, lr}
  95              		.cfi_def_cfa_offset 8
  96              		.cfi_offset 7, -8
  97              		.cfi_offset 14, -4
  98 0002 82B0     		sub	sp, sp, #8
  99              		.cfi_def_cfa_offset 16
 100 0004 00AF     		add	r7, sp, #0
 101              		.cfi_def_cfa_register 7
 147:Generated_Source\PSoC4/CapSense_1_SMS.c ****     uint32 curSensor;
 148:Generated_Source\PSoC4/CapSense_1_SMS.c ****     uint32 widget;
 149:Generated_Source\PSoC4/CapSense_1_SMS.c **** 
 150:Generated_Source\PSoC4/CapSense_1_SMS.c ****     CapSense_1_config.totalScanslotsNum = CapSense_1_TOTAL_SCANSLOT_COUNT;
 102              		.loc 1 150 0
 103 0006 314B     		ldr	r3, .L8
 104 0008 0122     		mov	r2, #1
 105 000a 1A70     		strb	r2, [r3]
 151:Generated_Source\PSoC4/CapSense_1_SMS.c ****     CapSense_1_config.totalWidgetsNum = CapSense_1_END_OF_WIDGETS_INDEX;
 106              		.loc 1 151 0
 107 000c 2F4B     		ldr	r3, .L8
 108 000e 0122     		mov	r2, #1
 109 0010 5A70     		strb	r2, [r3, #1]
 152:Generated_Source\PSoC4/CapSense_1_SMS.c ****     CapSense_1_config.totalSensorsNum = CapSense_1_TOTAL_SENSOR_COUNT;
 110              		.loc 1 152 0
 111 0012 2E4B     		ldr	r3, .L8
 112 0014 0122     		mov	r2, #1
 113 0016 9A70     		strb	r2, [r3, #2]
 153:Generated_Source\PSoC4/CapSense_1_SMS.c **** 
 154:Generated_Source\PSoC4/CapSense_1_SMS.c ****     CapSense_1_config.hfclkFreq_MHz = CYDEV_BCLK__HFCLK__MHZ;
 114              		.loc 1 154 0
 115 0018 2C4B     		ldr	r3, .L8
 116 001a 1822     		mov	r2, #24
 117 001c DA80     		strh	r2, [r3, #6]
 155:Generated_Source\PSoC4/CapSense_1_SMS.c ****     CapSense_1_config.sensetivitySeed = CapSense_1_SENSETIVITY_FACTOR;
 118              		.loc 1 155 0
 119 001e 2B4B     		ldr	r3, .L8
 120 0020 2B4A     		ldr	r2, .L8+4
 121 0022 9A80     		strh	r2, [r3, #4]
 156:Generated_Source\PSoC4/CapSense_1_SMS.c **** 
 157:Generated_Source\PSoC4/CapSense_1_SMS.c ****     CapSense_1_config.pointers = &CapSense_1_configPointers;
 122              		.loc 1 157 0
 123 0024 294B     		ldr	r3, .L8
 124 0026 2B4A     		ldr	r2, .L8+8
 125 0028 9A60     		str	r2, [r3, #8]
 158:Generated_Source\PSoC4/CapSense_1_SMS.c **** 
 159:Generated_Source\PSoC4/CapSense_1_SMS.c ****     CapSense_1_SetAnalogSwitchesSrcDirect();
 126              		.loc 1 159 0
ARM GAS  C:\Users\IGOR~1.HOL\AppData\Local\Temp\cchTEJnV.s 			page 6


 127 002a FFF7FEFF 		bl	CapSense_1_SetAnalogSwitchesSrcDirect
 160:Generated_Source\PSoC4/CapSense_1_SMS.c **** 
 161:Generated_Source\PSoC4/CapSense_1_SMS.c ****     for(widget = 0u; widget < CapSense_1_config.totalWidgetsNum; widget++)
 128              		.loc 1 161 0
 129 002e 0023     		mov	r3, #0
 130 0030 3B60     		str	r3, [r7]
 131 0032 07E0     		b	.L2
 132              	.L3:
 162:Generated_Source\PSoC4/CapSense_1_SMS.c ****     {
 163:Generated_Source\PSoC4/CapSense_1_SMS.c ****         CapSense_1_widgetResolution[widget] = CapSense_1_CALIBRATION_RESOLUTION;
 133              		.loc 1 163 0 discriminator 3
 134 0034 284B     		ldr	r3, .L8+12
 135 0036 3A68     		ldr	r2, [r7]
 136 0038 9200     		lsl	r2, r2, #2
 137 003a 2849     		ldr	r1, .L8+16
 138 003c D150     		str	r1, [r2, r3]
 161:Generated_Source\PSoC4/CapSense_1_SMS.c ****     {
 139              		.loc 1 161 0 discriminator 3
 140 003e 3B68     		ldr	r3, [r7]
 141 0040 0133     		add	r3, r3, #1
 142 0042 3B60     		str	r3, [r7]
 143              	.L2:
 161:Generated_Source\PSoC4/CapSense_1_SMS.c ****     {
 144              		.loc 1 161 0 is_stmt 0 discriminator 1
 145 0044 214B     		ldr	r3, .L8
 146 0046 5B78     		ldrb	r3, [r3, #1]
 147 0048 1A1E     		sub	r2, r3, #0
 148 004a 3B68     		ldr	r3, [r7]
 149 004c 9A42     		cmp	r2, r3
 150 004e F1D8     		bhi	.L3
 164:Generated_Source\PSoC4/CapSense_1_SMS.c ****     }
 165:Generated_Source\PSoC4/CapSense_1_SMS.c **** 
 166:Generated_Source\PSoC4/CapSense_1_SMS.c **** 
 167:Generated_Source\PSoC4/CapSense_1_SMS.c ****     for(curSensor = 0u; curSensor < CapSense_1_TOTAL_SCANSLOT_COUNT; curSensor++)
 151              		.loc 1 167 0 is_stmt 1
 152 0050 0023     		mov	r3, #0
 153 0052 7B60     		str	r3, [r7, #4]
 154 0054 0CE0     		b	.L4
 155              	.L5:
 168:Generated_Source\PSoC4/CapSense_1_SMS.c ****     {
 169:Generated_Source\PSoC4/CapSense_1_SMS.c ****         CapSense_1_senseClkDividerVal[curSensor] = CapSense_1_CALIBRATION_ASD;
 156              		.loc 1 169 0 discriminator 3
 157 0056 224A     		ldr	r2, .L8+20
 158 0058 7B68     		ldr	r3, [r7, #4]
 159 005a D318     		add	r3, r2, r3
 160 005c 0822     		mov	r2, #8
 161 005e 1A70     		strb	r2, [r3]
 170:Generated_Source\PSoC4/CapSense_1_SMS.c ****         CapSense_1_sampleClkDividerVal[curSensor] = CapSense_1_CALIBRATION_MD;
 162              		.loc 1 170 0 discriminator 3
 163 0060 204A     		ldr	r2, .L8+24
 164 0062 7B68     		ldr	r3, [r7, #4]
 165 0064 D318     		add	r3, r2, r3
 166 0066 0222     		mov	r2, #2
 167 0068 1A70     		strb	r2, [r3]
 167:Generated_Source\PSoC4/CapSense_1_SMS.c ****     {
 168              		.loc 1 167 0 discriminator 3
 169 006a 7B68     		ldr	r3, [r7, #4]
ARM GAS  C:\Users\IGOR~1.HOL\AppData\Local\Temp\cchTEJnV.s 			page 7


 170 006c 0133     		add	r3, r3, #1
 171 006e 7B60     		str	r3, [r7, #4]
 172              	.L4:
 167:Generated_Source\PSoC4/CapSense_1_SMS.c ****     {
 173              		.loc 1 167 0 is_stmt 0 discriminator 1
 174 0070 7B68     		ldr	r3, [r7, #4]
 175 0072 002B     		cmp	r3, #0
 176 0074 EFD0     		beq	.L5
 171:Generated_Source\PSoC4/CapSense_1_SMS.c ****     }
 172:Generated_Source\PSoC4/CapSense_1_SMS.c **** 
 173:Generated_Source\PSoC4/CapSense_1_SMS.c ****     CapSense_1_DisableBaselineIDAC();
 177              		.loc 1 173 0 is_stmt 1
 178 0076 FFF7FEFF 		bl	CapSense_1_DisableBaselineIDAC
 174:Generated_Source\PSoC4/CapSense_1_SMS.c **** 
 175:Generated_Source\PSoC4/CapSense_1_SMS.c ****     CalibrateSensors_P4_v2_60(&CapSense_1_config, CapSense_1_CAL_RAW_COUNT);
 179              		.loc 1 175 0
 180 007a 144B     		ldr	r3, .L8
 181 007c 1A4A     		ldr	r2, .L8+28
 182 007e 181C     		mov	r0, r3
 183 0080 111C     		mov	r1, r2
 184 0082 FFF7FEFF 		bl	CalibrateSensors_P4_v2_60
 176:Generated_Source\PSoC4/CapSense_1_SMS.c **** 
 177:Generated_Source\PSoC4/CapSense_1_SMS.c ****     #if(0u != CapSense_1_TOTAL_CENTROIDS_COUNT)
 178:Generated_Source\PSoC4/CapSense_1_SMS.c ****         CapSense_1_NormalizeWidgets(CapSense_1_END_OF_WIDGETS_INDEX, CapSense_1_modulationIDAC);
 179:Generated_Source\PSoC4/CapSense_1_SMS.c ****     #endif /* (0u != CapSense_1_TOTAL_CENTROIDS_COUNT)  */
 180:Generated_Source\PSoC4/CapSense_1_SMS.c **** 
 181:Generated_Source\PSoC4/CapSense_1_SMS.c ****     TunePrescalers_P4_v2_60(&CapSense_1_config);
 185              		.loc 1 181 0
 186 0086 114B     		ldr	r3, .L8
 187 0088 181C     		mov	r0, r3
 188 008a FFF7FEFF 		bl	TunePrescalers_P4_v2_60
 182:Generated_Source\PSoC4/CapSense_1_SMS.c **** 
 183:Generated_Source\PSoC4/CapSense_1_SMS.c ****     #if(CapSense_1_PRS_OPTIONS != CapSense_1__PRS_NONE)
 184:Generated_Source\PSoC4/CapSense_1_SMS.c ****         CapSense_1_prescalersTuningDone = 1u;
 185:Generated_Source\PSoC4/CapSense_1_SMS.c ****     #endif /* (CapSense_1_PRS_OPTIONS == CapSense_1__PRS_NONE) */
 186:Generated_Source\PSoC4/CapSense_1_SMS.c **** 
 187:Generated_Source\PSoC4/CapSense_1_SMS.c ****     CalibrateSensors_P4_v2_60(&CapSense_1_config, CapSense_1_CAL_RAW_COUNT);
 189              		.loc 1 187 0
 190 008e 0F4B     		ldr	r3, .L8
 191 0090 154A     		ldr	r2, .L8+28
 192 0092 181C     		mov	r0, r3
 193 0094 111C     		mov	r1, r2
 194 0096 FFF7FEFF 		bl	CalibrateSensors_P4_v2_60
 188:Generated_Source\PSoC4/CapSense_1_SMS.c ****     #if(0u != CapSense_1_TOTAL_CENTROIDS_COUNT)
 189:Generated_Source\PSoC4/CapSense_1_SMS.c ****         CapSense_1_NormalizeWidgets(CapSense_1_END_OF_WIDGETS_INDEX, CapSense_1_modulationIDAC);
 190:Generated_Source\PSoC4/CapSense_1_SMS.c ****     #endif /* (0u != CapSense_1_TOTAL_CENTROIDS_COUNT)  */
 191:Generated_Source\PSoC4/CapSense_1_SMS.c ****     TuneSensitivity_P4_v2_60(&CapSense_1_config);
 195              		.loc 1 191 0
 196 009a 0C4B     		ldr	r3, .L8
 197 009c 181C     		mov	r0, r3
 198 009e FFF7FEFF 		bl	TuneSensitivity_P4_v2_60
 192:Generated_Source\PSoC4/CapSense_1_SMS.c **** 
 193:Generated_Source\PSoC4/CapSense_1_SMS.c ****     CapSense_1_EnableBaselineIDAC(&CapSense_1_config);
 199              		.loc 1 193 0
 200 00a2 0A4B     		ldr	r3, .L8
 201 00a4 181C     		mov	r0, r3
 202 00a6 FFF7FEFF 		bl	CapSense_1_EnableBaselineIDAC
ARM GAS  C:\Users\IGOR~1.HOL\AppData\Local\Temp\cchTEJnV.s 			page 8


 194:Generated_Source\PSoC4/CapSense_1_SMS.c **** 
 195:Generated_Source\PSoC4/CapSense_1_SMS.c ****     for(curSensor = 0u; curSensor < CapSense_1_TOTAL_SCANSLOT_COUNT; curSensor++)
 203              		.loc 1 195 0
 204 00aa 0023     		mov	r3, #0
 205 00ac 7B60     		str	r3, [r7, #4]
 206 00ae 06E0     		b	.L6
 207              	.L7:
 196:Generated_Source\PSoC4/CapSense_1_SMS.c ****     {
 197:Generated_Source\PSoC4/CapSense_1_SMS.c ****         CapSense_1_UpdateThresholds(curSensor);
 208              		.loc 1 197 0 discriminator 3
 209 00b0 7B68     		ldr	r3, [r7, #4]
 210 00b2 181C     		mov	r0, r3
 211 00b4 FFF7FEFF 		bl	CapSense_1_UpdateThresholds
 195:Generated_Source\PSoC4/CapSense_1_SMS.c ****     {
 212              		.loc 1 195 0 discriminator 3
 213 00b8 7B68     		ldr	r3, [r7, #4]
 214 00ba 0133     		add	r3, r3, #1
 215 00bc 7B60     		str	r3, [r7, #4]
 216              	.L6:
 195:Generated_Source\PSoC4/CapSense_1_SMS.c ****     {
 217              		.loc 1 195 0 is_stmt 0 discriminator 1
 218 00be 7B68     		ldr	r3, [r7, #4]
 219 00c0 002B     		cmp	r3, #0
 220 00c2 F5D0     		beq	.L7
 198:Generated_Source\PSoC4/CapSense_1_SMS.c ****     }
 199:Generated_Source\PSoC4/CapSense_1_SMS.c **** }
 221              		.loc 1 199 0 is_stmt 1
 222 00c4 BD46     		mov	sp, r7
 223 00c6 02B0     		add	sp, sp, #8
 224              		@ sp needed
 225 00c8 80BD     		pop	{r7, pc}
 226              	.L9:
 227 00ca C046     		.align	2
 228              	.L8:
 229 00cc 00000000 		.word	CapSense_1_config
 230 00d0 98090000 		.word	2456
 231 00d4 00000000 		.word	CapSense_1_configPointers
 232 00d8 00000000 		.word	CapSense_1_widgetResolution
 233 00dc 0000FF0F 		.word	268369920
 234 00e0 00000000 		.word	CapSense_1_senseClkDividerVal
 235 00e4 00000000 		.word	CapSense_1_sampleClkDividerVal
 236 00e8 9A0D0000 		.word	3482
 237              		.cfi_endproc
 238              	.LFE35:
 239              		.size	CapSense_1_AutoTune, .-CapSense_1_AutoTune
 240              		.section	.text.CapSense_1_UpdateThresholds,"ax",%progbits
 241              		.align	2
 242              		.global	CapSense_1_UpdateThresholds
 243              		.code	16
 244              		.thumb_func
 245              		.type	CapSense_1_UpdateThresholds, %function
 246              	CapSense_1_UpdateThresholds:
 247              	.LFB36:
 200:Generated_Source\PSoC4/CapSense_1_SMS.c **** 
 201:Generated_Source\PSoC4/CapSense_1_SMS.c **** 
 202:Generated_Source\PSoC4/CapSense_1_SMS.c **** /*******************************************************************************
 203:Generated_Source\PSoC4/CapSense_1_SMS.c **** * Function Name: CapSense_1_UpdateThresholds
ARM GAS  C:\Users\IGOR~1.HOL\AppData\Local\Temp\cchTEJnV.s 			page 9


 204:Generated_Source\PSoC4/CapSense_1_SMS.c **** ********************************************************************************
 205:Generated_Source\PSoC4/CapSense_1_SMS.c **** *
 206:Generated_Source\PSoC4/CapSense_1_SMS.c **** * Summary:
 207:Generated_Source\PSoC4/CapSense_1_SMS.c **** *  The API updates the Finger Threshold, Hysteresis, Noise Threshold, and
 208:Generated_Source\PSoC4/CapSense_1_SMS.c **** *  Negative Noise Threshold in the AutoTuning (Smartsense) Mode.
 209:Generated_Source\PSoC4/CapSense_1_SMS.c **** *
 210:Generated_Source\PSoC4/CapSense_1_SMS.c **** * Parameters:
 211:Generated_Source\PSoC4/CapSense_1_SMS.c **** *  sensor: sensor number.
 212:Generated_Source\PSoC4/CapSense_1_SMS.c **** *
 213:Generated_Source\PSoC4/CapSense_1_SMS.c **** * Return:
 214:Generated_Source\PSoC4/CapSense_1_SMS.c **** *  None
 215:Generated_Source\PSoC4/CapSense_1_SMS.c **** *
 216:Generated_Source\PSoC4/CapSense_1_SMS.c **** * Global Variables:
 217:Generated_Source\PSoC4/CapSense_1_SMS.c **** *  CapSense_1_widgetNumber[] - contains widget Number for given sensor.
 218:Generated_Source\PSoC4/CapSense_1_SMS.c **** *  0 through 7 (sensor 0 is bit 0, sensor 1 is bit 1).
 219:Generated_Source\PSoC4/CapSense_1_SMS.c **** *  For other sensors the array element equals to 255.
 220:Generated_Source\PSoC4/CapSense_1_SMS.c **** *  CapSense_1_numberOfSensors[widget] - Number of sensors in the widget.
 221:Generated_Source\PSoC4/CapSense_1_SMS.c **** *   CapSense_1_fingerThreshold[] - contains the level of signal for each sensor
 222:Generated_Source\PSoC4/CapSense_1_SMS.c **** *   that determines if a finger present on the sensor.
 223:Generated_Source\PSoC4/CapSense_1_SMS.c **** *   CapSense_1_negativeNoiseThreshold[] - negative Noise Threshold
 224:Generated_Source\PSoC4/CapSense_1_SMS.c **** *   CapSense_1_hysteresis[] - the array with hysteresis values.
 225:Generated_Source\PSoC4/CapSense_1_SMS.c **** *
 226:Generated_Source\PSoC4/CapSense_1_SMS.c **** * Side Effects:
 227:Generated_Source\PSoC4/CapSense_1_SMS.c **** *  None
 228:Generated_Source\PSoC4/CapSense_1_SMS.c **** *
 229:Generated_Source\PSoC4/CapSense_1_SMS.c **** *******************************************************************************/
 230:Generated_Source\PSoC4/CapSense_1_SMS.c **** void CapSense_1_UpdateThresholds(uint32 sensor)
 231:Generated_Source\PSoC4/CapSense_1_SMS.c **** {
 248              		.loc 1 231 0
 249              		.cfi_startproc
 250 0000 90B5     		push	{r4, r7, lr}
 251              		.cfi_def_cfa_offset 12
 252              		.cfi_offset 4, -12
 253              		.cfi_offset 7, -8
 254              		.cfi_offset 14, -4
 255 0002 87B0     		sub	sp, sp, #28
 256              		.cfi_def_cfa_offset 40
 257 0004 02AF     		add	r7, sp, #8
 258              		.cfi_def_cfa 7, 32
 259 0006 7860     		str	r0, [r7, #4]
 232:Generated_Source\PSoC4/CapSense_1_SMS.c ****     uint8 fingerThreshold;
 233:Generated_Source\PSoC4/CapSense_1_SMS.c ****     uint32 widget;
 234:Generated_Source\PSoC4/CapSense_1_SMS.c **** 
 235:Generated_Source\PSoC4/CapSense_1_SMS.c ****     widget = CapSense_1_widgetNumber[sensor];
 260              		.loc 1 235 0
 261 0008 334A     		ldr	r2, .L16
 262 000a 7B68     		ldr	r3, [r7, #4]
 263 000c D318     		add	r3, r2, r3
 264 000e 1B78     		ldrb	r3, [r3]
 265 0010 FB60     		str	r3, [r7, #12]
 236:Generated_Source\PSoC4/CapSense_1_SMS.c **** 
 237:Generated_Source\PSoC4/CapSense_1_SMS.c ****     #if(0u != CapSense_1_FLEXIBLE_THRESHOLDS_EN)
 238:Generated_Source\PSoC4/CapSense_1_SMS.c ****         fingerThreshold = CapSense_1_fingerThreshold[widget];
 239:Generated_Source\PSoC4/CapSense_1_SMS.c ****         /* Update Threshold manually (flexible) */
 240:Generated_Source\PSoC4/CapSense_1_SMS.c ****         CapSense_1_noiseThreshold[widget] = (uint8)(fingerThreshold >> 1u);
 241:Generated_Source\PSoC4/CapSense_1_SMS.c ****         CapSense_1_negativeNoiseThreshold[widget] = (uint8)(fingerThreshold >> 1u);
 242:Generated_Source\PSoC4/CapSense_1_SMS.c ****         CapSense_1_hysteresis[widget] = (uint8)(fingerThreshold >> 3u);
ARM GAS  C:\Users\IGOR~1.HOL\AppData\Local\Temp\cchTEJnV.s 			page 10


 243:Generated_Source\PSoC4/CapSense_1_SMS.c ****     #else
 244:Generated_Source\PSoC4/CapSense_1_SMS.c ****         /* Calculate Finger Threshold and Noise Threshold with Smartsense (automatic) */
 245:Generated_Source\PSoC4/CapSense_1_SMS.c ****         CalculateThresholds_P4_v2_60(&CapSense_1_config, (uint8)sensor, (uint8)widget, CapSense_1_f
 266              		.loc 1 245 0
 267 0012 7B68     		ldr	r3, [r7, #4]
 268 0014 D9B2     		uxtb	r1, r3
 269 0016 FB68     		ldr	r3, [r7, #12]
 270 0018 DAB2     		uxtb	r2, r3
 271 001a 3048     		ldr	r0, .L16+4
 272 001c 304C     		ldr	r4, .L16+8
 273 001e 314B     		ldr	r3, .L16+12
 274 0020 0093     		str	r3, [sp]
 275 0022 231C     		mov	r3, r4
 276 0024 FFF7FEFF 		bl	CalculateThresholds_P4_v2_60
 246:Generated_Source\PSoC4/CapSense_1_SMS.c **** 
 247:Generated_Source\PSoC4/CapSense_1_SMS.c ****         fingerThreshold = CapSense_1_fingerThreshold[widget];
 277              		.loc 1 247 0
 278 0028 0B23     		mov	r3, #11
 279 002a FB18     		add	r3, r7, r3
 280 002c 2C49     		ldr	r1, .L16+8
 281 002e FA68     		ldr	r2, [r7, #12]
 282 0030 8A18     		add	r2, r1, r2
 283 0032 1278     		ldrb	r2, [r2]
 284 0034 1A70     		strb	r2, [r3]
 248:Generated_Source\PSoC4/CapSense_1_SMS.c **** 
 249:Generated_Source\PSoC4/CapSense_1_SMS.c ****         /* Update Threshold based on calculated with Smartsense (automatic) */
 250:Generated_Source\PSoC4/CapSense_1_SMS.c ****         CapSense_1_negativeNoiseThreshold[widget] = CapSense_1_noiseThreshold[widget];
 285              		.loc 1 250 0
 286 0036 2B4A     		ldr	r2, .L16+12
 287 0038 FB68     		ldr	r3, [r7, #12]
 288 003a D318     		add	r3, r2, r3
 289 003c 1978     		ldrb	r1, [r3]
 290 003e 2A4A     		ldr	r2, .L16+16
 291 0040 FB68     		ldr	r3, [r7, #12]
 292 0042 D318     		add	r3, r2, r3
 293 0044 0A1C     		add	r2, r1, #0
 294 0046 1A70     		strb	r2, [r3]
 251:Generated_Source\PSoC4/CapSense_1_SMS.c **** 
 252:Generated_Source\PSoC4/CapSense_1_SMS.c ****         if(fingerThreshold < CapSense_1_THRESHOLD_1)
 295              		.loc 1 252 0
 296 0048 0B23     		mov	r3, #11
 297 004a FB18     		add	r3, r7, r3
 298 004c 1B78     		ldrb	r3, [r3]
 299 004e DB2B     		cmp	r3, #219
 300 0050 0AD8     		bhi	.L11
 253:Generated_Source\PSoC4/CapSense_1_SMS.c ****         {
 254:Generated_Source\PSoC4/CapSense_1_SMS.c ****             CapSense_1_hysteresis[widget] = (uint8)(fingerThreshold >> 3u);
 301              		.loc 1 254 0
 302 0052 0B23     		mov	r3, #11
 303 0054 FB18     		add	r3, r7, r3
 304 0056 1B78     		ldrb	r3, [r3]
 305 0058 DB08     		lsr	r3, r3, #3
 306 005a D9B2     		uxtb	r1, r3
 307 005c 234A     		ldr	r2, .L16+20
 308 005e FB68     		ldr	r3, [r7, #12]
 309 0060 D318     		add	r3, r2, r3
 310 0062 0A1C     		add	r2, r1, #0
ARM GAS  C:\Users\IGOR~1.HOL\AppData\Local\Temp\cchTEJnV.s 			page 11


 311 0064 1A70     		strb	r2, [r3]
 312 0066 34E0     		b	.L10
 313              	.L11:
 255:Generated_Source\PSoC4/CapSense_1_SMS.c ****         }
 256:Generated_Source\PSoC4/CapSense_1_SMS.c ****         else if(fingerThreshold <  CapSense_1_THRESHOLD_2)
 314              		.loc 1 256 0
 315 0068 0B23     		mov	r3, #11
 316 006a FB18     		add	r3, r7, r3
 317 006c 1B78     		ldrb	r3, [r3]
 318 006e EC2B     		cmp	r3, #236
 319 0070 0AD8     		bhi	.L13
 257:Generated_Source\PSoC4/CapSense_1_SMS.c ****         {
 258:Generated_Source\PSoC4/CapSense_1_SMS.c ****             CapSense_1_hysteresis[widget] = (uint8)(fingerThreshold >> 4u);
 320              		.loc 1 258 0
 321 0072 0B23     		mov	r3, #11
 322 0074 FB18     		add	r3, r7, r3
 323 0076 1B78     		ldrb	r3, [r3]
 324 0078 1B09     		lsr	r3, r3, #4
 325 007a D9B2     		uxtb	r1, r3
 326 007c 1B4A     		ldr	r2, .L16+20
 327 007e FB68     		ldr	r3, [r7, #12]
 328 0080 D318     		add	r3, r2, r3
 329 0082 0A1C     		add	r2, r1, #0
 330 0084 1A70     		strb	r2, [r3]
 331 0086 24E0     		b	.L10
 332              	.L13:
 259:Generated_Source\PSoC4/CapSense_1_SMS.c ****         }
 260:Generated_Source\PSoC4/CapSense_1_SMS.c ****         else if(fingerThreshold <  CapSense_1_THRESHOLD_3)
 333              		.loc 1 260 0
 334 0088 0B23     		mov	r3, #11
 335 008a FB18     		add	r3, r7, r3
 336 008c 1B78     		ldrb	r3, [r3]
 337 008e F42B     		cmp	r3, #244
 338 0090 0AD8     		bhi	.L14
 261:Generated_Source\PSoC4/CapSense_1_SMS.c ****         {
 262:Generated_Source\PSoC4/CapSense_1_SMS.c ****             CapSense_1_hysteresis[widget] = (uint8)(fingerThreshold >> 5u);
 339              		.loc 1 262 0
 340 0092 0B23     		mov	r3, #11
 341 0094 FB18     		add	r3, r7, r3
 342 0096 1B78     		ldrb	r3, [r3]
 343 0098 5B09     		lsr	r3, r3, #5
 344 009a D9B2     		uxtb	r1, r3
 345 009c 134A     		ldr	r2, .L16+20
 346 009e FB68     		ldr	r3, [r7, #12]
 347 00a0 D318     		add	r3, r2, r3
 348 00a2 0A1C     		add	r2, r1, #0
 349 00a4 1A70     		strb	r2, [r3]
 350 00a6 14E0     		b	.L10
 351              	.L14:
 263:Generated_Source\PSoC4/CapSense_1_SMS.c ****         }
 264:Generated_Source\PSoC4/CapSense_1_SMS.c ****         else if(fingerThreshold <  CapSense_1_THRESHOLD_4)
 352              		.loc 1 264 0
 353 00a8 0B23     		mov	r3, #11
 354 00aa FB18     		add	r3, r7, r3
 355 00ac 1B78     		ldrb	r3, [r3]
 356 00ae F92B     		cmp	r3, #249
 357 00b0 0AD8     		bhi	.L15
ARM GAS  C:\Users\IGOR~1.HOL\AppData\Local\Temp\cchTEJnV.s 			page 12


 265:Generated_Source\PSoC4/CapSense_1_SMS.c ****         {
 266:Generated_Source\PSoC4/CapSense_1_SMS.c ****             CapSense_1_hysteresis[widget] = (uint8)(fingerThreshold >> 6u);
 358              		.loc 1 266 0
 359 00b2 0B23     		mov	r3, #11
 360 00b4 FB18     		add	r3, r7, r3
 361 00b6 1B78     		ldrb	r3, [r3]
 362 00b8 9B09     		lsr	r3, r3, #6
 363 00ba D9B2     		uxtb	r1, r3
 364 00bc 0B4A     		ldr	r2, .L16+20
 365 00be FB68     		ldr	r3, [r7, #12]
 366 00c0 D318     		add	r3, r2, r3
 367 00c2 0A1C     		add	r2, r1, #0
 368 00c4 1A70     		strb	r2, [r3]
 369 00c6 04E0     		b	.L10
 370              	.L15:
 267:Generated_Source\PSoC4/CapSense_1_SMS.c ****         }
 268:Generated_Source\PSoC4/CapSense_1_SMS.c ****         else
 269:Generated_Source\PSoC4/CapSense_1_SMS.c ****         {
 270:Generated_Source\PSoC4/CapSense_1_SMS.c ****             CapSense_1_hysteresis[widget] = 0u;
 371              		.loc 1 270 0
 372 00c8 084A     		ldr	r2, .L16+20
 373 00ca FB68     		ldr	r3, [r7, #12]
 374 00cc D318     		add	r3, r2, r3
 375 00ce 0022     		mov	r2, #0
 376 00d0 1A70     		strb	r2, [r3]
 377              	.L10:
 271:Generated_Source\PSoC4/CapSense_1_SMS.c ****         }
 272:Generated_Source\PSoC4/CapSense_1_SMS.c ****     #endif /* (0u != CapSense_1_FLEXIBLE_THRESHOLDS_EN)  */
 273:Generated_Source\PSoC4/CapSense_1_SMS.c **** }
 378              		.loc 1 273 0
 379 00d2 BD46     		mov	sp, r7
 380 00d4 05B0     		add	sp, sp, #20
 381              		@ sp needed
 382 00d6 90BD     		pop	{r4, r7, pc}
 383              	.L17:
 384              		.align	2
 385              	.L16:
 386 00d8 00000000 		.word	CapSense_1_widgetNumber
 387 00dc 00000000 		.word	CapSense_1_config
 388 00e0 00000000 		.word	CapSense_1_fingerThreshold
 389 00e4 00000000 		.word	CapSense_1_noiseThreshold
 390 00e8 00000000 		.word	CapSense_1_negativeNoiseThreshold
 391 00ec 00000000 		.word	CapSense_1_hysteresis
 392              		.cfi_endproc
 393              	.LFE36:
 394              		.size	CapSense_1_UpdateThresholds, .-CapSense_1_UpdateThresholds
 395              		.section	.text.CapSense_1_SetAnalogSwitchesSrcDirect,"ax",%progbits
 396              		.align	2
 397              		.global	CapSense_1_SetAnalogSwitchesSrcDirect
 398              		.code	16
 399              		.thumb_func
 400              		.type	CapSense_1_SetAnalogSwitchesSrcDirect, %function
 401              	CapSense_1_SetAnalogSwitchesSrcDirect:
 402              	.LFB37:
 274:Generated_Source\PSoC4/CapSense_1_SMS.c **** 
 275:Generated_Source\PSoC4/CapSense_1_SMS.c **** /*******************************************************************************
 276:Generated_Source\PSoC4/CapSense_1_SMS.c **** * Function Name: CapSense_1_SetAnalogSwitchesSrcDirect
ARM GAS  C:\Users\IGOR~1.HOL\AppData\Local\Temp\cchTEJnV.s 			page 13


 277:Generated_Source\PSoC4/CapSense_1_SMS.c **** ********************************************************************************
 278:Generated_Source\PSoC4/CapSense_1_SMS.c **** *
 279:Generated_Source\PSoC4/CapSense_1_SMS.c **** * Summary:
 280:Generated_Source\PSoC4/CapSense_1_SMS.c **** *  This API switches the charge clock source to prescaler.
 281:Generated_Source\PSoC4/CapSense_1_SMS.c **** *
 282:Generated_Source\PSoC4/CapSense_1_SMS.c **** * Parameters:
 283:Generated_Source\PSoC4/CapSense_1_SMS.c **** *  None
 284:Generated_Source\PSoC4/CapSense_1_SMS.c **** *
 285:Generated_Source\PSoC4/CapSense_1_SMS.c **** * Return:
 286:Generated_Source\PSoC4/CapSense_1_SMS.c **** *  None
 287:Generated_Source\PSoC4/CapSense_1_SMS.c **** *
 288:Generated_Source\PSoC4/CapSense_1_SMS.c **** * Global Variables:
 289:Generated_Source\PSoC4/CapSense_1_SMS.c **** *  None
 290:Generated_Source\PSoC4/CapSense_1_SMS.c **** *
 291:Generated_Source\PSoC4/CapSense_1_SMS.c **** * Side Effects:
 292:Generated_Source\PSoC4/CapSense_1_SMS.c **** *  None
 293:Generated_Source\PSoC4/CapSense_1_SMS.c **** *
 294:Generated_Source\PSoC4/CapSense_1_SMS.c **** *******************************************************************************/
 295:Generated_Source\PSoC4/CapSense_1_SMS.c **** void CapSense_1_SetAnalogSwitchesSrcDirect(void)
 296:Generated_Source\PSoC4/CapSense_1_SMS.c **** {
 403              		.loc 1 296 0
 404              		.cfi_startproc
 405 0000 80B5     		push	{r7, lr}
 406              		.cfi_def_cfa_offset 8
 407              		.cfi_offset 7, -8
 408              		.cfi_offset 14, -4
 409 0002 00AF     		add	r7, sp, #0
 410              		.cfi_def_cfa_register 7
 297:Generated_Source\PSoC4/CapSense_1_SMS.c ****     CapSense_1_CSD_CFG_REG &= ~(CapSense_1_CSD_CFG_PRS_SELECT);
 411              		.loc 1 297 0
 412 0004 034B     		ldr	r3, .L19
 413 0006 034A     		ldr	r2, .L19
 414 0008 1268     		ldr	r2, [r2]
 415 000a 4021     		mov	r1, #64
 416 000c 8A43     		bic	r2, r1
 417 000e 1A60     		str	r2, [r3]
 298:Generated_Source\PSoC4/CapSense_1_SMS.c **** }
 418              		.loc 1 298 0
 419 0010 BD46     		mov	sp, r7
 420              		@ sp needed
 421 0012 80BD     		pop	{r7, pc}
 422              	.L20:
 423              		.align	2
 424              	.L19:
 425 0014 04002940 		.word	1076428804
 426              		.cfi_endproc
 427              	.LFE37:
 428              		.size	CapSense_1_SetAnalogSwitchesSrcDirect, .-CapSense_1_SetAnalogSwitchesSrcDirect
 429              		.section	.text.CapSense_1_DisableBaselineIDAC,"ax",%progbits
 430              		.align	2
 431              		.global	CapSense_1_DisableBaselineIDAC
 432              		.code	16
 433              		.thumb_func
 434              		.type	CapSense_1_DisableBaselineIDAC, %function
 435              	CapSense_1_DisableBaselineIDAC:
 436              	.LFB38:
 299:Generated_Source\PSoC4/CapSense_1_SMS.c **** 
ARM GAS  C:\Users\IGOR~1.HOL\AppData\Local\Temp\cchTEJnV.s 			page 14


 300:Generated_Source\PSoC4/CapSense_1_SMS.c **** 
 301:Generated_Source\PSoC4/CapSense_1_SMS.c **** /*******************************************************************************
 302:Generated_Source\PSoC4/CapSense_1_SMS.c **** * Function Name: CapSense_1_DisableBaselineIDAC
 303:Generated_Source\PSoC4/CapSense_1_SMS.c **** ********************************************************************************
 304:Generated_Source\PSoC4/CapSense_1_SMS.c **** *
 305:Generated_Source\PSoC4/CapSense_1_SMS.c **** * Summary:
 306:Generated_Source\PSoC4/CapSense_1_SMS.c **** *  The API disables the Compensation IDAC.
 307:Generated_Source\PSoC4/CapSense_1_SMS.c **** *
 308:Generated_Source\PSoC4/CapSense_1_SMS.c **** * Parameters:
 309:Generated_Source\PSoC4/CapSense_1_SMS.c **** *  None
 310:Generated_Source\PSoC4/CapSense_1_SMS.c **** *
 311:Generated_Source\PSoC4/CapSense_1_SMS.c **** * Return:
 312:Generated_Source\PSoC4/CapSense_1_SMS.c **** *  None
 313:Generated_Source\PSoC4/CapSense_1_SMS.c **** *
 314:Generated_Source\PSoC4/CapSense_1_SMS.c **** * Global Variables:
 315:Generated_Source\PSoC4/CapSense_1_SMS.c **** *  None
 316:Generated_Source\PSoC4/CapSense_1_SMS.c **** *
 317:Generated_Source\PSoC4/CapSense_1_SMS.c **** * Side Effects:
 318:Generated_Source\PSoC4/CapSense_1_SMS.c **** *  None
 319:Generated_Source\PSoC4/CapSense_1_SMS.c **** *
 320:Generated_Source\PSoC4/CapSense_1_SMS.c **** *******************************************************************************/
 321:Generated_Source\PSoC4/CapSense_1_SMS.c **** void CapSense_1_DisableBaselineIDAC(void)
 322:Generated_Source\PSoC4/CapSense_1_SMS.c **** {
 437              		.loc 1 322 0
 438              		.cfi_startproc
 439 0000 80B5     		push	{r7, lr}
 440              		.cfi_def_cfa_offset 8
 441              		.cfi_offset 7, -8
 442              		.cfi_offset 14, -4
 443 0002 82B0     		sub	sp, sp, #8
 444              		.cfi_def_cfa_offset 16
 445 0004 00AF     		add	r7, sp, #0
 446              		.cfi_def_cfa_register 7
 323:Generated_Source\PSoC4/CapSense_1_SMS.c ****     uint32 newRegValue;
 324:Generated_Source\PSoC4/CapSense_1_SMS.c **** 
 325:Generated_Source\PSoC4/CapSense_1_SMS.c ****     newRegValue = CapSense_1_CSD_IDAC_REG;
 447              		.loc 1 325 0
 448 0006 094B     		ldr	r3, .L22
 449 0008 1B68     		ldr	r3, [r3]
 450 000a 7B60     		str	r3, [r7, #4]
 326:Generated_Source\PSoC4/CapSense_1_SMS.c **** 
 327:Generated_Source\PSoC4/CapSense_1_SMS.c ****     newRegValue &= ~(CapSense_1_CSD_IDAC1_MODE_MASK | CapSense_1_CSD_IDAC2_MODE_MASK);
 451              		.loc 1 327 0
 452 000c 7B68     		ldr	r3, [r7, #4]
 453 000e 084A     		ldr	r2, .L22+4
 454 0010 1340     		and	r3, r2
 455 0012 7B60     		str	r3, [r7, #4]
 328:Generated_Source\PSoC4/CapSense_1_SMS.c ****     newRegValue |= CapSense_1_CSD_IDAC1_MODE_VARIABLE;
 456              		.loc 1 328 0
 457 0014 7B68     		ldr	r3, [r7, #4]
 458 0016 8022     		mov	r2, #128
 459 0018 9200     		lsl	r2, r2, #2
 460 001a 1343     		orr	r3, r2
 461 001c 7B60     		str	r3, [r7, #4]
 329:Generated_Source\PSoC4/CapSense_1_SMS.c **** 
 330:Generated_Source\PSoC4/CapSense_1_SMS.c ****     CapSense_1_CSD_IDAC_REG = newRegValue;
 462              		.loc 1 330 0
ARM GAS  C:\Users\IGOR~1.HOL\AppData\Local\Temp\cchTEJnV.s 			page 15


 463 001e 034B     		ldr	r3, .L22
 464 0020 7A68     		ldr	r2, [r7, #4]
 465 0022 1A60     		str	r2, [r3]
 331:Generated_Source\PSoC4/CapSense_1_SMS.c **** }
 466              		.loc 1 331 0
 467 0024 BD46     		mov	sp, r7
 468 0026 02B0     		add	sp, sp, #8
 469              		@ sp needed
 470 0028 80BD     		pop	{r7, pc}
 471              	.L23:
 472 002a C046     		.align	2
 473              	.L22:
 474 002c 08002940 		.word	1076428808
 475 0030 FFFCFFFC 		.word	-50332417
 476              		.cfi_endproc
 477              	.LFE38:
 478              		.size	CapSense_1_DisableBaselineIDAC, .-CapSense_1_DisableBaselineIDAC
 479              		.section	.text.CapSense_1_EnableBaselineIDAC,"ax",%progbits
 480              		.align	2
 481              		.global	CapSense_1_EnableBaselineIDAC
 482              		.code	16
 483              		.thumb_func
 484              		.type	CapSense_1_EnableBaselineIDAC, %function
 485              	CapSense_1_EnableBaselineIDAC:
 486              	.LFB39:
 332:Generated_Source\PSoC4/CapSense_1_SMS.c **** 
 333:Generated_Source\PSoC4/CapSense_1_SMS.c **** 
 334:Generated_Source\PSoC4/CapSense_1_SMS.c **** /*******************************************************************************
 335:Generated_Source\PSoC4/CapSense_1_SMS.c **** * Function Name: CapSense_1_EnableBaselineIDAC
 336:Generated_Source\PSoC4/CapSense_1_SMS.c **** ********************************************************************************
 337:Generated_Source\PSoC4/CapSense_1_SMS.c **** *
 338:Generated_Source\PSoC4/CapSense_1_SMS.c **** * Summary:
 339:Generated_Source\PSoC4/CapSense_1_SMS.c **** *  The API enables the Compensation IDAC.
 340:Generated_Source\PSoC4/CapSense_1_SMS.c **** *
 341:Generated_Source\PSoC4/CapSense_1_SMS.c **** * Parameters:
 342:Generated_Source\PSoC4/CapSense_1_SMS.c **** *  None
 343:Generated_Source\PSoC4/CapSense_1_SMS.c **** *
 344:Generated_Source\PSoC4/CapSense_1_SMS.c **** * Return:
 345:Generated_Source\PSoC4/CapSense_1_SMS.c **** *  None
 346:Generated_Source\PSoC4/CapSense_1_SMS.c **** *
 347:Generated_Source\PSoC4/CapSense_1_SMS.c **** * Global Variables:
 348:Generated_Source\PSoC4/CapSense_1_SMS.c **** *  CapSense_1_compensationIDAC[] - used to store a 7-bit idac value for all the sensors.
 349:Generated_Source\PSoC4/CapSense_1_SMS.c **** *
 350:Generated_Source\PSoC4/CapSense_1_SMS.c **** * Side Effects:
 351:Generated_Source\PSoC4/CapSense_1_SMS.c **** *  None
 352:Generated_Source\PSoC4/CapSense_1_SMS.c **** *
 353:Generated_Source\PSoC4/CapSense_1_SMS.c **** *******************************************************************************/
 354:Generated_Source\PSoC4/CapSense_1_SMS.c **** void  CapSense_1_EnableBaselineIDAC(const CapSense_1_CONFIG_TYPE_P4_v2_60 *config)
 355:Generated_Source\PSoC4/CapSense_1_SMS.c **** {
 487              		.loc 1 355 0
 488              		.cfi_startproc
 489 0000 80B5     		push	{r7, lr}
 490              		.cfi_def_cfa_offset 8
 491              		.cfi_offset 7, -8
 492              		.cfi_offset 14, -4
 493 0002 84B0     		sub	sp, sp, #16
 494              		.cfi_def_cfa_offset 24
ARM GAS  C:\Users\IGOR~1.HOL\AppData\Local\Temp\cchTEJnV.s 			page 16


 495 0004 00AF     		add	r7, sp, #0
 496              		.cfi_def_cfa_register 7
 497 0006 7860     		str	r0, [r7, #4]
 356:Generated_Source\PSoC4/CapSense_1_SMS.c ****     uint32 curSensor;
 357:Generated_Source\PSoC4/CapSense_1_SMS.c ****     uint32 newRegValue;
 358:Generated_Source\PSoC4/CapSense_1_SMS.c **** 
 359:Generated_Source\PSoC4/CapSense_1_SMS.c ****     for(curSensor = 0u; curSensor < config->totalScanslotsNum; curSensor++)
 498              		.loc 1 359 0
 499 0008 0023     		mov	r3, #0
 500 000a FB60     		str	r3, [r7, #12]
 501 000c 19E0     		b	.L25
 502              	.L26:
 360:Generated_Source\PSoC4/CapSense_1_SMS.c ****     {
 361:Generated_Source\PSoC4/CapSense_1_SMS.c ****         CapSense_1_compensationIDAC[curSensor] = CapSense_1_modulationIDAC[curSensor] / 2u;
 503              		.loc 1 361 0 discriminator 3
 504 000e 1B4A     		ldr	r2, .L27
 505 0010 FB68     		ldr	r3, [r7, #12]
 506 0012 D318     		add	r3, r2, r3
 507 0014 1B78     		ldrb	r3, [r3]
 508 0016 5B08     		lsr	r3, r3, #1
 509 0018 D9B2     		uxtb	r1, r3
 510 001a 194A     		ldr	r2, .L27+4
 511 001c FB68     		ldr	r3, [r7, #12]
 512 001e D318     		add	r3, r2, r3
 513 0020 0A1C     		add	r2, r1, #0
 514 0022 1A70     		strb	r2, [r3]
 362:Generated_Source\PSoC4/CapSense_1_SMS.c ****         CapSense_1_modulationIDAC[curSensor] = (CapSense_1_modulationIDAC[curSensor] + 1u) / 2u;
 515              		.loc 1 362 0 discriminator 3
 516 0024 154A     		ldr	r2, .L27
 517 0026 FB68     		ldr	r3, [r7, #12]
 518 0028 D318     		add	r3, r2, r3
 519 002a 1B78     		ldrb	r3, [r3]
 520 002c 0133     		add	r3, r3, #1
 521 002e 5B08     		lsr	r3, r3, #1
 522 0030 D9B2     		uxtb	r1, r3
 523 0032 124A     		ldr	r2, .L27
 524 0034 FB68     		ldr	r3, [r7, #12]
 525 0036 D318     		add	r3, r2, r3
 526 0038 0A1C     		add	r2, r1, #0
 527 003a 1A70     		strb	r2, [r3]
 359:Generated_Source\PSoC4/CapSense_1_SMS.c ****     {
 528              		.loc 1 359 0 discriminator 3
 529 003c FB68     		ldr	r3, [r7, #12]
 530 003e 0133     		add	r3, r3, #1
 531 0040 FB60     		str	r3, [r7, #12]
 532              	.L25:
 359:Generated_Source\PSoC4/CapSense_1_SMS.c ****     {
 533              		.loc 1 359 0 is_stmt 0 discriminator 1
 534 0042 7B68     		ldr	r3, [r7, #4]
 535 0044 1B78     		ldrb	r3, [r3]
 536 0046 1A1E     		sub	r2, r3, #0
 537 0048 FB68     		ldr	r3, [r7, #12]
 538 004a 9A42     		cmp	r2, r3
 539 004c DFD8     		bhi	.L26
 363:Generated_Source\PSoC4/CapSense_1_SMS.c ****     }
 364:Generated_Source\PSoC4/CapSense_1_SMS.c **** 
 365:Generated_Source\PSoC4/CapSense_1_SMS.c ****     CyIntDisable(CapSense_1_ISR_NUMBER);
ARM GAS  C:\Users\IGOR~1.HOL\AppData\Local\Temp\cchTEJnV.s 			page 17


 540              		.loc 1 365 0 is_stmt 1
 541 004e 1220     		mov	r0, #18
 542 0050 FFF7FEFF 		bl	CyIntDisable
 366:Generated_Source\PSoC4/CapSense_1_SMS.c **** 
 367:Generated_Source\PSoC4/CapSense_1_SMS.c ****     newRegValue = CapSense_1_CSD_IDAC_REG;
 543              		.loc 1 367 0
 544 0054 0B4B     		ldr	r3, .L27+8
 545 0056 1B68     		ldr	r3, [r3]
 546 0058 BB60     		str	r3, [r7, #8]
 368:Generated_Source\PSoC4/CapSense_1_SMS.c ****     newRegValue &= ~(CapSense_1_CSD_IDAC1_MODE_MASK | CapSense_1_CSD_IDAC2_MODE_MASK);
 547              		.loc 1 368 0
 548 005a BB68     		ldr	r3, [r7, #8]
 549 005c 0A4A     		ldr	r2, .L27+12
 550 005e 1340     		and	r3, r2
 551 0060 BB60     		str	r3, [r7, #8]
 369:Generated_Source\PSoC4/CapSense_1_SMS.c ****     newRegValue |= (CapSense_1_CSD_IDAC1_MODE_VARIABLE | CapSense_1_CSD_IDAC2_MODE_FIXED);
 552              		.loc 1 369 0
 553 0062 BB68     		ldr	r3, [r7, #8]
 554 0064 094A     		ldr	r2, .L27+16
 555 0066 1343     		orr	r3, r2
 556 0068 BB60     		str	r3, [r7, #8]
 370:Generated_Source\PSoC4/CapSense_1_SMS.c ****     CapSense_1_CSD_IDAC_REG = newRegValue;
 557              		.loc 1 370 0
 558 006a 064B     		ldr	r3, .L27+8
 559 006c BA68     		ldr	r2, [r7, #8]
 560 006e 1A60     		str	r2, [r3]
 371:Generated_Source\PSoC4/CapSense_1_SMS.c **** 
 372:Generated_Source\PSoC4/CapSense_1_SMS.c ****     CyIntEnable(CapSense_1_ISR_NUMBER);
 561              		.loc 1 372 0
 562 0070 1220     		mov	r0, #18
 563 0072 FFF7FEFF 		bl	CyIntEnable
 373:Generated_Source\PSoC4/CapSense_1_SMS.c **** }
 564              		.loc 1 373 0
 565 0076 BD46     		mov	sp, r7
 566 0078 04B0     		add	sp, sp, #16
 567              		@ sp needed
 568 007a 80BD     		pop	{r7, pc}
 569              	.L28:
 570              		.align	2
 571              	.L27:
 572 007c 00000000 		.word	CapSense_1_modulationIDAC
 573 0080 00000000 		.word	CapSense_1_compensationIDAC
 574 0084 08002940 		.word	1076428808
 575 0088 FFFCFFFC 		.word	-50332417
 576 008c 00020001 		.word	16777728
 577              		.cfi_endproc
 578              	.LFE39:
 579              		.size	CapSense_1_EnableBaselineIDAC, .-CapSense_1_EnableBaselineIDAC
 580              		.section	.text.CapSense_1_SetSensitivity,"ax",%progbits
 581              		.align	2
 582              		.global	CapSense_1_SetSensitivity
 583              		.code	16
 584              		.thumb_func
 585              		.type	CapSense_1_SetSensitivity, %function
 586              	CapSense_1_SetSensitivity:
 587              	.LFB40:
 374:Generated_Source\PSoC4/CapSense_1_SMS.c **** 
ARM GAS  C:\Users\IGOR~1.HOL\AppData\Local\Temp\cchTEJnV.s 			page 18


 375:Generated_Source\PSoC4/CapSense_1_SMS.c **** 
 376:Generated_Source\PSoC4/CapSense_1_SMS.c **** /*******************************************************************************
 377:Generated_Source\PSoC4/CapSense_1_SMS.c **** * Function Name: CapSense_1_SetSensitivity
 378:Generated_Source\PSoC4/CapSense_1_SMS.c **** ********************************************************************************
 379:Generated_Source\PSoC4/CapSense_1_SMS.c **** *
 380:Generated_Source\PSoC4/CapSense_1_SMS.c **** * Summary:
 381:Generated_Source\PSoC4/CapSense_1_SMS.c **** *  This API sets the sensitivity value for the sensor. The sensitivity
 382:Generated_Source\PSoC4/CapSense_1_SMS.c **** *  value is used during the auto-tuning algorithm executed as part of the CapSense_Start API.
 383:Generated_Source\PSoC4/CapSense_1_SMS.c **** *  This API is called by the application layer prior to calling the CapSense_Start API.
 384:Generated_Source\PSoC4/CapSense_1_SMS.c **** *  Calling this API after execution of CapSense_Start API has no effect.
 385:Generated_Source\PSoC4/CapSense_1_SMS.c **** *
 386:Generated_Source\PSoC4/CapSense_1_SMS.c **** * Parameters:
 387:Generated_Source\PSoC4/CapSense_1_SMS.c **** *  sensor  Sensor index
 388:Generated_Source\PSoC4/CapSense_1_SMS.c **** *  data    Sensitivity of the sensor. Possible values are below
 389:Generated_Source\PSoC4/CapSense_1_SMS.c **** *  1 - 0.1pf sensitivity
 390:Generated_Source\PSoC4/CapSense_1_SMS.c **** *  2 - 0.2pf sensitivity
 391:Generated_Source\PSoC4/CapSense_1_SMS.c **** *  3 - 0.3pf sensitivity
 392:Generated_Source\PSoC4/CapSense_1_SMS.c **** *  4 - 0.4pf sensitivity
 393:Generated_Source\PSoC4/CapSense_1_SMS.c **** *  5 - 0.5pf sensitivity
 394:Generated_Source\PSoC4/CapSense_1_SMS.c **** *  6 - 0.6pf sensitivity
 395:Generated_Source\PSoC4/CapSense_1_SMS.c **** *  7 - 0.7pf sensitivity
 396:Generated_Source\PSoC4/CapSense_1_SMS.c **** *  8 - 0.8pf sensitivity
 397:Generated_Source\PSoC4/CapSense_1_SMS.c **** *  9 - 0.9pf sensitivity
 398:Generated_Source\PSoC4/CapSense_1_SMS.c **** *  10 - 1.0pf sensitivity
 399:Generated_Source\PSoC4/CapSense_1_SMS.c **** *  All other values, set sensitivity to 1.0pf
 400:Generated_Source\PSoC4/CapSense_1_SMS.c **** *
 401:Generated_Source\PSoC4/CapSense_1_SMS.c **** *  Return Value:
 402:Generated_Source\PSoC4/CapSense_1_SMS.c **** *   None
 403:Generated_Source\PSoC4/CapSense_1_SMS.c **** *
 404:Generated_Source\PSoC4/CapSense_1_SMS.c **** * Global Variables:
 405:Generated_Source\PSoC4/CapSense_1_SMS.c **** * CapSense_1_sensorSensitivity[] - This 8-bits array contains Sensitivity in the LSB nibble
 406:Generated_Source\PSoC4/CapSense_1_SMS.c **** *                                and Noise Reset Counter value in the MSB nibble.
 407:Generated_Source\PSoC4/CapSense_1_SMS.c **** *
 408:Generated_Source\PSoC4/CapSense_1_SMS.c **** * Side Effects:
 409:Generated_Source\PSoC4/CapSense_1_SMS.c **** *  None
 410:Generated_Source\PSoC4/CapSense_1_SMS.c **** *
 411:Generated_Source\PSoC4/CapSense_1_SMS.c **** *******************************************************************************/
 412:Generated_Source\PSoC4/CapSense_1_SMS.c **** void CapSense_1_SetSensitivity(uint32 sensor, uint32 value)
 413:Generated_Source\PSoC4/CapSense_1_SMS.c **** {
 588              		.loc 1 413 0
 589              		.cfi_startproc
 590 0000 80B5     		push	{r7, lr}
 591              		.cfi_def_cfa_offset 8
 592              		.cfi_offset 7, -8
 593              		.cfi_offset 14, -4
 594 0002 82B0     		sub	sp, sp, #8
 595              		.cfi_def_cfa_offset 16
 596 0004 00AF     		add	r7, sp, #0
 597              		.cfi_def_cfa_register 7
 598 0006 7860     		str	r0, [r7, #4]
 599 0008 3960     		str	r1, [r7]
 414:Generated_Source\PSoC4/CapSense_1_SMS.c ****     if(value > 10u)
 600              		.loc 1 414 0
 601 000a 3B68     		ldr	r3, [r7]
 602 000c 0A2B     		cmp	r3, #10
 603 000e 01D9     		bls	.L30
 415:Generated_Source\PSoC4/CapSense_1_SMS.c ****     {
ARM GAS  C:\Users\IGOR~1.HOL\AppData\Local\Temp\cchTEJnV.s 			page 19


 416:Generated_Source\PSoC4/CapSense_1_SMS.c ****         value = 10u;
 604              		.loc 1 416 0
 605 0010 0A23     		mov	r3, #10
 606 0012 3B60     		str	r3, [r7]
 607              	.L30:
 417:Generated_Source\PSoC4/CapSense_1_SMS.c ****     }
 418:Generated_Source\PSoC4/CapSense_1_SMS.c **** 
 419:Generated_Source\PSoC4/CapSense_1_SMS.c ****     /* Clear SensorSensitivity value in LSB nibble */
 420:Generated_Source\PSoC4/CapSense_1_SMS.c ****     CapSense_1_sensorSensitivity[sensor] &= (uint8)~CapSense_1_SENSITIVITY_MASK;
 608              		.loc 1 420 0
 609 0014 0D4A     		ldr	r2, .L31
 610 0016 7B68     		ldr	r3, [r7, #4]
 611 0018 D318     		add	r3, r2, r3
 612 001a 1B78     		ldrb	r3, [r3]
 613 001c 0F22     		mov	r2, #15
 614 001e 9343     		bic	r3, r2
 615 0020 D9B2     		uxtb	r1, r3
 616 0022 0A4A     		ldr	r2, .L31
 617 0024 7B68     		ldr	r3, [r7, #4]
 618 0026 D318     		add	r3, r2, r3
 619 0028 0A1C     		add	r2, r1, #0
 620 002a 1A70     		strb	r2, [r3]
 421:Generated_Source\PSoC4/CapSense_1_SMS.c ****     /* Set SensorSensitivity value in LSB nibble */
 422:Generated_Source\PSoC4/CapSense_1_SMS.c ****     CapSense_1_sensorSensitivity[sensor] |= (uint8)value;
 621              		.loc 1 422 0
 622 002c 074A     		ldr	r2, .L31
 623 002e 7B68     		ldr	r3, [r7, #4]
 624 0030 D318     		add	r3, r2, r3
 625 0032 1A78     		ldrb	r2, [r3]
 626 0034 3B68     		ldr	r3, [r7]
 627 0036 DBB2     		uxtb	r3, r3
 628 0038 1343     		orr	r3, r2
 629 003a D9B2     		uxtb	r1, r3
 630 003c 034A     		ldr	r2, .L31
 631 003e 7B68     		ldr	r3, [r7, #4]
 632 0040 D318     		add	r3, r2, r3
 633 0042 0A1C     		add	r2, r1, #0
 634 0044 1A70     		strb	r2, [r3]
 423:Generated_Source\PSoC4/CapSense_1_SMS.c **** }
 635              		.loc 1 423 0
 636 0046 BD46     		mov	sp, r7
 637 0048 02B0     		add	sp, sp, #8
 638              		@ sp needed
 639 004a 80BD     		pop	{r7, pc}
 640              	.L32:
 641              		.align	2
 642              	.L31:
 643 004c 00000000 		.word	CapSense_1_sensorSensitivity
 644              		.cfi_endproc
 645              	.LFE40:
 646              		.size	CapSense_1_SetSensitivity, .-CapSense_1_SetSensitivity
 647              		.section	.text.CapSense_1_GetSensitivityCoefficient,"ax",%progbits
 648              		.align	2
 649              		.global	CapSense_1_GetSensitivityCoefficient
 650              		.code	16
 651              		.thumb_func
 652              		.type	CapSense_1_GetSensitivityCoefficient, %function
ARM GAS  C:\Users\IGOR~1.HOL\AppData\Local\Temp\cchTEJnV.s 			page 20


 653              	CapSense_1_GetSensitivityCoefficient:
 654              	.LFB41:
 424:Generated_Source\PSoC4/CapSense_1_SMS.c **** 
 425:Generated_Source\PSoC4/CapSense_1_SMS.c **** 
 426:Generated_Source\PSoC4/CapSense_1_SMS.c **** /*******************************************************************************
 427:Generated_Source\PSoC4/CapSense_1_SMS.c **** * Function Name: CapSense_1_GetSensitivityCoefficient
 428:Generated_Source\PSoC4/CapSense_1_SMS.c **** ********************************************************************************
 429:Generated_Source\PSoC4/CapSense_1_SMS.c **** *
 430:Generated_Source\PSoC4/CapSense_1_SMS.c **** * Summary:
 431:Generated_Source\PSoC4/CapSense_1_SMS.c **** *  This API returns the K coefficient for the appropriate sensor.
 432:Generated_Source\PSoC4/CapSense_1_SMS.c **** *
 433:Generated_Source\PSoC4/CapSense_1_SMS.c **** * Parameters:
 434:Generated_Source\PSoC4/CapSense_1_SMS.c **** *  sensor:  Sensor index
 435:Generated_Source\PSoC4/CapSense_1_SMS.c **** *
 436:Generated_Source\PSoC4/CapSense_1_SMS.c **** *  Return Value:
 437:Generated_Source\PSoC4/CapSense_1_SMS.c **** *   K - value for the appropriate sensor.
 438:Generated_Source\PSoC4/CapSense_1_SMS.c **** *
 439:Generated_Source\PSoC4/CapSense_1_SMS.c **** * Global Variables:
 440:Generated_Source\PSoC4/CapSense_1_SMS.c **** *  CapSense_1_kValueTbl[] - This 8-bits array contains the K value for each sensor.
 441:Generated_Source\PSoC4/CapSense_1_SMS.c **** *
 442:Generated_Source\PSoC4/CapSense_1_SMS.c **** * Side Effects:
 443:Generated_Source\PSoC4/CapSense_1_SMS.c **** *  None
 444:Generated_Source\PSoC4/CapSense_1_SMS.c **** *
 445:Generated_Source\PSoC4/CapSense_1_SMS.c **** *******************************************************************************/
 446:Generated_Source\PSoC4/CapSense_1_SMS.c **** uint8 CapSense_1_GetSensitivityCoefficient(uint32 sensor)
 447:Generated_Source\PSoC4/CapSense_1_SMS.c **** {
 655              		.loc 1 447 0
 656              		.cfi_startproc
 657 0000 80B5     		push	{r7, lr}
 658              		.cfi_def_cfa_offset 8
 659              		.cfi_offset 7, -8
 660              		.cfi_offset 14, -4
 661 0002 82B0     		sub	sp, sp, #8
 662              		.cfi_def_cfa_offset 16
 663 0004 00AF     		add	r7, sp, #0
 664              		.cfi_def_cfa_register 7
 665 0006 7860     		str	r0, [r7, #4]
 448:Generated_Source\PSoC4/CapSense_1_SMS.c ****     return (CapSense_1_kValueTbl[sensor]);
 666              		.loc 1 448 0
 667 0008 034A     		ldr	r2, .L35
 668 000a 7B68     		ldr	r3, [r7, #4]
 669 000c D318     		add	r3, r2, r3
 670 000e 1B78     		ldrb	r3, [r3]
 449:Generated_Source\PSoC4/CapSense_1_SMS.c **** }
 671              		.loc 1 449 0
 672 0010 181C     		mov	r0, r3
 673 0012 BD46     		mov	sp, r7
 674 0014 02B0     		add	sp, sp, #8
 675              		@ sp needed
 676 0016 80BD     		pop	{r7, pc}
 677              	.L36:
 678              		.align	2
 679              	.L35:
 680 0018 00000000 		.word	CapSense_1_kValueTbl
 681              		.cfi_endproc
 682              	.LFE41:
 683              		.size	CapSense_1_GetSensitivityCoefficient, .-CapSense_1_GetSensitivityCoefficient
ARM GAS  C:\Users\IGOR~1.HOL\AppData\Local\Temp\cchTEJnV.s 			page 21


 684              		.section	.text.CapSense_1_GetNoiseEnvelope,"ax",%progbits
 685              		.align	2
 686              		.global	CapSense_1_GetNoiseEnvelope
 687              		.code	16
 688              		.thumb_func
 689              		.type	CapSense_1_GetNoiseEnvelope, %function
 690              	CapSense_1_GetNoiseEnvelope:
 691              	.LFB42:
 450:Generated_Source\PSoC4/CapSense_1_SMS.c **** 
 451:Generated_Source\PSoC4/CapSense_1_SMS.c **** 
 452:Generated_Source\PSoC4/CapSense_1_SMS.c **** /*******************************************************************************
 453:Generated_Source\PSoC4/CapSense_1_SMS.c **** * Function Name: CapSense_1_GetNoiseEnvelope
 454:Generated_Source\PSoC4/CapSense_1_SMS.c **** ********************************************************************************
 455:Generated_Source\PSoC4/CapSense_1_SMS.c **** *
 456:Generated_Source\PSoC4/CapSense_1_SMS.c **** * Summary:
 457:Generated_Source\PSoC4/CapSense_1_SMS.c **** *  This function returns the noise value of a
 458:Generated_Source\PSoC4/CapSense_1_SMS.c **** *  component.
 459:Generated_Source\PSoC4/CapSense_1_SMS.c **** *
 460:Generated_Source\PSoC4/CapSense_1_SMS.c **** * Parameters:
 461:Generated_Source\PSoC4/CapSense_1_SMS.c **** *  sensor - Sensor number.
 462:Generated_Source\PSoC4/CapSense_1_SMS.c **** *
 463:Generated_Source\PSoC4/CapSense_1_SMS.c **** * Return:
 464:Generated_Source\PSoC4/CapSense_1_SMS.c **** *  The noise envelope value of the sensor
 465:Generated_Source\PSoC4/CapSense_1_SMS.c **** *  indicated by argument.
 466:Generated_Source\PSoC4/CapSense_1_SMS.c **** *
 467:Generated_Source\PSoC4/CapSense_1_SMS.c **** * Global Variables:
 468:Generated_Source\PSoC4/CapSense_1_SMS.c **** *  CapSense_1_noiseEnvelopeTbl[] - array with Noise Envelope.
 469:Generated_Source\PSoC4/CapSense_1_SMS.c **** *
 470:Generated_Source\PSoC4/CapSense_1_SMS.c **** * Side Effects:
 471:Generated_Source\PSoC4/CapSense_1_SMS.c **** *  None
 472:Generated_Source\PSoC4/CapSense_1_SMS.c **** *
 473:Generated_Source\PSoC4/CapSense_1_SMS.c **** *******************************************************************************/
 474:Generated_Source\PSoC4/CapSense_1_SMS.c **** uint16 CapSense_1_GetNoiseEnvelope(uint32 sensor)
 475:Generated_Source\PSoC4/CapSense_1_SMS.c **** {
 692              		.loc 1 475 0
 693              		.cfi_startproc
 694 0000 80B5     		push	{r7, lr}
 695              		.cfi_def_cfa_offset 8
 696              		.cfi_offset 7, -8
 697              		.cfi_offset 14, -4
 698 0002 82B0     		sub	sp, sp, #8
 699              		.cfi_def_cfa_offset 16
 700 0004 00AF     		add	r7, sp, #0
 701              		.cfi_def_cfa_register 7
 702 0006 7860     		str	r0, [r7, #4]
 476:Generated_Source\PSoC4/CapSense_1_SMS.c ****     return((uint16)((uint16)CapSense_1_noiseEnvelopeTbl[sensor] << 1u) + 1u);
 703              		.loc 1 476 0
 704 0008 064A     		ldr	r2, .L39
 705 000a 7B68     		ldr	r3, [r7, #4]
 706 000c D318     		add	r3, r2, r3
 707 000e 1B78     		ldrb	r3, [r3]
 708 0010 9BB2     		uxth	r3, r3
 709 0012 DB18     		add	r3, r3, r3
 710 0014 9BB2     		uxth	r3, r3
 711 0016 0133     		add	r3, r3, #1
 712 0018 9BB2     		uxth	r3, r3
 477:Generated_Source\PSoC4/CapSense_1_SMS.c **** }
ARM GAS  C:\Users\IGOR~1.HOL\AppData\Local\Temp\cchTEJnV.s 			page 22


 713              		.loc 1 477 0
 714 001a 181C     		mov	r0, r3
 715 001c BD46     		mov	sp, r7
 716 001e 02B0     		add	sp, sp, #8
 717              		@ sp needed
 718 0020 80BD     		pop	{r7, pc}
 719              	.L40:
 720 0022 C046     		.align	2
 721              	.L39:
 722 0024 00000000 		.word	CapSense_1_noiseEnvelopeTbl
 723              		.cfi_endproc
 724              	.LFE42:
 725              		.size	CapSense_1_GetNoiseEnvelope, .-CapSense_1_GetNoiseEnvelope
 726              		.global	__aeabi_uidiv
 727              		.section	.text.CapSense_1_GetNormalizedDiffCountData,"ax",%progbits
 728              		.align	2
 729              		.global	CapSense_1_GetNormalizedDiffCountData
 730              		.code	16
 731              		.thumb_func
 732              		.type	CapSense_1_GetNormalizedDiffCountData, %function
 733              	CapSense_1_GetNormalizedDiffCountData:
 734              	.LFB43:
 478:Generated_Source\PSoC4/CapSense_1_SMS.c **** 
 479:Generated_Source\PSoC4/CapSense_1_SMS.c **** 
 480:Generated_Source\PSoC4/CapSense_1_SMS.c **** /*******************************************************************************
 481:Generated_Source\PSoC4/CapSense_1_SMS.c **** * Function Name: CapSense_1_GetNormalizedDiffCountData
 482:Generated_Source\PSoC4/CapSense_1_SMS.c **** ********************************************************************************
 483:Generated_Source\PSoC4/CapSense_1_SMS.c **** *
 484:Generated_Source\PSoC4/CapSense_1_SMS.c **** * Summary:
 485:Generated_Source\PSoC4/CapSense_1_SMS.c **** *  This API returns normalized difference count data.
 486:Generated_Source\PSoC4/CapSense_1_SMS.c **** *
 487:Generated_Source\PSoC4/CapSense_1_SMS.c **** * Parameters:
 488:Generated_Source\PSoC4/CapSense_1_SMS.c **** *  sensor:  Sensor number.
 489:Generated_Source\PSoC4/CapSense_1_SMS.c **** *
 490:Generated_Source\PSoC4/CapSense_1_SMS.c **** * Return:
 491:Generated_Source\PSoC4/CapSense_1_SMS.c **** *  This API returns a normalized count value of the sensor indicated by the
 492:Generated_Source\PSoC4/CapSense_1_SMS.c **** *  argument.
 493:Generated_Source\PSoC4/CapSense_1_SMS.c **** *
 494:Generated_Source\PSoC4/CapSense_1_SMS.c **** * Global Variables:
 495:Generated_Source\PSoC4/CapSense_1_SMS.c **** *  CapSense_1_sensorSignal[] - array with difference counts for sensors
 496:Generated_Source\PSoC4/CapSense_1_SMS.c **** *
 497:Generated_Source\PSoC4/CapSense_1_SMS.c **** * Side Effects:
 498:Generated_Source\PSoC4/CapSense_1_SMS.c **** *  None
 499:Generated_Source\PSoC4/CapSense_1_SMS.c **** *
 500:Generated_Source\PSoC4/CapSense_1_SMS.c **** *******************************************************************************/
 501:Generated_Source\PSoC4/CapSense_1_SMS.c **** uint16 CapSense_1_GetNormalizedDiffCountData(uint32 sensor)
 502:Generated_Source\PSoC4/CapSense_1_SMS.c **** {
 735              		.loc 1 502 0
 736              		.cfi_startproc
 737 0000 80B5     		push	{r7, lr}
 738              		.cfi_def_cfa_offset 8
 739              		.cfi_offset 7, -8
 740              		.cfi_offset 14, -4
 741 0002 82B0     		sub	sp, sp, #8
 742              		.cfi_def_cfa_offset 16
 743 0004 00AF     		add	r7, sp, #0
 744              		.cfi_def_cfa_register 7
ARM GAS  C:\Users\IGOR~1.HOL\AppData\Local\Temp\cchTEJnV.s 			page 23


 745 0006 7860     		str	r0, [r7, #4]
 503:Generated_Source\PSoC4/CapSense_1_SMS.c ****     return (uint16)(((uint32)CapSense_1_sensorSignal[sensor] << 7u) / CapSense_1_kValueTbl[sensor])
 746              		.loc 1 503 0
 747 0008 094A     		ldr	r2, .L43
 748 000a 7B68     		ldr	r3, [r7, #4]
 749 000c D318     		add	r3, r2, r3
 750 000e 1B78     		ldrb	r3, [r3]
 751 0010 D901     		lsl	r1, r3, #7
 752 0012 084A     		ldr	r2, .L43+4
 753 0014 7B68     		ldr	r3, [r7, #4]
 754 0016 D318     		add	r3, r2, r3
 755 0018 1B78     		ldrb	r3, [r3]
 756 001a 081C     		mov	r0, r1
 757 001c 191C     		mov	r1, r3
 758 001e FFF7FEFF 		bl	__aeabi_uidiv
 759 0022 031C     		mov	r3, r0
 760 0024 9BB2     		uxth	r3, r3
 504:Generated_Source\PSoC4/CapSense_1_SMS.c **** }
 761              		.loc 1 504 0
 762 0026 181C     		mov	r0, r3
 763 0028 BD46     		mov	sp, r7
 764 002a 02B0     		add	sp, sp, #8
 765              		@ sp needed
 766 002c 80BD     		pop	{r7, pc}
 767              	.L44:
 768 002e C046     		.align	2
 769              	.L43:
 770 0030 00000000 		.word	CapSense_1_sensorSignal
 771 0034 00000000 		.word	CapSense_1_kValueTbl
 772              		.cfi_endproc
 773              	.LFE43:
 774              		.size	CapSense_1_GetNormalizedDiffCountData, .-CapSense_1_GetNormalizedDiffCountData
 775              		.text
 776              	.Letext0:
 777              		.file 2 "Generated_Source\\PSoC4\\cytypes.h"
 778              		.file 3 "Generated_Source\\PSoC4\\CapSense_1_PVT.h"
 779              		.file 4 "Generated_Source\\PSoC4\\CapSense_1.h"
 780              		.file 5 "Generated_Source\\PSoC4\\CapSense_1_CSHL.h"